(dp0
S'push1'
p1
(lp2
F0.8022454977035522
aF0.9801798462867737
aF0.00884321890771389
aF0.006554136984050274
aF0.9949259161949158
aF0.9068397283554077
aF0.2404824048280716
aF0.5698205232620239
asS'push2'
p3
(lp4
F0.00045433969353325665
aF0.671654224395752
aF0.9673149585723877
aF0.003889754181727767
aF0.9852344393730164
aF0.6718659996986389
aF0.9997401833534241
aF0.9998477101325989
asS'description'
p5
S'testing old classifier'
p6
sS'scoop2'
p7
(lp8
F0.034903910011053085
aF0.022911442443728447
aF0.9965102076530457
aF0.0007585259736515582
aF0.11567243933677673
aF0.7598115801811218
aF0.040825698524713516
aF0.029851268976926804
asS'trials'
p9
I1
sS'scoop1'
p10
(lp11
F3.540502291343728e-08
aF0.8528679013252258
aF3.2883480827194944e-08
aF0.9796070456504822
aF0.7263761758804321
aF5.588317009141974e-08
aF0.9810695648193359
aF0.18650740385055542
asS'cut1'
p12
(lp13
F0.1664981096982956
aF0.16649535298347473
aF0.16649357974529266
aF0.16650700569152832
aF0.16930322349071503
aF0.1664993166923523
aF0.16649343073368073
aF0.16649556159973145
asS'cut2'
p14
(lp15
F0.003941891714930534
aF0.007587962318211794
aF0.00040578353218734264
aF0.6398020386695862
aF0.8275647163391113
aF0.03118019737303257
aF0.04814806580543518
aF0.31714946031570435
asS'open1'
p16
(lp17
F1.923274481896442e-07
aF0.004723220132291317
aF0.9842514395713806
aF3.735615337063791e-07
aF2.8412414394551888e-05
aF2.04600922870668e-07
aF0.7937166690826416
aF0.0014973103534430265
asS'open2'
p18
(lp19
F0.0002666280488483608
aF0.9500611424446106
aF0.0005870301392860711
aF7.323581667151302e-05
aF0.001719983178190887
aF0.0034966266248375177
aF0.9496707916259766
aF0.73246169090271
as.