(dp0
S'push1'
p1
(lp2
F0.9662284851074219
aF0.0030074212700128555
aF0.11384425312280655
aF0.2182261347770691
aF0.09520464390516281
aF0.5855927467346191
aF0.28725218772888184
aF0.49853989481925964
asS'push2'
p3
(lp4
F0.5243673920631409
aF0.9779387712478638
aF0.06531870365142822
aF0.017057044431567192
aF0.863128662109375
aF0.48491594195365906
aF0.48972225189208984
aF0.8000760674476624
asS'description'
p5
S'computed mean confidence of model trained on one task vs all tasks'
p6
sS'scoop2'
p7
(lp8
F0.9255515933036804
aF0.9482689499855042
aF0.08953017741441727
aF0.13524028658866882
aF0.053735218942165375
aF0.8929691910743713
aF0.4721692204475403
aF0.8167265057563782
asS'trials'
p9
I1
sS'scoop1'
p10
(lp11
F0.6709713339805603
aF0.23007121682167053
aF0.40573179721832275
aF0.10786446183919907
aF0.9579629302024841
aF0.5257226824760437
aF0.11927339434623718
aF0.3539142310619354
asS'cut1'
p12
(lp13
F0.013003901578485966
aF0.01369163766503334
aF0.9668715596199036
aF0.017199717462062836
aF0.9889601469039917
aF0.009683114476501942
aF0.04140285775065422
aF0.061017658561468124
asS'cut2'
p14
(lp15
F0.9557690620422363
aF0.9686868786811829
aF0.40558987855911255
aF0.9261071085929871
aF0.051831573247909546
aF0.9351344108581543
aF0.4731232821941376
aF0.9675206542015076
asS'open1'
p16
(lp17
F0.6559223532676697
aF0.6976252198219299
aF0.4064370393753052
aF0.7019840478897095
aF0.5467568635940552
aF0.6464824676513672
aF0.7129205465316772
aF0.7240900993347168
asS'open2'
p18
(lp19
F0.9890774488449097
aF0.9912868738174438
aF0.198923259973526
aF0.16267366707324982
aF0.13159340620040894
aF0.9880919456481934
aF0.502967894077301
aF0.9755512475967407
as.