(dp0
S'push1'
p1
(lp2
F0.9782585501670837
aF0.1325160562992096
aF0.14299564063549042
aF0.9972856044769287
aF0.2638179659843445
aF0.6039931774139404
aF0.31826257705688477
aF0.37262168526649475
asS'push2'
p3
(lp4
F0.05082185938954353
aF0.8281576633453369
aF0.02600250393152237
aF0.08381817489862442
aF0.9606927633285522
aF0.06107413396239281
aF0.9181203842163086
aF0.893200159072876
asS'cut1'
p5
(lp6
F0.7821469306945801
aF0.7816831469535828
aF0.8092296719551086
aF0.8161615133285522
aF0.8459029793739319
aF0.7900195121765137
aF0.8174728751182556
aF0.8223785161972046
asS'cut2'
p7
(lp8
F0.34792783856391907
aF0.052852243185043335
aF0.4726495146751404
aF0.9393378496170044
aF0.7878037691116333
aF0.1305730640888214
aF0.36871838569641113
aF0.18376469612121582
asS'scoop2'
p9
(lp10
F0.9204119443893433
aF0.10757751017808914
aF0.27618980407714844
aF0.43478071689605713
aF0.12147636711597443
aF0.8773443102836609
aF0.12888619303703308
aF0.16567182540893555
asS'trials'
p11
I1
sS'description'
p12
S'computed mean confidence of model trained on one task vs all tasks'
p13
sS'scoop1'
p14
(lp15
F0.2580853998661041
aF0.2657177150249481
aF0.2624610364437103
aF0.21342229843139648
aF0.8814904689788818
aF0.265736848115921
aF0.27355313301086426
aF0.2657371759414673
asS'open1'
p16
(lp17
F0.0015887111658230424
aF0.040282126516103745
aF0.001000520191155374
aF0.8551691174507141
aF0.9208502173423767
aF0.0019169050501659513
aF0.9812219738960266
aF0.015419412404298782
asS'open2'
p18
(lp19
F0.015437304973602295
aF0.48286211490631104
aF0.14111125469207764
aF0.04885449260473251
aF0.05610678344964981
aF0.01301715336740017
aF0.8907109498977661
aF0.878828763961792
as.