(dp0
S'push1'
p1
(lp2
F0.9576895236968994
aF0.1379576176404953
aF0.9917193055152893
aF0.36091476678848267
aF0.11534273624420166
aF0.9406235814094543
aF0.48842331767082214
aF0.9962208271026611
asS'push2'
p3
(lp4
F0.875584065914154
aF0.9733579754829407
aF0.9830395579338074
aF0.025767233222723007
aF0.9533603191375732
aF0.5555780529975891
aF0.536940336227417
aF0.9937015771865845
asS'description'
p5
S'computed mean confidence of model trained on one task vs all tasks'
p6
sS'scoop2'
p7
(lp8
F0.9967805743217468
aF0.9979652762413025
aF0.6325996518135071
aF0.992354154586792
aF0.997616708278656
aF0.9760586619377136
aF0.9960373640060425
aF0.9980512261390686
asS'trials'
p9
I1
sS'scoop1'
p10
(lp11
F0.9893394708633423
aF0.9983612895011902
aF0.17173711955547333
aF0.9966604709625244
aF0.981144368648529
aF0.998755693435669
aF0.9902488589286804
aF0.9893001317977905
asS'cut1'
p12
(lp13
F0.01710164174437523
aF0.725996732711792
aF0.9826455116271973
aF0.0038434055168181658
aF0.9208104610443115
aF0.4101465344429016
aF0.8156769871711731
aF0.8969714045524597
asS'cut2'
p14
(lp15
F0.9977471232414246
aF0.9977251887321472
aF0.9715598225593567
aF0.9834153056144714
aF0.9284155368804932
aF0.9956642985343933
aF0.23821859061717987
aF0.9792113304138184
asS'open1'
p16
(lp17
F0.004458022303879261
aF0.010698379017412663
aF0.006136696320027113
aF0.006671069655567408
aF0.0229256059974432
aF0.004514685831964016
aF0.9534757733345032
aF0.027366939932107925
asS'open2'
p18
(lp19
F0.7336620688438416
aF0.9462296366691589
aF0.02562626264989376
aF0.1188838854432106
aF0.4154682457447052
aF0.7192541360855103
aF0.9328917860984802
aF0.9502586126327515
as.