(dp0
S'push1'
p1
(lp2
F0.9940285682678223
aF0.715410590171814
aF0.32829445600509644
aF0.3224259912967682
aF0.7459279298782349
aF0.9948448538780212
aF0.826570451259613
aF0.9906706809997559
asS'push2'
p3
(lp4
F0.9707522392272949
aF0.9865065217018127
aF0.871945858001709
aF0.01740417629480362
aF0.18879646062850952
aF0.962006151676178
aF0.6415344476699829
aF0.9799705743789673
asS'description'
p5
S'computed mean confidence of model trained on one task vs all tasks'
p6
sS'scoop2'
p7
(lp8
F0.9998997449874878
aF0.999998152256012
aF0.9758135080337524
aF0.12478488683700562
aF0.9987745881080627
aF0.9966556429862976
aF0.9996322989463806
aF0.9985116124153137
asS'trials'
p9
I1
sS'scoop1'
p10
(lp11
F0.12689828872680664
aF0.13794663548469543
aF0.991301417350769
aF0.023311031982302666
aF0.9808382987976074
aF0.24613459408283234
aF0.19100148975849152
aF0.20730642974376678
asS'cut1'
p12
(lp13
F0.040305182337760925
aF0.041631296277046204
aF0.9434391260147095
aF0.01756434328854084
aF0.01719827577471733
aF0.05528199300169945
aF0.02353057451546192
aF0.019707094877958298
asS'cut2'
p14
(lp15
F0.9983295798301697
aF0.997665524482727
aF0.9999977946281433
aF0.9980155229568481
aF0.9999990463256836
aF0.9994764924049377
aF0.7696208953857422
aF0.9999793171882629
asS'open1'
p16
(lp17
F0.9999846816062927
aF0.9999875426292419
aF0.99997878074646
aF0.628915011882782
aF0.9469161033630371
aF0.9999821782112122
aF0.9911518692970276
aF0.9997876286506653
asS'open2'
p18
(lp19
F0.9994669556617737
aF0.23135565221309662
aF0.21382597088813782
aF0.9983310699462891
aF0.9962570071220398
aF0.9991917014122009
aF0.34296074509620667
aF0.9922388792037964
as.