(dp0
S'push1'
p1
(lp2
F-48.027836540310865
asS'push2'
p3
(lp4
F-66.19422214490729
asS'scoop2'
p5
(lp6
F-45.75985824517514
asS'scoop1'
p7
(lp8
F-77.76856833127326
asS'cut1'
p9
(lp10
F-103.59106380056156
asS'cut2'
p11
(lp12
F-123.76111953425375
asS'open1'
p13
(lp14
F-260.3509991669961
asS'open2'
p15
(lp16
F-39.25962105206567
as.