(lp0
(lp1
F0.1668596809956225
aF0.4679805395002098
aF0.5789558806697789
aF-3.034217650673259
aF-0.029924857530346172
aF-0.0033678916296684624
aF0.15311852145042232
aF0.545256167652745
aF0.6045116724995439
aF-2.9364718849977054
aF-0.0489670726719795
aF0.0029460910918626326
aa(lp2
F0.1668596809956225
aF0.4679805395002098
aF0.5789558806697789
aF-3.034217650673259
aF-0.029924857530346172
aF-0.0033678916296684624
aF0.137123837058273
aF0.6239710520577799
aF0.6107079234347493
aF-2.850538590123313
aF-0.061937583406740104
aF0.005421573579738086
aa(lp3
F0.1668596809956225
aF0.4679805395002098
aF0.5789558806697789
aF-3.034217650673259
aF-0.029924857530346172
aF-0.0033678916296684624
aF0.12077562899188665
aF0.6951024465716059
aF0.6034906173666161
aF-2.7718994480446484
aF-0.06925167911018465
aF0.004921254027612974
aa(lp4
F0.1668596809956225
aF0.4679805395002098
aF0.5789558806697789
aF-3.034217650673259
aF-0.029924857530346172
aF-0.0033678916296684624
aF0.10507469608928632
aF0.7526177661407163
aF0.5952476775966045
aF-2.685652185780782
aF-0.07121011049169647
aF0.0023674289023086106
aa(lp5
F0.1668596809956225
aF0.4679805395002098
aF0.5789558806697789
aF-3.034217650673259
aF-0.029924857530346172
aF-0.0033678916296684624
aF0.09099062257559669
aF0.7984505194626212
aF0.5876679847320044
aF-2.5940336504755748
aF-0.06830542787860522
aF-0.0018475181194084367
aa(lp6
F0.1668596809956225
aF0.4679805395002098
aF0.5789558806697789
aF-3.034217650673259
aF-0.029924857530346172
aF-0.0033678916296684624
aF0.07873540994216728
aF0.834182082507835
aF0.582757105750423
aF-2.4969304109962236
aF-0.06124907171345831
aF-0.006727630156226742
aa(lp7
F0.1668596809956225
aF0.4679805395002098
aF0.5789558806697789
aF-3.034217650673259
aF-0.029924857530346172
aF-0.0033678916296684624
aF0.06862823878962783
aF0.8613556501504566
aF0.5806179222976362
aF-2.3955666654517573
aF-0.05054005290550209
aF-0.011956083856237138
aa(lp8
F0.1668596809956225
aF0.4679805395002098
aF0.5789558806697789
aF-3.034217650673259
aF-0.029924857530346172
aF-0.0033678916296684624
aF0.060082935535571404
aF0.8815295550148075
aF0.5807948843352025
aF-2.2915150117421206
aF-0.03706486222623298
aF-0.015970909312807213
aa(lp9
F0.1668596809956225
aF0.4679805395002098
aF0.5789558806697789
aF-3.034217650673259
aF-0.029924857530346172
aF-0.0033678916296684624
aF0.05285932188193135
aF0.8959760338092819
aF0.5828992324530247
aF-2.1844379669081135
aF-0.020961480255553663
aF-0.018511778717310624
aa(lp10
F0.1668596809956225
aF0.4679805395002098
aF0.5789558806697789
aF-3.034217650673259
aF-0.029924857530346172
aF-0.0033678916296684624
aF0.04753793142595274
aF0.905719214354409
aF0.5844090360650126
aF-2.094930738916171
aF-0.006276239139558939
aF-0.019669579753332164
aa(lp11
F0.1668596809956225
aF0.4679805395002098
aF0.5789558806697789
aF-3.034217650673259
aF-0.029924857530346172
aF-0.0033678916296684624
aF0.04321122783772539
aF0.9126558139783612
aF0.5851474667278693
aF-2.0214792966706336
aF0.006433793892730765
aF-0.019488785514787884
aa(lp12
F0.1668596809956225
aF0.4679805395002098
aF0.5789558806697789
aF-3.034217650673259
aF-0.029924857530346172
aF-0.0033678916296684624
aF0.039490422453818966
aF0.917700733869805
aF0.5852450991880429
aF-1.9616453726541094
aF0.017126716777641805
aF-0.018455591008250803
aa(lp13
F0.1668596809956225
aF0.4679805395002098
aF0.5789558806697789
aF-3.034217650673259
aF-0.029924857530346172
aF-0.0033678916296684624
aF0.036704010617770656
aF0.9214785286439985
aF0.584864008950482
aF-1.9129771176134767
aF0.02615634902506796
aF-0.017245944081371093
aa(lp14
F0.1668596809956225
aF0.4679805395002098
aF0.5789558806697789
aF-3.034217650673259
aF-0.029924857530346172
aF-0.0033678916296684624
aF0.0345272129960361
aF0.9242146260885427
aF0.584505125787879
aF-1.8731439067607405
aF0.033595885439706756
aF-0.016118728749726065
aa(lp15
F0.1668596809956225
aF0.4679805395002098
aF0.5789558806697789
aF-3.034217650673259
aF-0.029924857530346172
aF-0.0033678916296684624
aF0.03261518058372684
aF0.9262006897468624
aF0.5840459475448775
aF-1.8403915256783352
aF0.03990067463671653
aF-0.014697037259317765
aa(lp16
F0.1668596809956225
aF0.4679805395002098
aF0.5789558806697789
aF-3.034217650673259
aF-0.029924857530346172
aF-0.0033678916296684624
aF0.03113631086378657
aF0.9277585620170378
aF0.5834984086990237
aF-1.813953319874776
aF0.04492431482304546
aF-0.013534528735695855
aa(lp17
F0.1668596809956225
aF0.4679805395002098
aF0.5789558806697789
aF-3.034217650673259
aF-0.029924857530346172
aF-0.0033678916296684624
aF0.02980372525786794
aF0.9290261427317088
aF0.5827775793880541
aF-1.7924431218432957
aF0.04906936170882665
aF-0.01228287764752599
aa(lp18
F0.1668596809956225
aF0.4679805395002098
aF0.5789558806697789
aF-3.034217650673259
aF-0.029924857530346172
aF-0.0033678916296684624
aF0.02887515798196761
aF0.9298666858126123
aF0.5824633722890323
aF-1.7745648776862615
aF0.052568829275566956
aF-0.011317634684160686
aa(lp19
F0.1668596809956225
aF0.4679805395002098
aF0.5789558806697789
aF-3.034217650673259
aF-0.029924857530346172
aF-0.0033678916296684624
aF0.02804722353581907
aF0.9305978707847136
aF0.5819832886984107
aF-1.7600940894930752
aF0.05542457440857838
aF-0.010398429250965692
aa(lp20
F0.1668596809956225
aF0.4679805395002098
aF0.5789558806697789
aF-3.034217650673259
aF-0.029924857530346172
aF-0.0033678916296684624
aF0.027365551752044654
aF0.9311565987041254
aF0.5816906389013924
aF-1.74811726242652
aF0.057729140227374
aF-0.009651433536803554
aa(lp21
F0.1668596809956225
aF0.4679805395002098
aF0.5789558806697789
aF-3.034217650673259
aF-0.029924857530346172
aF-0.0033678916296684624
aF0.026869438519622278
aF0.9315601551417718
aF0.5814214262366033
aF-1.738413981399051
aF0.0596380022022077
aF-0.009018091324466305
aa(lp22
F0.1668596809956225
aF0.4679805395002098
aF0.5789558806697789
aF-3.034217650673259
aF-0.029924857530346172
aF-0.0033678916296684624
aF0.026428066643324782
aF0.9319443899592961
aF0.5810932899902733
aF-1.7306146630371109
aF0.06115257381606449
aF-0.008493775397442218
aa(lp23
F0.1668596809956225
aF0.4679805395002098
aF0.5789558806697789
aF-3.034217650673259
aF-0.029924857530346172
aF-0.0033678916296684624
aF0.02606491257697059
aF0.9322740909923423
aF0.5808100293834403
aF-1.7240700825838395
aF0.0624889228693991
aF-0.00802855142805708
aa(lp24
F0.1668596809956225
aF0.4679805395002098
aF0.5789558806697789
aF-3.034217650673259
aF-0.029924857530346172
aF-0.0033678916296684624
aF0.025771279922048307
aF0.9324919099576934
aF0.5806458566677466
aF-1.7188630356637202
aF0.06349193668588404
aF-0.007645643067991926
aa(lp25
F0.1668596809956225
aF0.4679805395002098
aF0.5789558806697789
aF-3.034217650673259
aF-0.029924857530346172
aF-0.0033678916296684624
aF0.025514111236933375
aF0.9326745587424661
aF0.5804783337965683
aF-1.7145892690223639
aF0.06433853809451043
aF-0.007317838248950612
aa(lp26
F0.1668596809956225
aF0.4679805395002098
aF0.5789558806697789
aF-3.034217650673259
aF-0.029924857530346172
aF-0.0033678916296684624
aF0.023806257944046234
aF0.9389474778650925
aF0.5916280166086922
aF-1.725049208564664
aF0.07180483693654573
aF0.0029160284956597934
aa(lp27
F0.1668596809956225
aF0.4679805395002098
aF0.5789558806697789
aF-3.034217650673259
aF-0.029924857530346172
aF-0.0033678916296684624
aF0.020275594998649903
aF0.9555420276311286
aF0.6255378637489312
aF-1.774069132759878
aF0.09171307456348109
aF0.03039810651046459
aa(lp28
F0.1668596809956225
aF0.4679805395002098
aF0.5789558806697789
aF-3.034217650673259
aF-0.029924857530346172
aF-0.0033678916296684624
aF0.017268496220620832
aF0.9688248869069256
aF0.6503237296256058
aF-1.8369429483529705
aF0.10771195813528046
aF0.04841798181724143
aa(lp29
F0.1668596809956225
aF0.4679805395002098
aF0.5789558806697789
aF-3.034217650673259
aF-0.029924857530346172
aF-0.0033678916296684624
aF0.014803833872956888
aF0.979662777182509
aF0.667796054395659
aF-1.911122192248674
aF0.1205943069194228
aF0.058491850399631964
aa(lp30
F0.1668596809956225
aF0.4679805395002098
aF0.5789558806697789
aF-3.034217650673259
aF-0.029924857530346172
aF-0.0033678916296684624
aF0.01278957548395494
aF0.9885663368402066
aF0.6791091292835578
aF-1.993862947417673
aF0.13078459017236937
aF0.06194587508994575
aa(lp31
F0.1668596809956225
aF0.4679805395002098
aF0.5789558806697789
aF-3.034217650673259
aF-0.029924857530346172
aF-0.0033678916296684624
aF0.011274090623295803
aF0.9957768308429916
aF0.6851178178679825
aF-2.0838691223356047
aF0.1380117606361937
aF0.05987371733593349
aa(lp32
F0.1668596809956225
aF0.4679805395002098
aF0.5789558806697789
aF-3.034217650673259
aF-0.029924857530346172
aF-0.0033678916296684624
aF0.010083793059282978
aF1.0014243796205735
aF0.6865879787614982
aF-2.1799777679111974
aF0.1423335575004294
aF0.053215831660751334
aa(lp33
F0.1668596809956225
aF0.4679805395002098
aF0.5789558806697789
aF-3.034217650673259
aF-0.029924857530346172
aF-0.0033678916296684624
aF0.009172641021351787
aF1.0055083822880024
aF0.6845344095906322
aF-2.28023167199603
aF0.14366406899683912
aF0.043521306460853164
aa(lp34
F0.1668596809956225
aF0.4679805395002098
aF0.5789558806697789
aF-3.034217650673259
aF-0.029924857530346172
aF-0.0033678916296684624
aF0.008629399423108006
aF1.0079795893840402
aF0.6792069766975385
aF-2.3846749536234024
aF0.14159192690939734
aF0.03131385791092982
aa(lp35
F0.1668596809956225
aF0.4679805395002098
aF0.5789558806697789
aF-3.034217650673259
aF-0.029924857530346172
aF-0.0033678916296684624
aF0.00833019758281003
aF1.0087048095629267
aF0.6716355773203647
aF-2.491786163393097
aF0.13624811981614604
aF0.017778277121560274
aa(lp36
F0.1668596809956225
aF0.4679805395002098
aF0.5789558806697789
aF-3.034217650673259
aF-0.029924857530346172
aF-0.0033678916296684624
aF0.008327384453428717
aF1.0076611964375468
aF0.6621276582210127
aF-2.601475937060657
aF0.12781582357935725
aF0.003827370981034774
aa(lp37
F0.1668596809956225
aF0.4679805395002098
aF0.5789558806697789
aF-3.034217650673259
aF-0.029924857530346172
aF-0.0033678916296684624
aF0.008706314088353836
aF1.0046995700717631
aF0.6511573346087907
aF-2.714646738024389
aF0.11618361488233281
aF-0.01034168042067822
aa(lp38
F0.1668596809956225
aF0.4679805395002098
aF0.5789558806697789
aF-3.034217650673259
aF-0.029924857530346172
aF-0.0033678916296684624
aF0.009333597939711195
aF0.9999205559826819
aF0.6395486721256839
aF-2.8271292516540356
aF0.10181764414497918
aF-0.02342493376568124
aa(lp39
F0.1668596809956225
aF0.4679805395002098
aF0.5789558806697789
aF-3.034217650673259
aF-0.029924857530346172
aF-0.0033678916296684624
aF0.01022630219536658
aF0.9933491538664354
aF0.6277193972812313
aF-2.9399591677430266
aF0.08506241967095828
aF-0.03500391111819195
aa(lp40
F0.1668596809956225
aF0.4679805395002098
aF0.5789558806697789
aF-3.034217650673259
aF-0.029924857530346172
aF-0.0033678916296684624
aF0.011393025499831224
aF0.9853558734527345
aF0.6164074750629444
aF-3.0487568153995652
aF0.06704601289460795
aF-0.04460488165714196
aa(lp41
F0.1668596809956225
aF0.4679805395002098
aF0.5789558806697789
aF-3.034217650673259
aF-0.029924857530346172
aF-0.0033678916296684624
aF0.01247169777750021
aF0.9777146852929199
aF0.6078242299632451
aF-3.1378301192924973
aF0.0515192397564518
aF-0.05109108521163764
aa(lp42
F0.1668596809956225
aF0.4679805395002098
aF0.5789558806697789
aF-3.034217650673259
aF-0.029924857530346172
aF-0.0033678916296684624
aF0.013535661545530802
aF0.9706964244936487
aF0.6014834674686328
aF3.072554500848414
aF0.038249908511756754
aF-0.0555859919897563
aa(lp43
F0.1668596809956225
aF0.4679805395002098
aF0.5789558806697789
aF-3.034217650673259
aF-0.029924857530346172
aF-0.0033678916296684624
aF0.01442650867539257
aF0.9645585005800879
aF0.5965813622566105
aF3.0131681158549637
aF0.02724394899415068
aF-0.05856561009614835
aa(lp44
F0.1668596809956225
aF0.4679805395002098
aF0.5789558806697789
aF-3.034217650673259
aF-0.029924857530346172
aF-0.0033678916296684624
aF0.015154205396610613
aF0.9592417455335984
aF0.5929134878254522
aF2.9647334379583703
aF0.018058095264402135
aF-0.0604797227078026
aa(lp45
F0.1668596809956225
aF0.4679805395002098
aF0.5789558806697789
aF-3.034217650673259
aF-0.029924857530346172
aF-0.0033678916296684624
aF0.01583739533333185
aF0.9547325036333861
aF0.5900241415189721
aF2.92502677819985
aF0.010408570736631482
aF-0.061892686236978446
aa(lp46
F0.1668596809956225
aF0.4679805395002098
aF0.5789558806697789
aF-3.034217650673259
aF-0.029924857530346172
aF-0.0033678916296684624
aF0.016384176364183035
aF0.9509190694497408
aF0.5878709886366417
aF2.8926493151304022
aF0.004132230932938003
aF-0.06279261869842027
aa(lp47
F0.1668596809956225
aF0.4679805395002098
aF0.5789558806697789
aF-3.034217650673259
aF-0.029924857530346172
aF-0.0033678916296684624
aF0.016845148532143323
aF0.9477457948855156
aF0.5862118001211707
aF2.866304751309534
aF-0.0009691986468750678
aF-0.0633858698978358
aa(lp48
F0.1668596809956225
aF0.4679805395002098
aF0.5789558806697789
aF-3.034217650673259
aF-0.029924857530346172
aF-0.0033678916296684624
aF0.017237344969092544
aF0.9450868573419103
aF0.5849631479377655
aF2.8447916912524596
aF-0.005248293849891902
aF-0.06374066427443105
aa(lp49
F0.1668596809956225
aF0.4679805395002098
aF0.5789558806697789
aF-3.034217650673259
aF-0.029924857530346172
aF-0.0033678916296684624
aF0.0175406199178272
aF0.9428581612028731
aF0.5838586705926843
aF2.8267573811725764
aF-0.008776651885688146
aF-0.06403437144396211
aa(lp50
F0.1668596809956225
aF0.4679805395002098
aF0.5789558806697789
aF-3.034217650673259
aF-0.029924857530346172
aF-0.0033678916296684624
aF0.01778010676836108
aF0.9410646372685347
aF0.583067986368756
aF2.81245564220463
aF-0.011627549720445253
aF-0.06421268011055557
aa(lp51
F0.1668596809956225
aF0.4679805395002098
aF0.5789558806697789
aF-3.034217650673259
aF-0.029924857530346172
aF-0.0033678916296684624
aF0.018053455805631027
aF0.9395780306396158
aF0.5824252257475565
aF2.800734104611065
aF-0.01388096198294891
aF-0.06428552202430794
aa(lp52
F0.1668596809956225
aF0.4679805395002098
aF0.5789558806697789
aF-3.034217650673259
aF-0.029924857530346172
aF-0.0033678916296684624
aF0.018191600914538912
aF0.9383715543165783
aF0.5819002966669571
aF2.7912109628957027
aF-0.01579181548234843
aF-0.06438122037581354
aa(lp53
F0.1668596809956225
aF0.4679805395002098
aF0.5789558806697789
aF-3.034217650673259
aF-0.029924857530346172
aF-0.0033678916296684624
aF0.01830911548415092
aF0.9373603740712267
aF0.5815186659244034
aF2.783428983889245
aF-0.017396867531578097
aF-0.06440116506081878
aa(lp54
F0.1668596809956225
aF0.4679805395002098
aF0.5789558806697789
aF-3.034217650673259
aF-0.029924857530346172
aF-0.0033678916296684624
aF0.018483865013109356
aF0.9365402862433753
aF0.5811782052997844
aF2.7769978446223904
aF-0.01865715877201453
aF-0.06449855613834019
aa(lp55
F0.1668596809956225
aF0.4679805395002098
aF0.5789558806697789
aF-3.034217650673259
aF-0.029924857530346172
aF-0.0033678916296684624
aF0.018634378123689455
aF0.9358401954266803
aF0.5809592266520099
aF2.7717385504201855
aF-0.019729425006521778
aF-0.06460064610687229
aa.