(dp0
S'push1'
p1
(lp2
F-47.37697930007152
asS'push1_push2_cut1_cut2'
p3
(lp4
F-70.89619851751563
aF-105.00111756992435
aF-83.90481608099961
aF-95.82983597203005
asS'push1_push2_cut1_cut2_scoop1_scoop2_open1_open2'
p5
(lp6
F-65.8026527237701
aF-69.17025246662196
aF-86.6258746969593
aF-99.03450100025802
aF-63.78817954385854
aF-54.71475130796421
aF-196.89260515550467
aF-53.91032823530096
asS'push1_push2_cut1_cut2_scoop1_scoop2'
p7
(lp8
F-70.01465147692177
aF-84.21046687712844
aF-74.15176882726385
aF-141.0612057119405
aF-67.02771300398801
aF-56.587231371871596
asS'open2_open1_scoop2_scoop1_cut2'
p9
(lp10
F-65.41919888111579
aF-199.90182638852679
aF-185.75960667686985
aF-66.81470316711486
aF-106.89133138455766
asS'open2_open1_scoop2_scoop1_cut2_cut1'
p11
(lp12
F-51.96822245951707
aF-225.61954475983674
aF-139.73227521295118
aF-76.12821713333093
aF-128.67438258527824
aF-85.78775521075438
asS'open2_open1'
p13
(lp14
F-58.94843673625695
aF-195.2615213306869
asS'push1_push2_cut1'
p15
(lp16
F-124.11539940630671
aF-126.25989676575507
aF-86.46460274459587
asS'open2_open1_scoop2_scoop1_cut2_cut1_push2_push1'
p17
(lp18
F-58.48420877409492
aF-205.2647411792146
aF-134.55075347754354
aF-55.053868197120195
aF-105.1828653580903
aF-73.35152596210409
aF-82.52114599257318
aF-53.99554503161331
asS'push1_push2_cut1_cut2_scoop1'
p19
(lp20
F-75.23704201407432
aF-92.27352575289515
aF-97.83462896845191
aF-102.84139182597168
aF-81.4699982274644
asS'open2_open1_scoop2_scoop1'
p21
(lp22
F-83.29811761176919
aF-215.02486898128254
aF-56.771321440650716
aF-54.9908895363792
asS'push1_push2_cut1_cut2_scoop1_scoop2_open1'
p23
(lp24
F-136.22547287932835
aF-58.17508232842313
aF-120.16872900148287
aF-97.13164021078417
aF-55.45754298714337
aF-69.04875071444354
aF-199.75916236838125
asS'open2_open1_scoop2_scoop1_cut2_cut1_push2'
p25
(lp26
F-70.23331896950094
aF-196.5275334972626
aF-172.24146148934267
aF-65.80210510533934
aF-96.97778904142874
aF-98.73177533762286
aF-69.11055002153691
asS'open2_open1_scoop2'
p27
(lp28
F-60.45692522508252
aF-194.48280974955384
aF-59.11100569706515
asS'push1_push2'
p29
(lp30
F-64.74527733183291
aF-94.61869209524193
asS'open2'
p31
(lp32
F-59.144506027214085
as.