(dp0
S'open2_open1'
p1
(lp2
F-59.04657637541319
aF-195.72825821689153
asS'open2_open1_scoop2_scoop1_cut2'
p3
(lp4
F-70.07832914993163
aF-199.07642844058014
aF-195.94758663742928
aF-67.19647804640046
aF-106.51065936845552
asS'open2_open1_scoop2_scoop1_cut2_cut1'
p5
(lp6
F-51.9670199323561
aF-216.08058836877944
aF-149.54529825237762
aF-75.41680168056826
aF-144.53478877452304
aF-86.35999828907728
asS'open2_open1_scoop2_scoop1'
p7
(lp8
F-79.18413882133693
aF-216.9110192455057
aF-61.63546792490173
aF-56.21352169796807
asS'open2_open1_scoop2_scoop1_cut2_cut1_push2'
p9
(lp10
F-68.27280832917182
aF-195.37140906680878
aF-170.29060320030302
aF-65.58154945299731
aF-96.4300928879557
aF-98.11579464061175
aF-68.49168552063244
asS'open2_open1_scoop2'
p11
(lp12
F-60.687033222374275
aF-194.8957332288464
aF-59.186999046629595
asS'open2'
p13
(lp14
F-59.368647235179424
as.