(dp0
S'push1'
p1
(lp2
F-44.06443212094463
asS'push1_push2_cut1_cut2'
p3
(lp4
F-44.61435393639338
aF-59.57799881206108
aF-73.75048220239191
aF-88.70699749797011
asS'push1_push2_cut1_cut2_scoop1_scoop2_open1_open2'
p5
(lp6
F-49.366445250795834
aF-60.875156336170996
aF-82.59295220213117
aF-91.42853239828509
aF-50.744238768457414
aF-46.058369698916366
aF-134.66453613476813
aF-45.5357274370828
asS'push1_push2_cut1_cut2_scoop1_scoop2'
p7
(lp8
F-53.243665444202406
aF-63.36534161722169
aF-81.98115251841068
aF-95.31289250738563
aF-52.072643690152006
aF-52.401774868918324
asS'open2_open1_scoop2_scoop1_cut2'
p9
(lp10
F-47.84971537507221
aF-137.88430363945548
aF-46.85769235022708
aF-52.988633393028394
aF-89.02762769727215
asS'open2_open1_scoop2_scoop1_cut2_cut1'
p11
(lp12
F-45.39702771980994
aF-135.10436407790078
aF-48.66874064172763
aF-49.603744159513504
aF-89.78028555140456
aF-78.05786875933373
asS'open2_open1'
p13
(lp14
F-45.050943221647415
aF-132.50711034782404
asS'push1_push2_cut1'
p15
(lp16
F-44.06227269600815
aF-58.51458792064913
aF-77.10105310639749
asS'push1_push2_cut1_cut2_scoop1'
p17
(lp18
F-47.99200477633297
aF-61.748607268770755
aF-82.18446272838978
aF-87.96526717379247
aF-46.9079961485227
asS'open2_open1_scoop2_scoop1'
p19
(lp20
F-49.12697956712966
aF-135.76975662376486
aF-48.03406719091423
aF-53.151365931491384
asS'push1_push2_cut1_cut2_scoop1_scoop2_open1'
p21
(lp22
F-54.42784181490448
aF-67.67144893365408
aF-83.26746835397478
aF-93.12805537718427
aF-51.41575027869241
aF-47.7420725584861
aF-147.21773215320513
asS'open2_open1_scoop2'
p23
(lp24
F-43.13544431866538
aF-133.0643703006445
aF-46.09649590521819
asS'push1_push2'
p25
(lp26
F-47.372993703816405
aF-64.75024898263283
asS'open2'
p27
(lp28
F-44.23129048064345
as.