(dp0
S'push1'
p1
(lp2
F-48.42105282984879
asS'push1_push2_cut1'
p3
(lp4
F-49.26961734060272
aF-66.61023903209723
aF-101.46492699819859
asS'push1_push2'
p5
(lp6
F-52.49908236522318
aF-66.83859701401988
as.