(dp0
S'push1'
p1
(lp2
F-33.46725607786071
asS'push1_push2_cut1_cut2'
p3
(lp4
F-79.5199600620906
aF-121.9111520015271
aF-71.00475014556051
aF-81.83457346539642
asS'push1_push2_cut1_cut2_scoop1_scoop2'
p5
(lp6
F-101.0379108618753
aF-124.24587419018374
aF-102.10312550592154
aF-273.2966602248183
aF-99.36184941590523
aF-71.30780292386889
asS'push1_push2_cut1'
p7
(lp8
F-64.99321373111968
aF-46.335387593194476
aF-87.43773788995823
asS'push1_push2_cut1_cut2_scoop1'
p9
(lp10
F-122.01894812843152
aF-119.2157886403099
aF-148.318363069707
aF-141.45692982706208
aF-99.41261852918879
asS'push1_push2'
p11
(lp12
F-99.85578165318151
aF-58.48137630982467
as.