(dp0
S'push1'
p1
(lp2
F-47.86918639522129
asS'push1_push2_cut1_cut2'
p3
(lp4
F-48.33386130607742
aF-66.52542438627805
aF-98.80338972306386
aF-118.19177883044486
asS'push1_push2_cut1_cut2_scoop1_scoop2_open1_open2'
p5
(lp6
F-61.281317053656004
aF-102.3285470925634
aF-103.29062117514653
aF-116.46759333204538
aF-53.347439931452946
aF-61.7696250395605
aF-297.6121958291572
aF-49.846826566502635
asS'push1_push2_cut1_cut2_scoop1_scoop2'
p7
(lp8
F-53.499466178650835
aF-95.71915669603372
aF-108.51785292526222
aF-116.015166197247
aF-75.00115661818361
aF-57.72865876846805
asS'open2_open1_scoop2_scoop1_cut2'
p9
(lp10
F-71.03219963901165
aF-257.755594626641
aF-75.01092519655728
aF-52.9344457214233
aF-119.51012167361232
asS'open2_open1_scoop2_scoop1_cut2_cut1'
p11
(lp12
F-64.95697545988091
aF-260.34556716403233
aF-60.4869016924976
aF-53.00400280831722
aF-143.39928734687533
aF-105.55010225539267
asS'open2_open1'
p13
(lp14
F-63.36387916609476
aF-263.0365517054641
asS'push1_push2_cut1'
p15
(lp16
F-48.14612394604897
aF-91.64902853183068
aF-97.27212701460341
asS'open2_open1_scoop2_scoop1_cut2_cut1_push2_push1'
p17
(lp18
F-65.99216128151144
aF-263.4070484605884
aF-57.91159726121369
aF-85.90178519457612
aF-126.55679420941519
aF-112.96033078070768
aF-73.83335379140227
aF-66.65822938991933
asS'push1_push2_cut1_cut2_scoop1'
p19
(lp20
F-66.505009860037
aF-97.64590277663913
aF-117.01709867657542
aF-121.74746677549372
aF-81.22304862784976
asS'open2_open1_scoop2_scoop1'
p21
(lp22
F-62.998454377659456
aF-265.3450051629918
aF-51.16761466456725
aF-51.61292392436324
asS'push1_push2_cut1_cut2_scoop1_scoop2_open1'
p23
(lp24
F-99.85267156805772
aF-113.35603666861728
aF-110.27424987421384
aF-137.20456385075119
aF-60.22736391690896
aF-55.19082587674711
aF-278.59727932043364
asS'open2_open1_scoop2_scoop1_cut2_cut1_push2'
p25
(lp26
F-67.74510097759567
aF-257.97529564918284
aF-97.53348844087581
aF-52.16273443137383
aF-118.48258858471524
aF-211.1900243547158
aF-98.6883907627627
asS'open2_open1_scoop2'
p27
(lp28
F-37.33168987269521
aF-258.2345613410557
aF-58.44764388734234
asS'push1_push2'
p29
(lp30
F-47.20120983236491
aF-69.97431829197816
asS'open2'
p31
(lp32
F-42.695688894323474
as.