(lp0
(lp1
F0.1667935739443643
aF0.46811810400338305
aF0.5789036143092923
aF-3.0350769392200236
aF-0.029853784239611148
aF-0.0045528588067493
aF0.16678372949384646
aF0.4684374980858237
aF0.5787419605162056
aF-3.047438753055784
aF-0.01775035643950745
aF0.10808473665954209
aa(lp2
F0.1667935739443643
aF0.46811810400338305
aF0.5789036143092923
aF-3.0350769392200236
aF-0.029853784239611148
aF-0.0045528588067493
aF0.16678669843472296
aF0.468433566757252
aF0.5786527254746813
aF-3.0548712900687094
aF-0.007489628309985256
aF0.22573241817443718
aa(lp3
F0.1667935739443643
aF0.46811810400338305
aF0.5789036143092923
aF-3.0350769392200236
aF-0.029853784239611148
aF-0.0045528588067493
aF0.1668415297641476
aF0.46839772789521217
aF0.5786447323018226
aF-3.0579765729127026
aF5.221695352167377e-05
aF0.3432208737414502
aa(lp4
F0.1667935739443643
aF0.46811810400338305
aF0.5789036143092923
aF-3.0350769392200236
aF-0.029853784239611148
aF-0.0045528588067493
aF0.1668285742177946
aF0.46838511019851214
aF0.5786815535623798
aF-3.058000331839771
aF0.00478319163234401
aF0.46128347412744364
aa(lp5
F0.1667935739443643
aF0.46811810400338305
aF0.5789036143092923
aF-3.0350769392200236
aF-0.029853784239611148
aF-0.0045528588067493
aF0.16681084454796696
aF0.4683757102997066
aF0.5787586933186443
aF-3.0560579487234567
aF0.006547592636620219
aF0.5795761991269913
aa(lp6
F0.1667935739443643
aF0.46811810400338305
aF0.5789036143092923
aF-3.0350769392200236
aF-0.029853784239611148
aF-0.0045528588067493
aF0.16679703728966927
aF0.4683853949224728
aF0.5787425528845477
aF-3.0533146272942684
aF0.005745008450288515
aF0.697942717957542
aa(lp7
F0.1667935739443643
aF0.46811810400338305
aF0.5789036143092923
aF-3.0350769392200236
aF-0.029853784239611148
aF-0.0045528588067493
aF0.16679663982950238
aF0.4684106317160147
aF0.5787586098988619
aF-3.050162671806802
aF0.0025145132297714596
aF0.8164186333947528
aa(lp8
F0.1667935739443643
aF0.46811810400338305
aF0.5789036143092923
aF-3.0350769392200236
aF-0.029853784239611148
aF-0.0045528588067493
aF0.16681543541438115
aF0.4683893887657957
aF0.5787589740252462
aF-3.047308542461879
aF-0.0017503283185538133
aF0.9251366125749836
aa(lp9
F0.1667935739443643
aF0.46811810400338305
aF0.5789036143092923
aF-3.0350769392200236
aF-0.029853784239611148
aF-0.0045528588067493
aF0.16683152680081484
aF0.46839892537125427
aF0.5787549655224307
aF-3.0448842492894403
aF-0.005667757466242896
aF1.013910011708259
aa(lp10
F0.1667935739443643
aF0.46811810400338305
aF0.5789036143092923
aF-3.0350769392200236
aF-0.029853784239611148
aF-0.0045528588067493
aF0.1668391534987488
aF0.46840335844993425
aF0.5788096086734956
aF-3.0428586593745086
aF-0.009383781799120963
aF1.0864079156157833
aa(lp11
F0.1667935739443643
aF0.46811810400338305
aF0.5789036143092923
aF-3.0350769392200236
aF-0.029853784239611148
aF-0.0045528588067493
aF0.16686913235312037
aF0.4683837462994286
aF0.5788371457409365
aF-3.0412695556451905
aF-0.012648060512461656
aF1.1455729500899183
aa(lp12
F0.1667935739443643
aF0.46811810400338305
aF0.5789036143092923
aF-3.0350769392200236
aF-0.029853784239611148
aF-0.0045528588067493
aF0.16686453981664134
aF0.4683859653566136
aF0.5788410141494751
aF-3.0399690158032175
aF-0.015466880728133448
aF1.1940140354711353
aa(lp13
F0.1667935739443643
aF0.46811810400338305
aF0.5789036143092923
aF-3.0350769392200236
aF-0.029853784239611148
aF-0.0045528588067493
aF0.1668517579860982
aF0.46837759116916733
aF0.5788448449364932
aF-3.0389425521597473
aF-0.0178137881374239
aF1.2335682125821472
aa(lp14
F0.1667935739443643
aF0.46811810400338305
aF0.5789036143092923
aF-3.0350769392200236
aF-0.029853784239611148
aF-0.0045528588067493
aF0.16686096278572082
aF0.46838175198775023
aF0.578863335870437
aF-3.038131683770749
aF-0.01986980825352181
aF1.2658515705688487
aa(lp15
F0.1667935739443643
aF0.46811810400338305
aF0.5789036143092923
aF-3.0350769392200236
aF-0.029853784239611148
aF-0.0045528588067493
aF0.16683512080819218
aF0.4683741970196205
aF0.5788532049550861
aF-3.0374123667809076
aF-0.021547316194834253
aF1.2921264840423896
aa(lp16
F0.1667935739443643
aF0.46811810400338305
aF0.5789036143092923
aF-3.0350769392200236
aF-0.029853784239611148
aF-0.0045528588067493
aF0.16686537992829675
aF0.46837571897995844
aF0.5788480980807087
aF-3.0368600985316174
aF-0.023018271240840545
aF1.3137766477079402
aa(lp17
F0.1667935739443643
aF0.46811810400338305
aF0.5789036143092923
aF-3.0350769392200236
aF-0.029853784239611148
aF-0.0045528588067493
aF0.16685334577761587
aF0.468370746075073
aF0.5788682357692936
aF-3.0364017230999187
aF-0.024247259758178867
aF1.3312826335228376
aa(lp18
F0.1667935739443643
aF0.46811810400338305
aF0.5789036143092923
aF-3.0350769392200236
aF-0.029853784239611148
aF-0.0045528588067493
aF0.16684003433535732
aF0.46838880227401986
aF0.5788761460566173
aF-3.0360908161572255
aF-0.025252010502794887
aF1.3457195427802933
aa(lp19
F0.1667935739443643
aF0.46811810400338305
aF0.5789036143092923
aF-3.0350769392200236
aF-0.029853784239611148
aF-0.0045528588067493
aF0.16682822346191784
aF0.4683998695196115
aF0.5788625464375685
aF-3.0358507072756526
aF-0.026067045994944634
aF1.3575671354989007
aa(lp20
F0.1667935739443643
aF0.46811810400338305
aF0.5789036143092923
aF-3.0350769392200236
aF-0.029853784239611148
aF-0.0045528588067493
aF0.16685577716863903
aF0.46836089821647076
aF0.578855879768503
aF-3.0356203573149454
aF-0.02668423349070844
aF1.3670517689573274
aa(lp21
F0.1667935739443643
aF0.46811810400338305
aF0.5789036143092923
aF-3.0350769392200236
aF-0.029853784239611148
aF-0.0045528588067493
aF0.1668637600815153
aF0.4683625279255444
aF0.5788672603315144
aF-3.035471781379787
aF-0.027247506833064906
aF1.3749237089782398
aa(lp22
F0.1667935739443643
aF0.46811810400338305
aF0.5789036143092923
aF-3.0350769392200236
aF-0.029853784239611148
aF-0.0045528588067493
aF0.16685835672044733
aF0.46837232460047906
aF0.578888572259738
aF-3.0353036732576677
aF-0.027775091727172206
aF1.3814007875836634
aa(lp23
F0.1667935739443643
aF0.46811810400338305
aF0.5789036143092923
aF-3.0350769392200236
aF-0.029853784239611148
aF-0.0045528588067493
aF0.16684010836932306
aF0.4683844936671003
aF0.578843956942959
aF-3.0352272613615114
aF-0.028089236487533285
aF1.3867329153463805
aa(lp24
F0.1667935739443643
aF0.46811810400338305
aF0.5789036143092923
aF-3.0350769392200236
aF-0.029853784239611148
aF-0.0045528588067493
aF0.16862166479352042
aF0.4733494185648348
aF0.5817991839886373
aF-3.0347759294423255
aF-0.0303885974226022
aF1.390662159946717
aa(lp25
F0.1667935739443643
aF0.46811810400338305
aF0.5789036143092923
aF-3.0350769392200236
aF-0.029853784239611148
aF-0.0045528588067493
aF0.19044343512185652
aF0.53247189387457
aF0.5976408800483397
aF-3.0354768341939926
aF-0.02878673909611895
aF1.394567162699377
aa(lp26
F0.1667935739443643
aF0.46811810400338305
aF0.5789036143092923
aF-3.0350769392200236
aF-0.029853784239611148
aF-0.0045528588067493
aF0.2116908905385908
aF0.5813862743805209
aF0.6056864965709734
aF-3.035480747168395
aF-0.029044958585090225
aF1.3975655264913396
aa(lp27
F0.1667935739443643
aF0.46811810400338305
aF0.5789036143092923
aF-3.0350769392200236
aF-0.029853784239611148
aF-0.0045528588067493
aF0.23152662737787283
aF0.6209405050194773
aF0.6087874146056539
aF-3.035509095037432
aF-0.029840435494784733
aF1.3997523673595733
aa(lp28
F0.1667935739443643
aF0.46811810400338305
aF0.5789036143092923
aF-3.0350769392200236
aF-0.029853784239611148
aF-0.0045528588067493
aF0.24941670425821028
aF0.6532055545111612
aF0.608352554716199
aF-3.0354442491193887
aF-0.029895766706349584
aF1.4014767482417876
aa(lp29
F0.1667935739443643
aF0.46811810400338305
aF0.5789036143092923
aF-3.0350769392200236
aF-0.029853784239611148
aF-0.0045528588067493
aF0.2648789928368104
aF0.6793591019799406
aF0.6062057362003745
aF-3.035336305855183
aF-0.029767528687391232
aF1.403129285894574
aa(lp30
F0.1667935739443643
aF0.46811810400338305
aF0.5789036143092923
aF-3.0350769392200236
aF-0.029853784239611148
aF-0.0045528588067493
aF0.2782963515636647
aF0.7001316343442114
aF0.6033509710573283
aF-3.035326498818726
aF-0.02980016040465485
aF1.4044102228848716
aa(lp31
F0.1667935739443643
aF0.46811810400338305
aF0.5789036143092923
aF-3.0350769392200236
aF-0.029853784239611148
aF-0.0045528588067493
aF0.2896671314091319
aF0.7170829482498794
aF0.6002390925820624
aF-3.0351922467079424
aF-0.02986535560145916
aF1.4054262438031262
aa(lp32
F0.1667935739443643
aF0.46811810400338305
aF0.5789036143092923
aF-3.0350769392200236
aF-0.029853784239611148
aF-0.0045528588067493
aF0.29938317748864096
aF0.7306374567183708
aF0.5973225036094545
aF-3.0351946244714596
aF-0.030103467324209165
aF1.4061394467682178
aa(lp33
F0.1667935739443643
aF0.46811810400338305
aF0.5789036143092923
aF-3.0350769392200236
aF-0.029853784239611148
aF-0.0045528588067493
aF0.3074597309288434
aF0.7416560952197114
aF0.5942834215438416
aF-3.035077688944699
aF-0.02982229152638297
aF1.4068223603756445
aa(lp34
F0.1667935739443643
aF0.46811810400338305
aF0.5789036143092923
aF-3.0350769392200236
aF-0.029853784239611148
aF-0.0045528588067493
aF0.3140047129985659
aF0.7505536616889351
aF0.5917705133148649
aF-3.0350010847524103
aF-0.02991611339121899
aF1.4076433298986413
aa(lp35
F0.1667935739443643
aF0.46811810400338305
aF0.5789036143092923
aF-3.0350769392200236
aF-0.029853784239611148
aF-0.0045528588067493
aF0.31962913748975097
aF0.7576791377429288
aF0.5896235996003443
aF-3.034958628918126
aF-0.030018996144889776
aF1.4078953361096653
aa(lp36
F0.1667935739443643
aF0.46811810400338305
aF0.5789036143092923
aF-3.0350769392200236
aF-0.029853784239611148
aF-0.0045528588067493
aF0.3241944864855805
aF0.7635214083441714
aF0.5876107456719422
aF-3.0349181626929354
aF-0.02990954026598291
aF1.4083314476230933
aa(lp37
F0.1667935739443643
aF0.46811810400338305
aF0.5789036143092923
aF-3.0350769392200236
aF-0.029853784239611148
aF-0.0045528588067493
aF0.32796200249206686
aF0.7683515137765327
aF0.5859587992695785
aF-3.0348960416229205
aF-0.02989941836431438
aF1.4086623010261872
aa(lp38
F0.1667935739443643
aF0.46811810400338305
aF0.5789036143092923
aF-3.0350769392200236
aF-0.029853784239611148
aF-0.0045528588067493
aF0.3311409256109735
aF0.7721165392901418
aF0.5846739265506389
aF-3.0348407041075696
aF-0.03001639560744431
aF1.408816335793859
aa(lp39
F0.1667935739443643
aF0.46811810400338305
aF0.5789036143092923
aF-3.0350769392200236
aF-0.029853784239611148
aF-0.0045528588067493
aF0.3337730276729519
aF0.7752129696849841
aF0.583453904693421
aF-3.034836147078705
aF-0.02999018801292571
aF1.4089500165992763
aa(lp40
F0.1667935739443643
aF0.46811810400338305
aF0.5789036143092923
aF-3.0350769392200236
aF-0.029853784239611148
aF-0.0045528588067493
aF0.3358460557248053
aF0.7777724522862419
aF0.5824276444067062
aF-3.0347656296711194
aF-0.029877860543005296
aF1.4091078428423873
aa(lp41
F0.1667935739443643
aF0.46811810400338305
aF0.5789036143092923
aF-3.0350769392200236
aF-0.029853784239611148
aF-0.0045528588067493
aF0.3374868787230393
aF0.7798616759047781
aF0.581704110065669
aF-3.0347527047525684
aF-0.03003898827727696
aF1.4093402528837489
aa(lp42
F0.1667935739443643
aF0.46811810400338305
aF0.5789036143092923
aF-3.0350769392200236
aF-0.029853784239611148
aF-0.0045528588067493
aF0.3388739329393092
aF0.7815300296719425
aF0.5809335585033604
aF-3.0347254806335404
aF-0.029877383017004037
aF1.4095375790054068
aa(lp43
F0.1667935739443643
aF0.46811810400338305
aF0.5789036143092923
aF-3.0350769392200236
aF-0.029853784239611148
aF-0.0045528588067493
aF0.34033010376155554
aF0.7838772077361937
aF0.5760534481320401
aF-3.03478838705738
aF-0.03131978038234687
aF1.4095949897387723
aa(lp44
F0.1667935739443643
aF0.46811810400338305
aF0.5789036143092923
aF-3.0350769392200236
aF-0.029853784239611148
aF-0.0045528588067493
aF0.34371375717001934
aF0.7958986037555281
aF0.515929921827118
aF-3.034605086347649
aF-0.029763577449043416
aF1.409695457302525
aa(lp45
F0.1667935739443643
aF0.46811810400338305
aF0.5789036143092923
aF-3.0350769392200236
aF-0.029853784239611148
aF-0.0045528588067493
aF0.34568698991010943
aF0.8016211249514285
aF0.46791292258916284
aF-3.034753143510669
aF-0.02925995323549241
aF1.409656721574176
aa(lp46
F0.1667935739443643
aF0.46811810400338305
aF0.5789036143092923
aF-3.0350769392200236
aF-0.029853784239611148
aF-0.0045528588067493
aF0.34667055863314716
aF0.8039234111170913
aF0.42952882680864374
aF-3.0348073580099952
aF-0.02983751192530495
aF1.4097993103912456
aa(lp47
F0.1667935739443643
aF0.46811810400338305
aF0.5789036143092923
aF-3.0350769392200236
aF-0.029853784239611148
aF-0.0045528588067493
aF0.3471120384995763
aF0.8040947751386213
aF0.39846865538031123
aF-3.034826529910721
aF-0.03013005735273355
aF1.4098215310845315
aa(lp48
F0.1667935739443643
aF0.46811810400338305
aF0.5789036143092923
aF-3.0350769392200236
aF-0.029853784239611148
aF-0.0045528588067493
aF0.34725564098836076
aF0.8032640590933323
aF0.3729138709274412
aF-3.034806110406889
aF-0.029706194040070043
aF1.4098545863189553
aa(lp49
F0.1667935739443643
aF0.46811810400338305
aF0.5789036143092923
aF-3.0350769392200236
aF-0.029853784239611148
aF-0.0045528588067493
aF0.3471746893633251
aF0.8017629675358738
aF0.3521239225337603
aF-3.0347862197199116
aF-0.029682662394408352
aF1.409805226128586
aa(lp50
F0.1667935739443643
aF0.46811810400338305
aF0.5789036143092923
aF-3.0350769392200236
aF-0.029853784239611148
aF-0.0045528588067493
aF0.3469875690652963
aF0.8003077641204857
aF0.3359517283822172
aF-3.034802836196346
aF-0.030169007194901568
aF1.40988855576735
aa(lp51
F0.1667935739443643
aF0.46811810400338305
aF0.5789036143092923
aF-3.0350769392200236
aF-0.029853784239611148
aF-0.0045528588067493
aF0.34676643638178284
aF0.7986584509536134
aF0.3223816208298128
aF-3.0346664929348544
aF-0.029876773874215355
aF1.4098863619107336
aa(lp52
F0.1667935739443643
aF0.46811810400338305
aF0.5789036143092923
aF-3.0350769392200236
aF-0.029853784239611148
aF-0.0045528588067493
aF0.34659136202169444
aF0.79720527955818
aF0.31159689859373463
aF-3.0346815748327254
aF-0.030036373490828633
aF1.409861941382688
aa(lp53
F0.1667935739443643
aF0.46811810400338305
aF0.5789036143092923
aF-3.0350769392200236
aF-0.029853784239611148
aF-0.0045528588067493
aF0.34631505091433135
aF0.7958292017757319
aF0.30286597054741055
aF-3.0346508950862594
aF-0.030063661662443324
aF1.4099571842524332
aa(lp54
F0.1667935739443643
aF0.46811810400338305
aF0.5789036143092923
aF-3.0350769392200236
aF-0.029853784239611148
aF-0.0045528588067493
aF0.3461543429424145
aF0.7945289836581835
aF0.29558831571214417
aF-3.0346363013766804
aF-0.029829897649163006
aF1.4098846313659785
aa(lp55
F0.1667935739443643
aF0.46811810400338305
aF0.5789036143092923
aF-3.0350769392200236
aF-0.029853784239611148
aF-0.0045528588067493
aF0.3460113721411659
aF0.7935868271985397
aF0.2897667482871306
aF-3.0348326325889614
aF-0.03002596718915603
aF1.409921624782109
aa(lp56
F0.1667935739443643
aF0.46811810400338305
aF0.5789036143092923
aF-3.0350769392200236
aF-0.029853784239611148
aF-0.0045528588067493
aF0.3458531413090334
aF0.7926270706041608
aF0.2850714449656504
aF-3.034776324117796
aF-0.029894772845217306
aF1.409872614777476
aa(lp57
F0.1667935739443643
aF0.46811810400338305
aF0.5789036143092923
aF-3.0350769392200236
aF-0.029853784239611148
aF-0.0045528588067493
aF0.34569802768596974
aF0.7919719008578583
aF0.2813067959213528
aF-3.034793315175697
aF-0.030109341577493964
aF1.409944684352133
aa(lp58
F0.1667935739443643
aF0.46811810400338305
aF0.5789036143092923
aF-3.0350769392200236
aF-0.029853784239611148
aF-0.0045528588067493
aF0.3456350609279464
aF0.7912961342165293
aF0.2781158066360855
aF-3.0348236069554306
aF-0.030001758797579044
aF1.4099446169983516
aa(lp59
F0.1667935739443643
aF0.46811810400338305
aF0.5789036143092923
aF-3.0350769392200236
aF-0.029853784239611148
aF-0.0045528588067493
aF0.3455115878230685
aF0.7907842434773035
aF0.2754865751528006
aF-3.034794610918558
aF-0.029905539497319084
aF1.4100158325422005
aa(lp60
F0.1667935739443643
aF0.46811810400338305
aF0.5789036143092923
aF-3.0350769392200236
aF-0.029853784239611148
aF-0.0045528588067493
aF0.3454000630758723
aF0.7903801078171334
aF0.2734250187901128
aF-3.0346290181945252
aF-0.029934382493696555
aF1.4100382882648694
aa.