(lp0
(lp1
F0.16687414912218465
aF0.468153455049519
aF0.5791841095571465
aF-3.0349470113080264
aF-0.030009649792559732
aF-0.003487139453522183
aF0.10797749682670468
aF0.5368829946284382
aF0.5402669146827314
aF-3.0400109824954344
aF-0.030130751612897175
aF-0.0038250778800421647
aa(lp2
F0.16687414912218465
aF0.468153455049519
aF0.5791841095571465
aF-3.0349470113080264
aF-0.030009649792559732
aF-0.003487139453522183
aF0.03546891329600505
aF0.5875676979092563
aF0.5024625831633047
aF-3.042036993244033
aF-0.02940907289568991
aF-0.003883366999278151
aa(lp3
F0.16687414912218465
aF0.468153455049519
aF0.5791841095571465
aF-3.0349470113080264
aF-0.030009649792559732
aF-0.003487139453522183
aF-0.032517669284233
aF0.6189442088509484
aF0.4686874733717058
aF-3.042943927996409
aF-0.029158551968216644
aF-0.0037540131633941815
aa(lp4
F0.16687414912218465
aF0.468153455049519
aF0.5791841095571465
aF-3.0349470113080264
aF-0.030009649792559732
aF-0.003487139453522183
aF-0.0916316885524524
aF0.6371159276856583
aF0.439204530197955
aF-3.0430825154587082
aF-0.02937112546316279
aF-0.003770173510349611
aa(lp5
F0.16687414912218465
aF0.468153455049519
aF0.5791841095571465
aF-3.0349470113080264
aF-0.030009649792559732
aF-0.003487139453522183
aF-0.1425186313597657
aF0.6466882617535636
aF0.4135420142531098
aF-3.0428551117938167
aF-0.02962395540748568
aF-0.003802527035354242
aa(lp6
F0.16687414912218465
aF0.468153455049519
aF0.5791841095571465
aF-3.0349470113080264
aF-0.030009649792559732
aF-0.003487139453522183
aF-0.18394269165290225
aF0.6506848032687976
aF0.3925063556700946
aF-3.0419905455635243
aF-0.029902279848076994
aF-0.0037487246241456494
aa(lp7
F0.16687414912218465
aF0.468153455049519
aF0.5791841095571465
aF-3.0349470113080264
aF-0.030009649792559732
aF-0.003487139453522183
aF-0.21801755720161514
aF0.6514952512472998
aF0.37489236262898595
aF-3.041130247452268
aF-0.0298366133955883
aF-0.003682008430754549
aa(lp8
F0.16687414912218465
aF0.468153455049519
aF0.5791841095571465
aF-3.0349470113080264
aF-0.030009649792559732
aF-0.003487139453522183
aF-0.245957258413401
aF0.6505205500433316
aF0.36008399698245286
aF-3.0404881102162924
aF-0.030069152593915197
aF-0.0037727637374813344
aa(lp9
F0.16687414912218465
aF0.468153455049519
aF0.5791841095571465
aF-3.0349470113080264
aF-0.030009649792559732
aF-0.003487139453522183
aF-0.26883145484555165
aF0.6485626011278113
aF0.3479618660802931
aF-3.0394647303270106
aF-0.030051443640785117
aF-0.0034908798141195935
aa(lp10
F0.16687414912218465
aF0.468153455049519
aF0.5791841095571465
aF-3.0349470113080264
aF-0.030009649792559732
aF-0.003487139453522183
aF-0.2874284146689975
aF0.6462521888560205
aF0.3378960439112269
aF-3.0388372171007387
aF-0.030154834516800885
aF-0.003372534139413454
aa(lp11
F0.16687414912218465
aF0.468153455049519
aF0.5791841095571465
aF-3.0349470113080264
aF-0.030009649792559732
aF-0.003487139453522183
aF-0.302476048657266
aF0.6439667687905135
aF0.3294925173831944
aF-3.0382152554576454
aF-0.03024596476241093
aF-0.0035727874049852684
aa(lp12
F0.16687414912218465
aF0.468153455049519
aF0.5791841095571465
aF-3.0349470113080264
aF-0.030009649792559732
aF-0.003487139453522183
aF-0.31480889643996274
aF0.6416783567756382
aF0.32276450298291004
aF-3.0376686300894944
aF-0.03017439275719733
aF-0.0035078665176898533
aa(lp13
F0.16687414912218465
aF0.468153455049519
aF0.5791841095571465
aF-3.0349470113080264
aF-0.030009649792559732
aF-0.003487139453522183
aF-0.32489570591591516
aF0.6396112745308034
aF0.3170977675490689
aF-3.0372427579293992
aF-0.030356811186520023
aF-0.00335092032022952
aa(lp14
F0.16687414912218465
aF0.468153455049519
aF0.5791841095571465
aF-3.0349470113080264
aF-0.030009649792559732
aF-0.003487139453522183
aF-0.332948277671156
aF0.6378454891168921
aF0.31261143509710915
aF-3.0366923320782666
aF-0.030140653270711807
aF-0.0035328958405139808
aa(lp15
F0.16687414912218465
aF0.468153455049519
aF0.5791841095571465
aF-3.0349470113080264
aF-0.030009649792559732
aF-0.003487139453522183
aF-0.33953447203896114
aF0.6362756437929795
aF0.30874649684763433
aF-3.0365487595997265
aF-0.03024177951425422
aF-0.003510450148483049
aa(lp16
F0.16687414912218465
aF0.468153455049519
aF0.5791841095571465
aF-3.0349470113080264
aF-0.030009649792559732
aF-0.003487139453522183
aF-0.34511013657858775
aF0.6348260591800297
aF0.3057668001492567
aF-3.036127530438638
aF-0.03014277571402777
aF-0.0033088063501448806
aa(lp17
F0.16687414912218465
aF0.468153455049519
aF0.5791841095571465
aF-3.0349470113080264
aF-0.030009649792559732
aF-0.003487139453522183
aF-0.3493681505258183
aF0.633759065279433
aF0.30311227416529835
aF-3.0361221022050864
aF-0.030339330452626188
aF-0.00353532565565161
aa(lp18
F0.16687414912218465
aF0.468153455049519
aF0.5791841095571465
aF-3.0349470113080264
aF-0.030009649792559732
aF-0.003487139453522183
aF-0.35311420859659853
aF0.6327022377608121
aF0.30116758426942053
aF-3.0357212526409834
aF-0.030174807152685158
aF-0.0032486694027886276
aa(lp19
F0.16687414912218465
aF0.468153455049519
aF0.5791841095571465
aF-3.0349470113080264
aF-0.030009649792559732
aF-0.003487139453522183
aF-0.35591723519813745
aF0.6319769482875339
aF0.2994708577263373
aF-3.0356216046392057
aF-0.030230902833761116
aF-0.0033826023054501797
aa(lp20
F0.16687414912218465
aF0.468153455049519
aF0.5791841095571465
aF-3.0349470113080264
aF-0.030009649792559732
aF-0.003487139453522183
aF-0.358317362038223
aF0.6313034556573867
aF0.2980032785626335
aF-3.0355299542717935
aF-0.030310776542804292
aF-0.0033752194761792766
aa(lp21
F0.16687414912218465
aF0.468153455049519
aF0.5791841095571465
aF-3.0349470113080264
aF-0.030009649792559732
aF-0.003487139453522183
aF-0.36030863144521924
aF0.6307311526288145
aF0.29680618195847275
aF-3.035559275382821
aF-0.030302195577012095
aF-0.003355576060461743
aa(lp22
F0.16687414912218465
aF0.468153455049519
aF0.5791841095571465
aF-3.0349470113080264
aF-0.030009649792559732
aF-0.003487139453522183
aF-0.3716633564924034
aF0.6893556986577832
aF0.2906564900130988
aF-3.054127270213033
aF-0.046322558966752865
aF-0.0026330535164469687
aa(lp23
F0.16687414912218465
aF0.468153455049519
aF0.5791841095571465
aF-3.0349470113080264
aF-0.030009649792559732
aF-0.003487139453522183
aF-0.38207288230382475
aF0.7488806740867083
aF0.2933396060296061
aF-3.0563350190794134
aF-0.04648945140855315
aF-0.002691058153826022
aa(lp24
F0.16687414912218465
aF0.468153455049519
aF0.5791841095571465
aF-3.0349470113080264
aF-0.030009649792559732
aF-0.003487139453522183
aF-0.3881546790349182
aF0.7992761323783166
aF0.2972391724668017
aF-3.0527073794631376
aF-0.04255806656841769
aF-0.002754820197054007
aa(lp25
F0.16687414912218465
aF0.468153455049519
aF0.5791841095571465
aF-3.0349470113080264
aF-0.030009649792559732
aF-0.003487139453522183
aF-0.3901310482004121
aF0.8408052833576907
aF0.29886095530877277
aF-3.0498954902350244
aF-0.039862348024131085
aF-0.0029278026103779576
aa(lp26
F0.16687414912218465
aF0.468153455049519
aF0.5791841095571465
aF-3.0349470113080264
aF-0.030009649792559732
aF-0.003487139453522183
aF-0.39001858776523873
aF0.8736076530539826
aF0.2990977800643199
aF-3.047539222379682
aF-0.037809904972383464
aF-0.0028282589780146577
aa(lp27
F0.16687414912218465
aF0.468153455049519
aF0.5791841095571465
aF-3.0349470113080264
aF-0.030009649792559732
aF-0.003487139453522183
aF-0.38829381776490196
aF0.9002246901752241
aF0.29895216107185263
aF-3.0452543184064793
aF-0.03610381222165264
aF-0.0030912417997544035
aa(lp28
F0.16687414912218465
aF0.468153455049519
aF0.5791841095571465
aF-3.0349470113080264
aF-0.030009649792559732
aF-0.003487139453522183
aF-0.3862034349065036
aF0.9216598219213661
aF0.2982424564075913
aF-3.043573734085474
aF-0.034884509650676465
aF-0.0032054346478617426
aa(lp29
F0.16687414912218465
aF0.468153455049519
aF0.5791841095571465
aF-3.0349470113080264
aF-0.030009649792559732
aF-0.003487139453522183
aF-0.3839239323410442
aF0.9389547260451747
aF0.297321828828949
aF-3.042287933904664
aF-0.03397878504270095
aF-0.0033510743681777018
aa(lp30
F0.16687414912218465
aF0.468153455049519
aF0.5791841095571465
aF-3.0349470113080264
aF-0.030009649792559732
aF-0.003487139453522183
aF-0.38187129018559224
aF0.9529017416868887
aF0.2967095120150196
aF-3.0407247857977744
aF-0.03304259268967168
aF-0.0031493755375160298
aa(lp31
F0.16687414912218465
aF0.468153455049519
aF0.5791841095571465
aF-3.0349470113080264
aF-0.030009649792559732
aF-0.003487139453522183
aF-0.3798651235717398
aF0.9642621038454086
aF0.2958196521542107
aF-3.039853900644289
aF-0.032559756833638105
aF-0.0032121098405190934
aa(lp32
F0.16687414912218465
aF0.468153455049519
aF0.5791841095571465
aF-3.0349470113080264
aF-0.030009649792559732
aF-0.003487139453522183
aF-0.3779194991374262
aF0.9735199136716894
aF0.29536202375617326
aF-3.0386635033019394
aF-0.031916044956834914
aF-0.0032975447001418632
aa(lp33
F0.16687414912218465
aF0.468153455049519
aF0.5791841095571465
aF-3.0349470113080264
aF-0.030009649792559732
aF-0.003487139453522183
aF-0.37640515855454454
aF0.980929533101674
aF0.2944628597423007
aF-3.038249814472211
aF-0.03168924543794706
aF-0.0032357641000145374
aa(lp34
F0.16687414912218465
aF0.468153455049519
aF0.5791841095571465
aF-3.0349470113080264
aF-0.030009649792559732
aF-0.003487139453522183
aF-0.37507543686024214
aF0.9869360794867188
aF0.29419304357367654
aF-3.0374413495875663
aF-0.031169938296197186
aF-0.003277829566979241
aa(lp35
F0.16687414912218465
aF0.468153455049519
aF0.5791841095571465
aF-3.0349470113080264
aF-0.030009649792559732
aF-0.003487139453522183
aF-0.37370651583403924
aF0.9919234598782201
aF0.2937979116497985
aF-3.036870322914601
aF-0.030884515551728258
aF-0.0035705620295093084
aa(lp36
F0.16687414912218465
aF0.468153455049519
aF0.5791841095571465
aF-3.0349470113080264
aF-0.030009649792559732
aF-0.003487139453522183
aF-0.37281322463476124
aF0.9958989019233949
aF0.29319538518781185
aF-3.036687475614156
aF-0.030793435290828525
aF-0.0033579469015463078
aa(lp37
F0.16687414912218465
aF0.468153455049519
aF0.5791841095571465
aF-3.0349470113080264
aF-0.030009649792559732
aF-0.003487139453522183
aF-0.3720057641890847
aF0.9992318035434433
aF0.2929262224667519
aF-3.0362827415473266
aF-0.030605944019046316
aF-0.003370102618037049
aa(lp38
F0.16687414912218465
aF0.468153455049519
aF0.5791841095571465
aF-3.0349470113080264
aF-0.030009649792559732
aF-0.003487139453522183
aF-0.3712966277385513
aF1.001838250340412
aF0.2927791822308883
aF-3.0359652627217986
aF-0.03042559725786493
aF-0.0033052735077622837
aa(lp39
F0.16687414912218465
aF0.468153455049519
aF0.5791841095571465
aF-3.0349470113080264
aF-0.030009649792559732
aF-0.003487139453522183
aF-0.3707359340625885
aF1.0040170630470961
aF0.2924070280340916
aF-3.035858242023406
aF-0.03041102924559688
aF-0.003333943011472491
aa(lp40
F0.16687414912218465
aF0.468153455049519
aF0.5791841095571465
aF-3.0349470113080264
aF-0.030009649792559732
aF-0.003487139453522183
aF-0.3701893494929568
aF1.0057914785376785
aF0.29214455054157584
aF-3.0357758901269296
aF-0.030392003559258626
aF-0.0033726026800188786
aa(lp41
F0.16687414912218465
aF0.468153455049519
aF0.5791841095571465
aF-3.0349470113080264
aF-0.030009649792559732
aF-0.003487139453522183
aF-0.3697637366237451
aF1.0072327087108086
aF0.29211657668917873
aF-3.0354737628884885
aF-0.030313225155295356
aF-0.003362770188855306
aa(lp42
F0.16687414912218465
aF0.468153455049519
aF0.5791841095571465
aF-3.0349470113080264
aF-0.030009649792559732
aF-0.003487139453522183
aF-0.3694488129559727
aF1.0085537393900925
aF0.29199457567466536
aF-3.035367766400815
aF-0.030120565726314785
aF-0.0032711935370959484
aa(lp43
F0.16687414912218465
aF0.468153455049519
aF0.5791841095571465
aF-3.0349470113080264
aF-0.030009649792559732
aF-0.003487139453522183
aF-0.3690804681441488
aF1.0099126183999487
aF0.29182859774963793
aF-3.0352356567387813
aF-0.030054358276756985
aF-0.0033466261768863004
aa(lp44
F0.16687414912218465
aF0.468153455049519
aF0.5791841095571465
aF-3.0349470113080264
aF-0.030009649792559732
aF-0.003487139453522183
aF-0.36869096450319766
aF1.011237791174682
aF0.2917171230392715
aF-3.03508454962277
aF-0.029986574338798682
aF-0.0033269534886480627
aa(lp45
F0.16687414912218465
aF0.468153455049519
aF0.5791841095571465
aF-3.0349470113080264
aF-0.030009649792559732
aF-0.003487139453522183
aF-0.36833252602218297
aF1.0125763375074224
aF0.29145686288110684
aF-3.035041126035845
aF-0.030017341579239958
aF-0.003318309960156201
aa.