(lp0
(lp1
F0.16681707273708918
aF0.4681707612150865
aF0.5793323328612349
aF-3.0337831167667995
aF-0.029935763711989773
aF-0.0033947172029902438
aF0.16684311494628776
aF0.494999519349338
aF0.5827399518185076
aF3.140462022232832
aF-0.030248934940740196
aF0.011121043480865988
aa(lp2
F0.16681707273708918
aF0.4681707612150865
aF0.5793323328612349
aF-3.0337831167667995
aF-0.029935763711989773
aF-0.0033947172029902438
aF0.16688287397884455
aF0.5150843705740973
aF0.5827643821685412
aF3.025800177998333
aF-0.02780698614283616
aF0.024194229003802033
aa(lp3
F0.16681707273708918
aF0.4681707612150865
aF0.5793323328612349
aF-3.0337831167667995
aF-0.029935763711989773
aF-0.0033947172029902438
aF0.16687011176012065
aF0.5299449706610286
aF0.5816077181938292
aF2.9230107894468946
aF-0.023513824799810103
aF0.034803509024157214
aa(lp4
F0.16681707273708918
aF0.4681707612150865
aF0.5793323328612349
aF-3.0337831167667995
aF-0.029935763711989773
aF-0.0033947172029902438
aF0.16688568802314455
aF0.5415254252763588
aF0.5808930280912802
aF2.839650382749309
aF-0.018670769494968105
aF0.042807541242938354
aa(lp5
F0.16681707273708918
aF0.4681707612150865
aF0.5793323328612349
aF-3.0337831167667995
aF-0.029935763711989773
aF-0.0033947172029902438
aF0.16686598082417645
aF0.5506495136139568
aF0.5802717800366429
aF2.7713236143113966
aF-0.013863420685997134
aF0.04908047408933279
aa(lp6
F0.16681707273708918
aF0.4681707612150865
aF0.5793323328612349
aF-3.0337831167667995
aF-0.029935763711989773
aF-0.0033947172029902438
aF0.1668749094739363
aF0.5577671109922151
aF0.5798691279069194
aF2.7154918418026206
aF-0.009341485118363201
aF0.05384062983743442
aa(lp7
F0.16681707273708918
aF0.4681707612150865
aF0.5793323328612349
aF-3.0337831167667995
aF-0.029935763711989773
aF-0.0033947172029902438
aF0.1668680475757112
aF0.5635209305154683
aF0.579710425000478
aF2.6701461307310073
aF-0.005374033171907633
aF0.057152544450880985
aa(lp8
F0.16681707273708918
aF0.4681707612150865
aF0.5793323328612349
aF-3.0337831167667995
aF-0.029935763711989773
aF-0.0033947172029902438
aF0.16687980181328463
aF0.5683082028214775
aF0.5793731391294545
aF2.632753868811064
aF-0.001876064383557635
aF0.059978684652994795
aa(lp9
F0.16681707273708918
aF0.4681707612150865
aF0.5793323328612349
aF-3.0337831167667995
aF-0.029935763711989773
aF-0.0033947172029902438
aF0.16687707118235665
aF0.5720032559168868
aF0.579333889107904
aF2.6026019958923814
aF0.001195767630214171
aF0.06203770297973033
aa(lp10
F0.16681707273708918
aF0.4681707612150865
aF0.5793323328612349
aF-3.0337831167667995
aF-0.029935763711989773
aF-0.0033947172029902438
aF0.16689213673210138
aF0.5750561696670063
aF0.5792411252491142
aF2.5777787885850576
aF0.0037530818397813774
aF0.0637341951092638
aa(lp11
F0.16681707273708918
aF0.4681707612150865
aF0.5793323328612349
aF-3.0337831167667995
aF-0.029935763711989773
aF-0.0033947172029902438
aF0.1668650057017072
aF0.5774775422106923
aF0.5790709388380418
aF2.5572622002599075
aF0.005931951161204048
aF0.06500149071388524
aa(lp12
F0.16681707273708918
aF0.4681707612150865
aF0.5793323328612349
aF-3.0337831167667995
aF-0.029935763711989773
aF-0.0033947172029902438
aF0.16690227219056128
aF0.5794812090929123
aF0.5790394456295903
aF2.5407540139640163
aF0.0077339781885306
aF0.06593604266907015
aa(lp13
F0.16681707273708918
aF0.4681707612150865
aF0.5793323328612349
aF-3.0337831167667995
aF-0.029935763711989773
aF-0.0033947172029902438
aF0.16686071866899638
aF0.5810727773632113
aF0.5791708758711253
aF2.527431421750772
aF0.009230853586805442
aF0.06677124751867627
aa(lp14
F0.16681707273708918
aF0.4681707612150865
aF0.5793323328612349
aF-3.0337831167667995
aF-0.029935763711989773
aF-0.0033947172029902438
aF0.16686890991948447
aF0.5824503298685546
aF0.579016836410791
aF2.5163220431010336
aF0.010477835821782654
aF0.06736980724525823
aa(lp15
F0.16681707273708918
aF0.4681707612150865
aF0.5793323328612349
aF-3.0337831167667995
aF-0.029935763711989773
aF-0.0033947172029902438
aF0.16686319071823275
aF0.5835111048387652
aF0.5789654677324367
aF2.5070302929529067
aF0.011465514805046878
aF0.06779046014770683
aa(lp16
F0.16681707273708918
aF0.4681707612150865
aF0.5793323328612349
aF-3.0337831167667995
aF-0.029935763711989773
aF-0.0033947172029902438
aF0.16687610699583144
aF0.5843695597688141
aF0.5790331999114204
aF2.49970263310943
aF0.012382984959876792
aF0.06822122401934558
aa(lp17
F0.16681707273708918
aF0.4681707612150865
aF0.5793323328612349
aF-3.0337831167667995
aF-0.029935763711989773
aF-0.0033947172029902438
aF0.16688062397255243
aF0.5851318892340243
aF0.5789176169175335
aF2.4935663903906913
aF0.013010291674863268
aF0.06849711813055134
aa(lp18
F0.16681707273708918
aF0.4681707612150865
aF0.5793323328612349
aF-3.0337831167667995
aF-0.029935763711989773
aF-0.0033947172029902438
aF0.16689577117506818
aF0.5856862514690041
aF0.5789592795771425
aF2.488748211236994
aF0.013601702117870557
aF0.06876971565702557
aa(lp19
F0.16681707273708918
aF0.4681707612150865
aF0.5793323328612349
aF-3.0337831167667995
aF-0.029935763711989773
aF-0.0033947172029902438
aF0.16686789308767327
aF0.5861543314994337
aF0.5789621110120486
aF2.4847434019936077
aF0.01403925523511174
aF0.06897117728734845
aa(lp20
F0.16681707273708918
aF0.4681707612150865
aF0.5793323328612349
aF-3.0337831167667995
aF-0.029935763711989773
aF-0.0033947172029902438
aF0.16686087875801103
aF0.6067201858828664
aF0.5542224187459417
aF2.4812197340921838
aF0.014397801153936204
aF0.06919089246199954
aa(lp21
F0.16681707273708918
aF0.4681707612150865
aF0.5793323328612349
aF-3.0337831167667995
aF-0.029935763711989773
aF-0.0033947172029902438
aF0.16684855032069176
aF0.642298867654698
aF0.504882020868008
aF2.478491989274699
aF0.014697796432741998
aF0.0693168615114535
aa(lp22
F0.16681707273708918
aF0.4681707612150865
aF0.5793323328612349
aF-3.0337831167667995
aF-0.029935763711989773
aF-0.0033947172029902438
aF0.16684104450541895
aF0.6682534533244845
aF0.46317240896978074
aF2.476391490778027
aF0.014964215919942648
aF0.06943182839612151
aa(lp23
F0.16681707273708918
aF0.4681707612150865
aF0.5793323328612349
aF-3.0337831167667995
aF-0.029935763711989773
aF-0.0033947172029902438
aF0.16683486675880674
aF0.6872987920023471
aF0.428176908388918
aF2.474751053509396
aF0.015172903999622317
aF0.0695583528784666
aa(lp24
F0.16681707273708918
aF0.4681707612150865
aF0.5793323328612349
aF-3.0337831167667995
aF-0.029935763711989773
aF-0.0033947172029902438
aF0.16685116951186502
aF0.7015340216689724
aF0.3991063145316879
aF2.4735830285555727
aF0.015449870136964727
aF0.0694307520223673
aa(lp25
F0.16681707273708918
aF0.4681707612150865
aF0.5793323328612349
aF-3.0337831167667995
aF-0.029935763711989773
aF-0.0033947172029902438
aF0.16685758595520825
aF0.7121473113519994
aF0.37492889702832
aF2.4722055948986266
aF0.01553592875595136
aF0.06949370159881033
aa(lp26
F0.16681707273708918
aF0.4681707612150865
aF0.5793323328612349
aF-3.0337831167667995
aF-0.029935763711989773
aF-0.0033947172029902438
aF0.1668175418218448
aF0.7201922939921979
aF0.3548686225999922
aF2.4712006594116254
aF0.01566899773981621
aF0.06965564925264829
aa(lp27
F0.16681707273708918
aF0.4681707612150865
aF0.5793323328612349
aF-3.0337831167667995
aF-0.029935763711989773
aF-0.0033947172029902438
aF0.16685877568594315
aF0.726325814253479
aF0.3383354733444513
aF2.470170235045126
aF0.015767135462950853
aF0.0695742969332355
aa(lp28
F0.16681707273708918
aF0.4681707612150865
aF0.5793323328612349
aF-3.0337831167667995
aF-0.029935763711989773
aF-0.0033947172029902438
aF0.16683191851728152
aF0.7310659555854383
aF0.3249633565265684
aF2.469795177087263
aF0.01583276585800272
aF0.06963434272559636
aa(lp29
F0.16681707273708918
aF0.4681707612150865
aF0.5793323328612349
aF-3.0337831167667995
aF-0.029935763711989773
aF-0.0033947172029902438
aF0.16684306637025775
aF0.7348051665635152
aF0.31352778944382953
aF2.468976018266195
aF0.01591605498063267
aF0.06968066236682069
aa(lp30
F0.16681707273708918
aF0.4681707612150865
aF0.5793323328612349
aF-3.0337831167667995
aF-0.029935763711989773
aF-0.0033947172029902438
aF0.1668355918131488
aF0.7376375481680855
aF0.3046036596538057
aF2.4686873975377863
aF0.01584416988752306
aF0.06975778902873273
aa(lp31
F0.16681707273708918
aF0.4681707612150865
aF0.5793323328612349
aF-3.0337831167667995
aF-0.029935763711989773
aF-0.0033947172029902438
aF0.16682024112893523
aF0.7398919765164336
aF0.29725983712662674
aF2.4684020436189997
aF0.015867657553111068
aF0.06981999506989771
aa(lp32
F0.16681707273708918
aF0.4681707612150865
aF0.5793323328612349
aF-3.0337831167667995
aF-0.029935763711989773
aF-0.0033947172029902438
aF0.1668357379239921
aF0.7416707499933
aF0.2910581067840512
aF2.4678930351731183
aF0.01592948025653696
aF0.06978244249967767
aa(lp33
F0.16681707273708918
aF0.4681707612150865
aF0.5793323328612349
aF-3.0337831167667995
aF-0.029935763711989773
aF-0.0033947172029902438
aF0.166853503320865
aF0.7430424548999763
aF0.2861774254290618
aF2.4678118328436494
aF0.015942606540146637
aF0.06976662159905583
aa(lp34
F0.16681707273708918
aF0.4681707612150865
aF0.5793323328612349
aF-3.0337831167667995
aF-0.029935763711989773
aF-0.0033947172029902438
aF0.16682695754015311
aF0.7441837336615521
aF0.28208179104513303
aF2.467564803037656
aF0.016072536531048884
aF0.06993925358079131
aa(lp35
F0.16681707273708918
aF0.4681707612150865
aF0.5793323328612349
aF-3.0337831167667995
aF-0.029935763711989773
aF-0.0033947172029902438
aF0.16683475141929513
aF0.7450676429332385
aF0.2788431433679618
aF2.4674465483020747
aF0.016067601277588037
aF0.06988961175065742
aa(lp36
F0.16681707273708918
aF0.4681707612150865
aF0.5793323328612349
aF-3.0337831167667995
aF-0.029935763711989773
aF-0.0033947172029902438
aF0.16681148160442874
aF0.7457900082305596
aF0.2761067739735579
aF2.467233804240142
aF0.016009516521238394
aF0.06972297871863327
aa(lp37
F0.16681707273708918
aF0.4681707612150865
aF0.5793323328612349
aF-3.0337831167667995
aF-0.029935763711989773
aF-0.0033947172029902438
aF0.1667882284019672
aF0.7367520324985024
aF0.27971442022280596
aF2.466803393430621
aF0.01626658080677791
aF0.06976176250650053
aa(lp38
F0.16681707273708918
aF0.4681707612150865
aF0.5793323328612349
aF-3.0337831167667995
aF-0.029935763711989773
aF-0.0033947172029902438
aF0.16678354281852165
aF0.705542948806005
aF0.29692107107221294
aF2.46707462400096
aF0.016196856683083793
aF0.06993784527446685
aa(lp39
F0.16681707273708918
aF0.4681707612150865
aF0.5793323328612349
aF-3.0337831167667995
aF-0.029935763711989773
aF-0.0033947172029902438
aF0.1667830393874168
aF0.6796142639943099
aF0.309325752959844
aF2.4672506943946013
aF0.016163845923534072
aF0.06989556815543167
aa(lp40
F0.16681707273708918
aF0.4681707612150865
aF0.5793323328612349
aF-3.0337831167667995
aF-0.029935763711989773
aF-0.0033947172029902438
aF0.1667992325842953
aF0.6580486178528404
aF0.3183318950284862
aF2.467145430740034
aF0.016141392924714976
aF0.06983278590511525
aa(lp41
F0.16681707273708918
aF0.4681707612150865
aF0.5793323328612349
aF-3.0337831167667995
aF-0.029935763711989773
aF-0.0033947172029902438
aF0.16679159106267386
aF0.6403271965799864
aF0.3250243879647895
aF2.467060618457834
aF0.016117204226428164
aF0.06980572919003997
aa(lp42
F0.16681707273708918
aF0.4681707612150865
aF0.5793323328612349
aF-3.0337831167667995
aF-0.029935763711989773
aF-0.0033947172029902438
aF0.16679286861581574
aF0.6256637200204347
aF0.32988680047527513
aF2.4667564165828093
aF0.016151414512208122
aF0.06983626175156615
aa(lp43
F0.16681707273708918
aF0.4681707612150865
aF0.5793323328612349
aF-3.0337831167667995
aF-0.029935763711989773
aF-0.0033947172029902438
aF0.16677436236967802
aF0.6137547124569651
aF0.33383152230597835
aF2.466984892894074
aF0.016092424024180204
aF0.0698794950811557
aa(lp44
F0.16681707273708918
aF0.4681707612150865
aF0.5793323328612349
aF-3.0337831167667995
aF-0.029935763711989773
aF-0.0033947172029902438
aF0.16676983336739554
aF0.6039597239314796
aF0.3367426892436632
aF2.4670203677888156
aF0.016078633521670653
aF0.0699162524874267
aa(lp45
F0.16681707273708918
aF0.4681707612150865
aF0.5793323328612349
aF-3.0337831167667995
aF-0.029935763711989773
aF-0.0033947172029902438
aF0.16679541719357463
aF0.5959475696476537
aF0.33898347178693
aF2.4670930592839837
aF0.016094195616798642
aF0.0698380318780715
aa(lp46
F0.16681707273708918
aF0.4681707612150865
aF0.5793323328612349
aF-3.0337831167667995
aF-0.029935763711989773
aF-0.0033947172029902438
aF0.16677551594747858
aF0.5893242674552827
aF0.34071411852663136
aF2.4670895549270893
aF0.016085104191317878
aF0.06988117889125185
aa(lp47
F0.16681707273708918
aF0.4681707612150865
aF0.5793323328612349
aF-3.0337831167667995
aF-0.029935763711989773
aF-0.0033947172029902438
aF0.16680361437348468
aF0.5838195064695351
aF0.3419600485022568
aF2.4668818079641204
aF0.016107090534295928
aF0.06983945987777558
aa(lp48
F0.16681707273708918
aF0.4681707612150865
aF0.5793323328612349
aF-3.0337831167667995
aF-0.029935763711989773
aF-0.0033947172029902438
aF0.16677597997125662
aF0.5794971805354838
aF0.3430982051037955
aF2.466923223289537
aF0.016081823469657256
aF0.06985988655913654
aa(lp49
F0.16681707273708918
aF0.4681707612150865
aF0.5793323328612349
aF-3.0337831167667995
aF-0.029935763711989773
aF-0.0033947172029902438
aF0.1668082676575023
aF0.5758867653721331
aF0.3439459625032912
aF2.4669901549876587
aF0.01611827699494057
aF0.06981432608966562
aa(lp50
F0.16681707273708918
aF0.4681707612150865
aF0.5793323328612349
aF-3.0337831167667995
aF-0.029935763711989773
aF-0.0033947172029902438
aF0.16678774000528512
aF0.5729937219219455
aF0.3445872402671716
aF2.466873123681781
aF0.0161264610389374
aF0.06984820213639231
aa(lp51
F0.16681707273708918
aF0.4681707612150865
aF0.5793323328612349
aF-3.0337831167667995
aF-0.029935763711989773
aF-0.0033947172029902438
aF0.16680140007367894
aF0.5705823815534303
aF0.34512385428439196
aF2.466865818309644
aF0.01614218483022821
aF0.0698432299249788
aa(lp52
F0.16681707273708918
aF0.4681707612150865
aF0.5793323328612349
aF-3.0337831167667995
aF-0.029935763711989773
aF-0.0033947172029902438
aF0.16680250873239316
aF0.5686300323460741
aF0.34561370873251546
aF2.466998843696579
aF0.016123450603177332
aF0.0698528924293261
aa(lp53
F0.16681707273708918
aF0.4681707612150865
aF0.5793323328612349
aF-3.0337831167667995
aF-0.029935763711989773
aF-0.0033947172029902438
aF0.16680581470224745
aF0.5670061164362254
aF0.34585395689310755
aF2.4667839271140175
aF0.016095174912585664
aF0.06985284440824605
aa(lp54
F0.16681707273708918
aF0.4681707612150865
aF0.5793323328612349
aF-3.0337831167667995
aF-0.029935763711989773
aF-0.0033947172029902438
aF0.16679011798733392
aF0.5657286423341621
aF0.3461505991130013
aF2.466810147652431
aF0.016097187112511947
aF0.06984353303693895
aa(lp55
F0.16681707273708918
aF0.4681707612150865
aF0.5793323328612349
aF-3.0337831167667995
aF-0.029935763711989773
aF-0.0033947172029902438
aF0.16683053088475974
aF0.5646628562865613
aF0.34638342872144945
aF2.466872293235467
aF0.016107756037672102
aF0.06979162291082239
aa.