(lp0
(lp1
F0.1670089491097113
aF0.4680631699940703
aF0.5788702423553633
aF-3.035109800987897
aF-0.03016802332339398
aF-0.002293050387441235
aF0.16680641270364394
aF0.46857131472912333
aF0.5787845688009593
aF-3.0537471522718094
aF-0.03387929220051111
aF-0.114805099713261
aa(lp2
F0.1670089491097113
aF0.4680631699940703
aF0.5788702423553633
aF-3.035109800987897
aF-0.03016802332339398
aF-0.002293050387441235
aF0.16682540886331534
aF0.468614506848763
aF0.5786531407988791
aF-3.067205896988428
aF-0.03916186813906397
aF-0.2323103135935287
aa(lp3
F0.1670089491097113
aF0.4680631699940703
aF0.5788702423553633
aF-3.035109800987897
aF-0.03016802332339398
aF-0.002293050387441235
aF0.1668496941470465
aF0.46864294669367984
aF0.5786983727629196
aF-3.074816635981172
aF-0.04462470515585667
aF-0.35026693078102844
aa(lp4
F0.1670089491097113
aF0.4680631699940703
aF0.5788702423553633
aF-3.035109800987897
aF-0.03016802332339398
aF-0.002293050387441235
aF0.16686887325910968
aF0.46862163794708656
aF0.5786208819657657
aF-3.078375595919756
aF-0.049507423645956665
aF-0.468468998363163
aa(lp5
F0.1670089491097113
aF0.4680631699940703
aF0.5788702423553633
aF-3.035109800987897
aF-0.03016802332339398
aF-0.002293050387441235
aF0.16683311997589184
aF0.46861598708040775
aF0.5786515124448439
aF-3.0783593590224507
aF-0.053037698468974624
aF-0.5869814604829625
aa(lp6
F0.1670089491097113
aF0.4680631699940703
aF0.5788702423553633
aF-3.035109800987897
aF-0.03016802332339398
aF-0.002293050387441235
aF0.1668552718402557
aF0.4685852238252418
aF0.5787341067032024
aF-3.075678605839146
aF-0.05480179556364299
aF-0.7058246273097823
aa(lp7
F0.1670089491097113
aF0.4680631699940703
aF0.5788702423553633
aF-3.035109800987897
aF-0.03016802332339398
aF-0.002293050387441235
aF0.16682677793899603
aF0.46857643704899404
aF0.5787410167904407
aF-3.0713600124551452
aF-0.054902284813965974
aF-0.824531967080511
aa(lp8
F0.1670089491097113
aF0.4680631699940703
aF0.5788702423553633
aF-3.035109800987897
aF-0.03016802332339398
aF-0.002293050387441235
aF0.16680758005083307
aF0.46857279332789303
aF0.5787462176602224
aF-3.065924097565376
aF-0.052942510608348356
aF-0.943467336973928
aa(lp9
F0.1670089491097113
aF0.4680631699940703
aF0.5788702423553633
aF-3.035109800987897
aF-0.03016802332339398
aF-0.002293050387441235
aF0.16680181049867937
aF0.46852886428957474
aF0.5787554949531885
aF-3.06068691642668
aF-0.05024453711480544
aF-1.0490249802494895
aa(lp10
F0.1670089491097113
aF0.4680631699940703
aF0.5788702423553633
aF-3.035109800987897
aF-0.03016802332339398
aF-0.002293050387441235
aF0.16680100238595638
aF0.46851787378909515
aF0.5787932491439443
aF-3.056143392359539
aF-0.0476810339349532
aF-1.1349183211641247
aa(lp11
F0.1670089491097113
aF0.4680631699940703
aF0.5788702423553633
aF-3.035109800987897
aF-0.03016802332339398
aF-0.002293050387441235
aF0.1668184385072816
aF0.4685032484032331
aF0.5788396675533893
aF-3.0522494073980977
aF-0.04516511168335827
aF-1.2053717847026133
aa(lp12
F0.1670089491097113
aF0.4680631699940703
aF0.5788702423553633
aF-3.035109800987897
aF-0.03016802332339398
aF-0.002293050387441235
aF0.1668010180439869
aF0.4684882332779953
aF0.5788516098472973
aF-3.0491210184004607
aF-0.04291097527926747
aF-1.2627729202348317
aa(lp13
F0.1670089491097113
aF0.4680631699940703
aF0.5788702423553633
aF-3.035109800987897
aF-0.03016802332339398
aF-0.002293050387441235
aF0.16680721577755983
aF0.46846776701447945
aF0.5788576863165146
aF-3.0464380602165924
aF-0.04094320809059228
aF-1.3095311720268454
aa(lp14
F0.1670089491097113
aF0.4680631699940703
aF0.5788702423553633
aF-3.035109800987897
aF-0.03016802332339398
aF-0.002293050387441235
aF0.16682106981173866
aF0.4684759239127722
aF0.5788420849336
aF-3.0442747314768446
aF-0.03927416294461404
aF-1.3478136443208641
aa(lp15
F0.1670089491097113
aF0.4680631699940703
aF0.5788702423553633
aF-3.035109800987897
aF-0.03016802332339398
aF-0.002293050387441235
aF0.1668210960133042
aF0.46847315978348925
aF0.5787984362051928
aF-3.0425261678868316
aF-0.03786539402468792
aF-1.379037205756434
aa(lp16
F0.1670089491097113
aF0.4680631699940703
aF0.5788702423553633
aF-3.035109800987897
aF-0.03016802332339398
aF-0.002293050387441235
aF0.16682362297556602
aF0.46846269836086774
aF0.5788122999830236
aF-3.0410827896746
aF-0.03660420009869939
aF-1.4045939498239097
aa(lp17
F0.1670089491097113
aF0.4680631699940703
aF0.5788702423553633
aF-3.035109800987897
aF-0.03016802332339398
aF-0.002293050387441235
aF0.16681869735315955
aF0.4684395825738358
aF0.5788847218206091
aF-3.039898563521767
aF-0.03537348930345655
aF-1.4254653215776338
aa(lp18
F0.1670089491097113
aF0.4680631699940703
aF0.5788702423553633
aF-3.035109800987897
aF-0.03016802332339398
aF-0.002293050387441235
aF0.1668315931821263
aF0.4684367882791379
aF0.5788611818798036
aF-3.038960682435181
aF-0.034484282625454825
aF-1.4425123974098015
aa(lp19
F0.1670089491097113
aF0.4680631699940703
aF0.5788702423553633
aF-3.035109800987897
aF-0.03016802332339398
aF-0.002293050387441235
aF0.16683561564533209
aF0.4684200494992045
aF0.5788716887703197
aF-3.0381461519703485
aF-0.03371280266291931
aF-1.4564422017686993
aa(lp20
F0.1670089491097113
aF0.4680631699940703
aF0.5788702423553633
aF-3.035109800987897
aF-0.03016802332339398
aF-0.002293050387441235
aF0.1668170928761504
aF0.46843153374363355
aF0.5788598678164613
aF-3.0374654239121237
aF-0.03312411141127402
aF-1.4680310158254304
aa(lp21
F0.1670089491097113
aF0.4680631699940703
aF0.5788702423553633
aF-3.035109800987897
aF-0.03016802332339398
aF-0.002293050387441235
aF0.166821437353
aF0.46842043705429715
aF0.5788948007303983
aF-3.0369629862933523
aF-0.03252693509663118
aF-1.4773158553244972
aa(lp22
F0.1670089491097113
aF0.4680631699940703
aF0.5788702423553633
aF-3.035109800987897
aF-0.03016802332339398
aF-0.002293050387441235
aF0.16683154553499607
aF0.4684020565088974
aF0.5788674030044294
aF-3.0365851905449643
aF-0.03219050677814635
aF-1.484833164475531
aa(lp23
F0.1670089491097113
aF0.4680631699940703
aF0.5788702423553633
aF-3.035109800987897
aF-0.03016802332339398
aF-0.002293050387441235
aF0.16680395301448678
aF0.46843621622726095
aF0.578902171644293
aF-3.036208969784936
aF-0.0317403687650205
aF-1.490930244144357
aa(lp24
F0.1670089491097113
aF0.4680631699940703
aF0.5788702423553633
aF-3.035109800987897
aF-0.03016802332339398
aF-0.002293050387441235
aF0.16683566323400348
aF0.4683978900460822
aF0.5789080663580948
aF-3.0359044991398485
aF-0.03141990647660942
aF-1.4961214280266286
aa(lp25
F0.1670089491097113
aF0.4680631699940703
aF0.5788702423553633
aF-3.035109800987897
aF-0.03016802332339398
aF-0.002293050387441235
aF0.1523658497232697
aF0.49245246389271574
aF0.5856702250022018
aF-3.0362212848954613
aF-0.030223189940805133
aF-1.5004299492906858
aa(lp26
F0.1670089491097113
aF0.4680631699940703
aF0.5788702423553633
aF-3.035109800987897
aF-0.03016802332339398
aF-0.002293050387441235
aF0.09908357712118188
aF0.5677859639386091
aF0.6010018900345424
aF-3.0381042552275916
aF-0.028968348187611143
aF-1.5052859227055688
aa(lp27
F0.1670089491097113
aF0.4680631699940703
aF0.5788702423553633
aF-3.035109800987897
aF-0.03016802332339398
aF-0.002293050387441235
aF0.04627175377436517
aF0.6260360684757069
aF0.6078256607231427
aF-3.038791524061566
aF-0.028985847372713505
aF-1.5091731278684888
aa(lp28
F0.1670089491097113
aF0.4680631699940703
aF0.5788702423553633
aF-3.035109800987897
aF-0.03016802332339398
aF-0.002293050387441235
aF-0.002852850011686947
aF0.6707183028751287
aF0.6096281275919561
aF-3.0389072904123515
aF-0.02917171145441147
aF-1.5123773075425593
aa(lp29
F0.1670089491097113
aF0.4680631699940703
aF0.5788702423553633
aF-3.035109800987897
aF-0.03016802332339398
aF-0.002293050387441235
aF-0.04675038086409239
aF0.7043778532239737
aF0.6086743287992692
aF-3.038748691385616
aF-0.029352259313169912
aF-1.5148654827794006
aa(lp30
F0.1670089491097113
aF0.4680631699940703
aF0.5788702423553633
aF-3.035109800987897
aF-0.03016802332339398
aF-0.002293050387441235
aF-0.08492474214197383
aF0.7297441351886055
aF0.6065548905484716
aF-3.038544643398148
aF-0.02914158975479572
aF-1.517266389665451
aa(lp31
F0.1670089491097113
aF0.4680631699940703
aF0.5788702423553633
aF-3.035109800987897
aF-0.03016802332339398
aF-0.002293050387441235
aF-0.11772920195946664
aF0.7491495650579386
aF0.6033170397047241
aF-3.038041578506227
aF-0.02957062204034479
aF-1.5190538712380626
aa(lp32
F0.1670089491097113
aF0.4680631699940703
aF0.5788702423553633
aF-3.035109800987897
aF-0.03016802332339398
aF-0.002293050387441235
aF-0.14544714225733166
aF0.7638788088319173
aF0.5998804563066003
aF-3.037527924958085
aF-0.03001155572098946
aF-1.5204822754593392
aa(lp33
F0.1670089491097113
aF0.4680631699940703
aF0.5788702423553633
aF-3.035109800987897
aF-0.03016802332339398
aF-0.002293050387441235
aF-0.16920773807186026
aF0.7753097344762576
aF0.5967366578508272
aF-3.0370158761856465
aF-0.02999639198979475
aF-1.5215606747289803
aa(lp34
F0.1670089491097113
aF0.4680631699940703
aF0.5788702423553633
aF-3.035109800987897
aF-0.03016802332339398
aF-0.002293050387441235
aF-0.18856740376496745
aF0.783821444705482
aF0.5939413959789698
aF-3.0366995087209308
aF-0.030048816206796846
aF-1.5224106826459345
aa(lp35
F0.1670089491097113
aF0.4680631699940703
aF0.5788702423553633
aF-3.035109800987897
aF-0.03016802332339398
aF-0.002293050387441235
aF-0.2046912562301458
aF0.7904700482342203
aF0.5915125898461282
aF-3.0364836892434313
aF-0.029856869272732546
aF-1.5231525595140354
aa(lp36
F0.1670089491097113
aF0.4680631699940703
aF0.5788702423553633
aF-3.035109800987897
aF-0.03016802332339398
aF-0.002293050387441235
aF-0.21790103541712283
aF0.7956542247054349
aF0.5892631123799419
aF-3.0361968644061648
aF-0.029909628497242657
aF-1.5238880473354646
aa(lp37
F0.1670089491097113
aF0.4680631699940703
aF0.5788702423553633
aF-3.035109800987897
aF-0.03016802332339398
aF-0.002293050387441235
aF-0.22879229752256322
aF0.7997785167213788
aF0.587284189781039
aF-3.0359044493892733
aF-0.03001480312210398
aF-1.5244938392993646
aa(lp38
F0.1670089491097113
aF0.4680631699940703
aF0.5788702423553633
aF-3.035109800987897
aF-0.03016802332339398
aF-0.002293050387441235
aF-0.23761522573037355
aF0.8029666857249055
aF0.585777712253005
aF-3.035704987882426
aF-0.029892308850611053
aF-1.525000066090231
aa(lp39
F0.1670089491097113
aF0.4680631699940703
aF0.5788702423553633
aF-3.035109800987897
aF-0.03016802332339398
aF-0.002293050387441235
aF-0.2452641035177671
aF0.8055387041178428
aF0.5842011987796594
aF-3.0354192179486663
aF-0.030130106816192014
aF-1.5251909770052081
aa(lp40
F0.1670089491097113
aF0.4680631699940703
aF0.5788702423553633
aF-3.035109800987897
aF-0.03016802332339398
aF-0.002293050387441235
aF-0.25115378017018025
aF0.8076003412030778
aF0.5831059270069502
aF-3.0353465368446595
aF-0.030089244510173176
aF-1.525679971524297
aa(lp41
F0.1670089491097113
aF0.4680631699940703
aF0.5788702423553633
aF-3.035109800987897
aF-0.03016802332339398
aF-0.002293050387441235
aF-0.25617867178496145
aF0.8092192516147764
aF0.5820519021895738
aF-3.0351217224721614
aF-0.03020190762521557
aF-1.5257974469273194
aa(lp42
F0.1670089491097113
aF0.4680631699940703
aF0.5788702423553633
aF-3.035109800987897
aF-0.03016802332339398
aF-0.002293050387441235
aF-0.2602518194823595
aF0.810452386194952
aF0.581358550266284
aF-3.0350611309935975
aF-0.030128087304434958
aF-1.5258428509210873
aa(lp43
F0.1670089491097113
aF0.4680631699940703
aF0.5788702423553633
aF-3.035109800987897
aF-0.03016802332339398
aF-0.002293050387441235
aF-0.26352119121998413
aF0.8115550765842583
aF0.5806651923718161
aF-3.0349265585633725
aF-0.03019499688056601
aF-1.526200822558789
aa(lp44
F0.1670089491097113
aF0.4680631699940703
aF0.5788702423553633
aF-3.035109800987897
aF-0.03016802332339398
aF-0.002293050387441235
aF-0.2662593505741666
aF0.8123961506174653
aF0.5801077259899781
aF-3.0348662944528493
aF-0.030143211442208346
aF-1.526317766330339
aa(lp45
F0.1670089491097113
aF0.4680631699940703
aF0.5788702423553633
aF-3.035109800987897
aF-0.03016802332339398
aF-0.002293050387441235
aF-0.2692350959774074
aF0.8147730277298034
aF0.5725185827355709
aF-3.0353355905712966
aF-0.029295365399617912
aF-1.5266546294918069
aa(lp46
F0.1670089491097113
aF0.4680631699940703
aF0.5788702423553633
aF-3.035109800987897
aF-0.03016802332339398
aF-0.002293050387441235
aF-0.2764533699498153
aF0.8242786235146143
aF0.51379596433981
aF-3.034945348090994
aF-0.029690663521489715
aF-1.526570900980032
aa(lp47
F0.1670089491097113
aF0.4680631699940703
aF0.5788702423553633
aF-3.035109800987897
aF-0.03016802332339398
aF-0.002293050387441235
aF-0.28039027444934056
aF0.8287726113092825
aF0.4662257001791365
aF-3.034599223221639
aF-0.030382737642135324
aF-1.5264984586709607
aa(lp48
F0.1670089491097113
aF0.4680631699940703
aF0.5788702423553633
aF-3.035109800987897
aF-0.03016802332339398
aF-0.002293050387441235
aF-0.28234524706652664
aF0.8304484437642706
aF0.4281092925165455
aF-3.0345901298424836
aF-0.03024254286125974
aF-1.5266145981288024
aa(lp49
F0.1670089491097113
aF0.4680631699940703
aF0.5788702423553633
aF-3.035109800987897
aF-0.03016802332339398
aF-0.002293050387441235
aF-0.2831233577513485
aF0.8303208264248944
aF0.39670288720882335
aF-3.034594642055699
aF-0.03021515147735475
aF-1.5266616380147284
aa(lp50
F0.1670089491097113
aF0.4680631699940703
aF0.5788702423553633
aF-3.035109800987897
aF-0.03016802332339398
aF-0.002293050387441235
aF-0.28323331445692534
aF0.8293707583541852
aF0.37170778574398256
aF-3.034546140558659
aF-0.030310941404855338
aF-1.526771428630341
aa(lp51
F0.1670089491097113
aF0.4680631699940703
aF0.5788702423553633
aF-3.035109800987897
aF-0.03016802332339398
aF-0.002293050387441235
aF-0.28291415355372834
aF0.827822912818852
aF0.35158379254310823
aF-3.0344647998438226
aF-0.030312226745366756
aF-1.526805159229588
aa(lp52
F0.1670089491097113
aF0.4680631699940703
aF0.5788702423553633
aF-3.035109800987897
aF-0.03016802332339398
aF-0.002293050387441235
aF-0.28251892594989936
aF0.8263537702657676
aF0.335455945713303
aF-3.0345868792709467
aF-0.030154299301753108
aF-1.5268280559386225
aa(lp53
F0.1670089491097113
aF0.4680631699940703
aF0.5788702423553633
aF-3.035109800987897
aF-0.03016802332339398
aF-0.002293050387441235
aF-0.2819724666565426
aF0.8247903892297945
aF0.32220238229867576
aF-3.034583299485492
aF-0.030250468374618887
aF-1.526867456432313
aa(lp54
F0.1670089491097113
aF0.4680631699940703
aF0.5788702423553633
aF-3.035109800987897
aF-0.03016802332339398
aF-0.002293050387441235
aF-0.2814710526252986
aF0.8233991894510386
aF0.31142745884142997
aF-3.0345333976331124
aF-0.03031816330952388
aF-1.5268800497263233
aa(lp55
F0.1670089491097113
aF0.4680631699940703
aF0.5788702423553633
aF-3.035109800987897
aF-0.03016802332339398
aF-0.002293050387441235
aF-0.28092646329581683
aF0.8220640806101158
aF0.3027953841665704
aF-3.03451450402636
aF-0.03025945398718597
aF-1.5269014745834344
aa(lp56
F0.1670089491097113
aF0.4680631699940703
aF0.5788702423553633
aF-3.035109800987897
aF-0.03016802332339398
aF-0.002293050387441235
aF-0.2805167765628086
aF0.8209572264225632
aF0.2958125795433786
aF-3.034572410194739
aF-0.030114005033464505
aF-1.526874790549506
aa(lp57
F0.1670089491097113
aF0.4680631699940703
aF0.5788702423553633
aF-3.035109800987897
aF-0.03016802332339398
aF-0.002293050387441235
aF-0.28012948298964613
aF0.8200082095055405
aF0.2899537312767687
aF-3.0344682604406987
aF-0.030307955416213627
aF-1.526889659355578
aa(lp58
F0.1670089491097113
aF0.4680631699940703
aF0.5788702423553633
aF-3.035109800987897
aF-0.03016802332339398
aF-0.002293050387441235
aF-0.27977369790778417
aF0.8191970729509843
aF0.28532703009151206
aF-3.0344823194803903
aF-0.030253746582660345
aF-1.5269361187787742
aa(lp59
F0.1670089491097113
aF0.4680631699940703
aF0.5788702423553633
aF-3.035109800987897
aF-0.03016802332339398
aF-0.002293050387441235
aF-0.2794803402790451
aF0.8184889044706035
aF0.2815533382924001
aF-3.0345308109847244
aF-0.03019724767214576
aF-1.5269120549696429
aa(lp60
F0.1670089491097113
aF0.4680631699940703
aF0.5788702423553633
aF-3.035109800987897
aF-0.03016802332339398
aF-0.002293050387441235
aF-0.2792026758730156
aF0.8179124465113135
aF0.2784222300675476
aF-3.0345120937630226
aF-0.030213122062296243
aF-1.5269717221493022
aa.