(dp0
S'data'
p1
(lp2
(lp3
F0.10411214828491211
a(lp4
F-1.5699356237994593
aF-1.191690746937887
aF-2.0148828665362757
aF-1.4007394949542444
aF1.5413391590118408
aF0.0013070295099169016
aa(lp5
F0.2597059548084987
aF-0.3
aF0.3
aF-0.290218245394249
aF0.17842295972534633
aF0.18211396308395306
aa(lp6
(lp7
F0.06496065278432735
aF0.016835083069560657
aF-0.10611355942510316
aF0.48394216118560246
aF-0.005187350546573979
aF0.06413022540428077
aaaF0.05639762058854103
a(lp8
F-4.814098358154297
aF0.7576023936271667
aacnumpy.core.multiarray
scalar
p9
(cnumpy
dtype
p10
(S'f8'
p11
I0
I1
tp12
Rp13
(I3
S'<'
p14
NNNI-1
I-1
I0
tp15
bS'P\xfb\xbf,\x0e?\xf6\xbf'
p16
tp17
Rp18
aa(lp19
F0.2048511505126953
a(lp20
F-1.5613206068622034
aF-1.203505818043844
aF-2.0025270620929163
aF-1.4121773878680628
aF1.546249270439148
aF0.009293017908930779
aa(lp21
F0.29475905690466353
aF-0.2967317390672352
aF0.3
aF-0.3
aF0.06763235193867718
aF0.19555810570221616
aa(lp22
(lp23
F0.13674822695522076
aF0.09824462112502066
aF-0.305011604808327
aF1.3354699240320422
aF-0.019685115077481143
aF0.15661007204173313
aaaF0.05639665201306343
a(lp24
F-4.773559093475342
aF0.5244449973106384
aag9
(g13
S'X?\xd5x\xaa\xdc\xf5\xbf'
p25
tp26
Rp27
aa(lp28
F0.30577993392944336
a(lp29
F-1.542020622883932
aF-1.230311695729391
aF-1.9751203695880335
aF-1.4393447081195276
aF1.5574110746383667
aF0.026704223826527596
aa(lp30
F0.12686623296106983
aF-0.27889334108802266
aF0.3
aF-0.27711423312933264
aF0.03477999146682467
aF0.18013626901000526
aa(lp31
(lp32
F0.12045442467093415
aF0.6737066565188609
aF-1.6316684134932717
aF6.624948859581375
aF-0.1370681305942511
aF0.09269964968066878
aaaF0.05640190839767456
a(lp33
F-4.671858787536621
aF0.04718751460313797
aag9
(g13
S'j\xe6\xc7MB\xfd\xf4\xbf'
p34
tp35
Rp36
aa(lp37
F0.40746212005615234
a(lp38
F-1.5207460562335413
aF-1.2609408537494105
aF-1.944084946309225
aF-1.4708650747882288
aF1.5693507194519043
aF0.045698098838329315
aa(lp39
F0.11013658287818702
aF-0.29345262797418453
aF0.3
aF-0.3
aF0.04973535570444334
aF0.15400700376906734
aa(lp40
(lp41
F0.1628034787103305
aF0.7698677769178497
aF-1.7737790647107081
aF7.130811056367162
aF-0.2784024113449032
aF0.13259105518377345
aaaF0.05640394240617752
a(lp42
F-4.5650153160095215
aF-0.3154059052467346
aag9
(g13
S'\xdc\x0bgw\x1d\x00\xf4\xbf'
p43
tp44
Rp45
aa(lp46
F0.5084891319274902
a(lp47
F-1.501289192830221
aF-1.2886584440814417
aF-1.9155505339251917
aF-1.4996030966388147
aF1.5796021223068237
aF0.06205431744456291
aa(lp48
F0.17318242466005274
aF-0.26739887289152264
aF0.3
aF-0.2906124101022553
aF0.09495596012560407
aF0.062434440362692356
aa(lp49
(lp50
F0.17467143749982061
aF0.8013108449066677
aF-1.7904254891344367
aF7.116110482358797
aF-0.3945858797187746
aF0.15110083338811042
aaaF0.05640450865030289
a(lp51
F-4.44427490234375
aF-0.536055862903595
aag9
(g13
S's\xd3\x8b\xc8\x9d\x1a\xf3\xbf'
p52
tp53
Rp54
aa(lp55
F0.6091909408569336
a(lp56
F-1.4822986761676233
aF-1.3181026617633265
aF-1.884968105946676
aF-1.5298283735858362
aF1.5903557538986206
aF0.07847083359956741
aa(lp57
F0.16770921353712775
aF-0.26293827430172156
aF0.3
aF-0.3
aF0.10651728735089197
aF0.20460544402493594
aa(lp58
(lp59
F0.09779144126991282
aF-0.0988465085810924
aF0.08694195078149952
aF-0.13026531424100865
aF0.02372169013017114
aF0.12388894854420154
aaaF0.056381985545158386
a(lp60
F1.1962761878967285
aF1.1650803089141846
aag9
(g13
S'J\x7f\xa8\xff\x0e*\xf2\xbf'
p61
tp62
Rp63
aa(lp64
F0.7116129398345947
a(lp65
F-1.4645164648639124
aF-1.3463004271136683
aF-1.8548148314105433
aF-1.5597417990313929
aF1.6006909608840942
aF0.0935080423951149
aa(lp66
F0.2087954652072732
aF-0.24766624028966244
aF0.3
aF-0.2838134094688657
aF0.027832502206444752
aF0.11318636821952631
aa(lp67
(lp68
F0.09185851514474205
aF-0.09596811428491105
aF0.08665751310823175
aF-0.11697433783637737
aF0.026453106420881153
aF0.10685881621621664
aaaF0.05638125166296959
a(lp69
F1.1920416355133057
aF1.162557601928711
aag9
(g13
S'\x8a\x9d\xfe\xf6\xca@\xf1\xbf'
p70
tp71
Rp72
aa(lp73
F0.8124799728393555
a(lp74
F-1.448324982319967
aF-1.3714192549334925
aF-1.827630345021383
aF-1.5865019003497522
aF1.609372854232788
aF0.1064588725566864
aa(lp75
F0.12404857919498474
aF-0.2670415368141542
aF0.3
aF-0.3
aF0.05652937519216904
aF0.15053149732602011
aa(lp76
(lp77
F0.0867065915889536
aF-0.09411644312611148
aF0.08903866526503254
aF-0.10979594895447399
aF0.028237351539432715
aF0.09294996238668721
aaaF0.05638536438345909
a(lp78
F1.1886128187179565
aF1.160898208618164
aag9
(g13
S"ca\x0f'hp\xf0\xbf"
p79
tp80
Rp81
aa(lp82
F0.9136021137237549
a(lp83
F-1.4321215788470667
aF-1.3980000654803675
aF-1.7991040388690394
aF-1.6148927847491663
aF1.617791771888733
aF0.11938609927892685
aa(lp84
F0.12590902896378509
aF-0.21365027264417033
aF0.2836102769181108
aF-0.26239465577481436
aF0.09731435951777614
aF0.2078335940683484
aa(lp85
(lp86
F0.0817260077200534
aF-0.09204062750402758
aF0.09173902595798901
aF-0.10602097044507701
aF0.028768078696550122
aF0.08110569294165601
aaaF0.05638781934976578
a(lp87
F1.1861649751663208
aF1.1598973274230957
aag9
(g13
S'\x19\xf4D\xf6a-\xef\xbf'
p88
tp89
Rp90
aa(lp91
F1.0154330730438232
a(lp92
F-1.4167550245868128
aF-1.4233349005328577
aF-1.7715337912188929
aF-1.6427210013019007
aF1.6261746883392334
aF0.13140179216861725
aa(lp93
F0.06723704146293753
aF-0.21947122751918427
aF0.293566300746696
aF-0.2170000444134575
aF0.019420312499177125
aF0.08697193420568276
aa(lp94
(lp95
F0.07663134775566047
aF-0.09043912756125018
aF0.0951741503110847
aF-0.10463642946364915
aF0.029019164792409256
aF0.07016818984963996
aaaF0.056388307362794876
a(lp96
F1.1841785907745361
aF1.1591823101043701
aag9
(g13
S'r\x06\x7fx\x90\x89\xed\xbf'
p97
tp98
Rp99
aa(lp100
F1.1192100048065186
a(lp101
F-1.402849022542135
aF-1.447843376790182
aF-1.7453044096576136
aF-1.669384781514303
aF1.6341618299484253
aF0.1436934769153595
aa(lp102
F0.10500339054112684
aF-0.14031494451577042
aF0.19858864607331
aF-0.19863355797933452
aF0.06171209852477464
aF0.1325317569354908
aa(lp103
(lp104
F0.07052168650796073
aF-0.0885477824611865
aF0.09749093922710157
aF-0.10679566154375617
aF0.029054488008817356
aF0.059916599577485984
aaaF0.05639000982046127
a(lp105
F1.1842809915542603
aF1.159135341644287
aag9
(g13
S'\xeb\xeb3\xde\xb7\xf7\xeb\xbf'
p106
tp107
Rp108
aa(lp109
F1.2199499607086182
a(lp110
F-1.390294377003805
aF-1.4698107878314417
aF-1.721565071736471
aF-1.6930158774005335
aF1.6413830518722534
aF0.15497775375843048
aa(lp111
F0.1300283283057216
aF-0.11784723020029678
aF0.1821029858832544
aF-0.1986621828522563
aF0.12100119092349096
aF0.025450167572371535
aa(lp112
(lp113
F0.06488817723884638
aF-0.08628531314290312
aF0.09825447431680474
aF-0.1074920787722096
aF0.028571577496698843
aF0.05160053811056707
aaaF0.056386735290288925
a(lp114
F1.1849080324172974
aF1.1593396663665771
aag9
(g13
S'\xfaC\xf7f\xe0\x8e\xea\xbf'
p115
tp116
Rp117
aa(lp118
F1.320138931274414
a(lp119
F-1.3764351050006312
aF-1.4923422972308558
aF-1.6966756025897425
aF-1.716731373463766
aF1.649082899093628
aF0.16664589941501617
aa(lp120
F0.07172752734791701
aF-0.26737554985743905
aF0.2097577010585859
aF-0.1387794193709658
aF0.07041287411649216
aF0.08580955888231052
aa(lp121
(lp122
F0.05955492946151917
aF-0.08333938122677922
aF0.09794115233910702
aF-0.10448566447768436
aF0.027202880041608226
aF0.044200326700213365
aaaF0.05639130249619484
a(lp123
F1.1850203275680542
aF1.159524917602539
aag9
(g13
S'\x92\x17\xa9\x89\xb8\x19\xe9\xbf'
p124
tp125
Rp126
aa(lp127
F1.4222750663757324
a(lp128
F-1.3627551237689417
aF-1.513758961354391
aF-1.6724675337420862
aF-1.7396906057940882
aF1.656782865524292
aF0.1778462827205658
aa(lp129
F0.0867571593956897
aF-0.151138788565271
aF0.2513857790533615
aF-0.209809922641022
aF0.11271565670709122
aF0.020554151422800954
aa(lp130
(lp131
F0.05458110655364185
aF-0.08009533405471347
aF0.09666999205847546
aF-0.10007421224591885
aF0.025357854746586646
aF0.037810512939195594
aaaF0.05639031156897545
a(lp132
F1.1850706338882446
aF1.1597739458084106
aag9
(g13
S'\xeb\x94\x97\xf1\xc3\xb0\xe7\xbf'
p133
tp134
Rp135
aa(lp136
F1.5232610702514648
a(lp137
F-1.3511336485492151
aF-1.531976048146383
aF-1.6512649695025843
aF-1.7598326841937464
aF1.6632733345031738
aF0.18726025521755219
aa(lp138
F0.06912015950136467
aF-0.14307927870697792
aF0.14395032903716898
aF-0.21740599160071652
aF0.013687963020475091
aF0.09871739918028329
aa(lp139
(lp140
F0.050358936715016796
aF-0.0768599436015027
aF0.09423973775949306
aF-0.09483047534445321
aF0.02346979884954467
aF0.03318720944165123
aaaF0.05639822781085968
a(lp141
F1.1853092908859253
aF1.1601643562316895
aag9
(g13
S'\x01\x1d4\xd8\x99x\xe6\xbf'
p142
tp143
Rp144
aa(lp145
F1.6249239444732666
a(lp146
F-1.339691464100973
aF-1.5514519850360315
aF-1.6293790976153772
aF-1.7801192442523401
aF1.669440746307373
aF0.19726146757602692
aa(lp147
F0.1748448217751719
aF-0.23766322432190606
aF0.15217824593939488
aF-0.19983245545413464
aF-0.018119715581526127
aF0.18191103682578735
aa(lp148
(lp149
F0.045673719316105726
aF-0.07259594192254146
aF0.08914368765065821
aF-0.08767539695536933
aF0.021437583450949642
aF0.02959943917577642
aaaF0.05639708787202835
a(lp150
F1.1867166757583618
aF1.1611413955688477
aag9
(g13
S'\\`cV\x7f7\xe5\xbf'
p151
tp152
Rp153
aa(lp154
F1.7268929481506348
a(lp155
F-1.328775707875387
aF-1.569561783467428
aF-1.6082356611834925
aF-1.7990625540362757
aF1.6750448942184448
aF0.20709528028964996
aa(lp156
F0.046892959568382554
aF-0.24547048972988872
aF0.1409451080306021
aF-0.1737585071489595
aF0.09161330380057717
aF-0.03341732419305775
aa(lp157
(lp158
F0.04136664264870478
aF-0.06832643356209261
aF0.08327773221505749
aF-0.08038872905242912
aF0.019577211082790043
aF0.027014260176504035
aaaF0.05639269948005676
a(lp159
F1.1884914636611938
aF1.162418007850647
aag9
(g13
S'\xe2\x8f\xfb\xa8\x7f\x07\xe4\xbf'
p160
tp161
Rp162
aa(lp163
F1.8272669315338135
a(lp164
F-1.3195231596576136
aF-1.5851786772357386
aF-1.5901101271258753
aF-1.8164590040790003
aF1.680277943611145
aF0.21550145745277405
aa(lp165
F0.01115004606633306
aF-0.1184733220943967
aF0.10023324248929871
aF-0.187787833933802
aF-0.01952011039054745
aF0.056556682353247054
aa(lp166
(lp167
F0.03765531760080905
aF-0.06483108779570365
aF0.07805501580511631
aF-0.07571972900282072
aF0.018402650310924404
aF0.024771020481332416
aaaF0.056403759866952896
a(lp168
F1.1904234886169434
aF1.1637821197509766
aag9
(g13
S'\x19\x0bj\x84\x11\xfd\xe2\xbf'
p169
tp170
Rp171
aa(lp172
F1.9279019832611084
a(lp173
F-1.3101266066180628
aF-1.6019228140460413
aF-1.5717442671405237
aF-1.8346708456622522
aF1.6863133907318115
aF0.2241600602865219
aa(lp174
F0.00203392492044685
aF-0.09680055556635328
aF0.12844888037310753
aF-0.2144636756095749
aF0.02186413711310264
aF0.062493757457503
aa(lp175
(lp176
F0.0337808167788255
aF-0.06125729073219275
aF0.07238902034696018
aF-0.0721535883335176
aF0.01748584618132737
aF0.022219102132176843
aaaF0.05640484020113945
a(lp177
F1.1929229497909546
aF1.1655008792877197
aag9
(g13
S'a\xe4\x08\x7f\x93\xe7\xe1\xbf'
p178
tp179
Rp180
aa(lp181
F2.0291759967803955
a(lp182
F-1.3017361799823206
aF-1.6157415548907679
aF-1.556253735219137
aF-1.8505447546588343
aF1.6914026737213135
aF0.2314876765012741
aa(lp183
F0.027343021400867668
aF-0.16396526865353644
aF0.11416111848713685
aF-0.20370440668013387
aF0.11530121943117319
aF0.017574637227365603
aa(lp184
(lp185
F0.03070510479936786
aF-0.0582350191438581
aF0.06716692628592334
aF-0.06824561295754164
aF0.016851639568999703
aF0.020520118809518383
aaaF0.056398507207632065
a(lp186
F1.194862961769104
aF1.1671189069747925
aag9
(g13
S'>\xdf\xac\x1e<\xfb\xe0\xbf'
p187
tp188
Rp189
aa(lp190
F2.1311581134796143
a(lp191
F-1.2929266134845179
aF-1.6300528685199183
aF-1.5410855452166956
aF-1.8668625990497034
aF1.6960850954055786
aF0.23891077935695648
aa(lp192
F0.08124425061305543
aF-0.153837435133089
aF0.20774620336738203
aF-0.10711524829243102
aF0.0702275460699686
aF0.05794022106853735
aa(lp193
(lp194
F0.0279540716922858
aF-0.054892058122637935
aF0.060638679973593394
aF-0.06256414278807268
aF0.01648814175615551
aF0.020178062432598017
aaaF0.056395743042230606
a(lp195
F1.1969581842422485
aF1.1692343950271606
aag9
(g13
S'(\xa3v\\\xc2\x0b\xe0\xbf'
p196
tp197
Rp198
aa(lp199
F2.232905149459839
a(lp200
F-1.284379784260885
aF-1.6433089415179651
aF-1.5261815229998987
aF-1.8820889631854456
aF1.700120449066162
aF0.24518264830112457
aa(lp201
F0.09565081672241182
aF-0.08365498815218955
aF0.007299602860910845
aF-0.05038785983270114
aF0.16843476446437253
aF0.07591186643748549
aa(lp202
(lp203
F0.025889371717575764
aF-0.05185807252018628
aF0.054803178562354275
aF-0.055614732533440514
aF0.015890364571349378
aF0.02030738702549226
aaaF0.05639777332544327
a(lp204
F1.1978154182434082
aF1.170835256576538
aag9
(g13
S'A\x10G\xdewT\xde\xbf'
p205
tp206
Rp207
aa(lp208
F2.335937976837158
a(lp209
F-1.2763837019549769
aF-1.6553905645953577
aF-1.5116961638080042
aF-1.8962486425982874
aF1.705029845237732
aF0.25139495730400085
aa(lp210
F0.1144345758198082
aF-0.14163471289967464
aF0.1426117052294325
aF-0.080205893503345
aF0.03921927558176319
aF0.13272599662381596
aa(lp211
(lp212
F0.023795482475851542
aF-0.049159300740130016
aF0.04980766395204886
aF-0.05133383387442122
aF0.015179589437831847
aF0.01892535708093624
aaaF0.05639960616827011
a(lp213
F1.198881983757019
aF1.1722187995910645
aag9
(g13
S'\xebE@%\x8e\xa8\xdc\xbf'
p214
tp215
Rp216
aa(lp217
F2.4366209506988525
a(lp218
F-1.2693927923785608
aF-1.666981045399801
aF-1.4989474455462855
aF-1.9089692274676722
aF1.7088977098464966
aF0.2572110593318939
aa(lp219
F0.06253837981578192
aF-0.07666877167777991
aF0.0646605026178747
aF-0.051301666861026066
aF-0.004715530350454966
aF0.09624778099547487
aa(lp220
(lp221
F0.021968319730737314
aF-0.046737832095992846
aF0.04480475792245544
aF-0.04721868940279672
aF0.015182385899495263
aF0.01850106049686914
aaaF0.05640342831611633
a(lp222
F1.2006741762161255
aF1.174257516860962
aag9
(g13
S'eje\xc2<&\xdb\xbf'
p223
tp224
Rp225
aa(lp226
F2.538188934326172
a(lp227
F-1.262306038533346
aF-1.6782358328448694
aF-1.4854801336871546
aF-1.921689812337057
aF1.7127176523208618
aF0.26338744163513184
aa(lp228
F0.07811776949967397
aF-0.12921818581669098
aF0.11517536049200038
aF-0.06931892011201773
aF-0.005249161626319408
aF0.01032939910645573
aa(lp229
(lp230
F0.020343212578186692
aF-0.04434410894397826
aF0.039811890680315244
aF-0.043347074398167054
aF0.015220089255788525
aF0.018129012696684054
aaaF0.05639558658003807
a(lp231
F1.2027181386947632
aF1.1765445470809937
aag9
(g13
S'7\x1e\xca\xba`\x9e\xd9\xbf'
p232
tp233
Rp234
aa(lp235
F2.6434450149536133
a(lp236
F-1.2555788199054163
aF-1.689310375844137
aF-1.4734976927386683
aF-1.9341948668109339
aF1.7162983417510986
aF0.26934733986854553
aa(lp237
F0.11054561320139063
aF-0.05085555212203846
aF0.10721360917981615
aF-0.1286781677509428
aF-0.006400304178132206
aF0.09029818320790246
aa(lp238
(lp239
F0.018889132267366507
aF-0.042214672179023284
aF0.03515558422570164
aF-0.03987323403861431
aF0.015747246237774515
aF0.01808956571096164
aaaF0.05639957636594772
a(lp240
F1.2052382230758667
aF1.1793906688690186
aag9
(g13
S'oA@Xn*\xd8\xbf'
p241
tp242
Rp243
aa(lp244
F2.7443690299987793
a(lp245
F-1.2491744200335901
aF-1.700254265462057
aF-1.462318245564596
aF-1.9469392935382288
aF1.7199026346206665
aF0.2747443616390228
aa(lp246
F-0.027686018245922428
aF-0.06526731811089465
aF0.11735518201576306
aF-0.1205337506358305
aF0.054320649168763654
aF-0.052823036136296755
aa(lp247
(lp248
F0.017654105302673334
aF-0.04029028272801269
aF0.03099834667786196
aF-0.0366796504228464
aF0.016381027238378896
aF0.01805742793181539
aaaF0.05639714375138283
a(lp249
F1.2077046632766724
aF1.1823811531066895
aag9
(g13
S'\\\x1cO\xa17\xc0\xd6\xbf'
p250
tp251
Rp252
aa(lp253
F2.8463549613952637
a(lp254
F-1.2428057829486292
aF-1.7102626005755823
aF-1.4515822569476526
aF-1.9593361059771937
aF1.7235431671142578
aF0.2795051038265228
aa(lp255
F0.03943011731318356
aF-0.04525093135247164
aF0.054180646959974765
aF-0.05080458581819736
aF0.0294471162394724
aF-0.013652965213976513
aa(lp256
(lp257
F0.016668145224442595
aF-0.03840973998164438
aF0.027225389870758506
aF-0.03307617875902773
aF0.016578903006758117
aF0.017810125231169815
aaaF0.056395675987005234
a(lp258
F1.2092746496200562
aF1.1847394704818726
aag9
(g13
S'O\xbc\x08\x06\xf7f\xd5\xbf'
p259
tp260
Rp261
aa(lp262
F2.948927164077759
a(lp263
F-1.2375863234149378
aF-1.71906024614443
aF-1.4423430601703089
aF-1.9698265234576624
aF1.7265245914459229
aF0.2837505042552948
aa(lp264
F0.06740719768744287
aF0.005927251094932182
aF0.10481366186660167
aF-0.10667831296252109
aF0.055200560375438065
aF0.026302401779469714
aa(lp265
(lp266
F0.01588817830504668
aF-0.036921729051549904
aF0.024371495604660495
aF-0.030432160976061315
aF0.01695346897336289
aF0.01764828552958688
aaaF0.05639561265707016
a(lp267
F1.2112127542495728
aF1.1873289346694946
aag9
(g13
S'\x01\x8f\xbb\x86,?\xd4\xbf'
p268
tp269
Rp270
aa(lp271
F3.049373149871826
a(lp272
F-1.2317565123187464
aF-1.7280381361590784
aF-1.4322541395770472
aF-1.979945484791891
aF1.729662299156189
aF0.28787606954574585
aa(lp273
F0.021749713965125293
aF-0.1097243340094855
aF0.09442768217355402
aF-0.053019073596421294
aF-0.043972749608126194
aF0.09576796831283943
aa(lp274
(lp275
F0.015267207777813614
aF-0.03499203346704952
aF0.02094202835565507
aF-0.026130253129059013
aF0.016534583567957176
aF0.01743889429199101
aaaF0.056402113288640976
a(lp276
F1.2120901346206665
aF1.189119815826416
aag9
(g13
S'r\xc5"J\xb8\x0e\xd3\xbf'
p277
tp278
Rp279
aa(lp280
F3.1509599685668945
a(lp281
F-1.2269442717181605
aF-1.7353375593768519
aF-1.423769776021139
aF-1.988769833241598
aF1.7320208549499512
aF0.2911376655101776
aa(lp282
F0.10440244747247233
aF-0.11675783942190189
aF0.03169876530090657
aF-0.15396097274554676
aF0.004128863378669259
aF0.026344099323399643
aa(lp283
(lp284
F0.014871868574626319
aF-0.03353302105489122
aF0.018579543314336342
aF-0.022560060693802328
aF0.01622727085936729
aF0.017407089412344028
aaaF0.056394778192043304
a(lp285
F1.212673544883728
aF1.190584421157837
aag9
(g13
S'%Z\xd3\xc0\xc0\x0f\xd2\xbf'
p286
tp287
Rp288
aa(lp289
F3.252437114715576
a(lp290
F-1.2222631613360804
aF-1.742469612752096
aF-1.4159811178790491
aF-1.9978817144977015
aF1.7348588705062866
aF0.29430410265922546
aa(lp291
F0.06106964281302778
aF-0.06970306617078695
aF0.17130478608510621
aF-0.11781355156783786
aF-0.05578909529146116
aF0.02432246011378981
aa(lp292
(lp293
F0.014404513232299663
aF-0.032104382203326995
aF0.016206416228094107
aF-0.019769681522915198
aF0.01600948072476896
aF0.017029484668914626
aaaF0.05639490857720375
a(lp294
F1.2135258913040161
aF1.1922249794006348
aag9
(g13
S'Y\x82\x02W\xa5\x15\xd1\xbf'
p295
tp296
Rp297
aa(lp298
F3.35379695892334
a(lp299
F-1.217797581349508
aF-1.7491219679461878
aF-1.4091742674456995
aF-2.0054944197284144
aF1.7375171184539795
aF0.2974821627140045
aa(lp300
F0.03399728435546838
aF-0.15505614899588333
aF0.02148639879621589
aF-0.09210213150328694
aF0.036649996566918634
aF0.006193902262557279
aa(lp301
(lp302
F0.014008763829335
aF-0.030644234684087758
aF0.01385088900079864
aF-0.016885046122190245
aF0.015668933991411706
aF0.016715763670231643
aaaF0.05639515817165375
a(lp303
F1.2144631147384644
aF1.1939034461975098
aag9
(g13
S'\x91\xd1\xef\xec;7\xd0\xbf'
p304
tp305
Rp306
aa(lp307
F3.455009937286377
a(lp308
F-1.2142661253558558
aF-1.7555831114398401
aF-1.402247730885641
aF-2.012256447468893
aF1.74022376537323
aF0.3007437586784363
aa(lp309
F-0.01949782258292282
aF-0.10661938952491531
aF0.04176619214378552
aF-0.114894447641441
aF-0.02944682338714885
aF-0.052350956788797046
aa(lp310
(lp311
F0.013441521460209998
aF-0.029385552432734174
aF0.011676045915613269
aF-0.015618450858450698
aF0.015693062925534892
aF0.015980445783094568
aaaF0.05639607459306717
a(lp312
F1.2164758443832397
aF1.196336030960083
aag9
(g13
S'\n\xbd(\xcc\xaa\xc9\xce\xbf'
p313
tp314
Rp315
aa(lp316
F3.5584969520568848
a(lp317
F-1.2111895720111292
aF-1.7614319960223597
aF-1.3965314070331019
aF-2.018346611653463
aF1.7425347566604614
aF0.30364617705345154
aa(lp318
F0.06433949682961343
aF-0.013974345226815142
aF0.049753472110221034
aF-0.07974253373134937
aF-0.04326774477907344
aF0.11779912531126002
aa(lp319
(lp320
F0.013011477535312389
aF-0.028361430327013038
aF0.010143386948825224
aF-0.014653332842422687
aF0.01582077983993528
aF0.01545768552325882
aaaF0.05640123412013054
a(lp321
F1.2185415029525757
aF1.1988906860351562
aag9
(g13
S'\x04\xfaem\xefY\xcd\xbf'
p322
tp323
Rp324
aa(lp325
F3.658950090408325
a(lp326
F-1.207801644002096
aF-1.7675569693194788
aF-1.3904078642474573
aF-2.0243175665484827
aF1.7449297904968262
aF0.306824266910553
aa(lp327
F0.03800972680088664
aF-0.048294845649915805
aF0.012873650749454811
aF-0.03658376904146331
aF-0.059623587992942206
aF0.0007493509910224926
aa(lp328
(lp329
F0.012609384593026149
aF-0.02715643283174963
aF0.008379444213255698
aF-0.013265335142466817
aF0.015768773398494404
aF0.014972228242358986
aaaF0.05639541521668434
a(lp330
F1.2206279039382935
aF1.201561450958252
aag9
(g13
S'Q\xedM\x10H\xdb\xcb\xbf'
p331
tp332
Rp333
aa(lp334
F3.7600979804992676
a(lp335
F-1.2047846953021448
aF-1.7732027212726038
aF-1.3851712385760706
aF-2.0301206747638147
aF1.7473127841949463
aF0.3097626268863678
aa(lp336
F0.02250369969812971
aF0.02742119008122404
aF0.1416867221848011
aF-0.07165290092768961
aF0.08223827399811694
aF0.013485947842895954
aa(lp337
(lp338
F0.012216939882549979
aF-0.026147557626992144
aF0.007051260218626368
aF-0.012571594886535312
aF0.015882185834003623
aF0.014409302783651472
aaaF0.056393079459667206
a(lp339
F1.22295343875885
aF1.2044817209243774
aag9
(g13
S'\t\x88\x7f\x1d0}\xca\xbf'
p340
tp341
Rp342
aa(lp343
F3.862964153289795
a(lp344
F-1.201935116444723
aF-1.7784770170794886
aF-1.3800299803363245
aF-2.03555137315859
aF1.749180793762207
aF0.3122931718826294
aa(lp345
F0.07063570938528918
aF-0.0865878332952834
aF0.050557552993307796
aF-0.07743456976042525
aF0.02015184149881078
aF0.031806240512188146
aa(lp346
(lp347
F0.011991351516274678
aF-0.025201210795375503
aF0.006114647152606371
aF-0.011425560646477881
aF0.01577989089547227
aF0.014139310857740362
aaaF0.05639300495386124
a(lp348
F1.2246896028518677
aF1.2069270610809326
aag9
(g13
S'\tr\xfa>\x7f4\xc9\xbf'
p349
tp350
Rp351
aa(lp352
F3.964385986328125
a(lp353
F-1.198798958455221
aF-1.7834389845477503
aF-1.3752720991717737
aF-2.0406349341021937
aF1.7506294250488281
aF0.31418782472610474
aa(lp354
F0.09268900375278863
aF-0.06793687584749888
aF0.03475587330444563
aF-0.09900444282299078
aF-0.01009371842754479
aF0.10205823832320941
aa(lp355
(lp356
F0.011967787873949436
aF-0.02411889499095376
aF0.005192260413364074
aF-0.008805919189522702
aF0.01512591922856793
aF0.014207015787390009
aaaF0.056396279484033585
a(lp357
F1.2249199151992798
aF1.2080302238464355
aag9
(g13
S'mt\xeeR\x17\x02\xc8\xbf'
p358
tp359
Rp360
aa(lp361
F4.067317962646484
a(lp362
F-1.195242706929342
aF-1.7884734312640589
aF-1.3702505270587366
aF-2.04594594637026
aF1.7520548105239868
aF0.3166700303554535
aa(lp363
F0.0029263662583765837
aF-0.04216828712168943
aF0.03832158664499499
aF-0.026859975352450674
aF0.04381538377153724
aF0.004532579643429209
aa(lp364
(lp365
F0.011996785546400839
aF-0.02298195059353487
aF0.004537319640428192
aF-0.006215191759002002
aF0.014424598347795435
aF0.014416165034973229
aaaF0.05639355629682541
a(lp366
F1.2255064249038696
aF1.2095952033996582
aag9
(g13
S'\xc4\xc5\x8e\xec\x88\xbd\xc6\xbf'
p367
tp368
Rp369
aa(lp370
F4.167799949645996
a(lp371
F-1.1920464674579065
aF-1.7934959570514124
aF-1.3651459852801722
aF-2.0505617300616663
aF1.753515362739563
aF0.3196803331375122
aa(lp372
F0.01577884061256605
aF0.005648903096188804
aF-0.019872267639808247
aF-0.08312910754362854
aF-0.0015113667888520012
aF0.048993276603088234
aa(lp373
(lp374
F0.011899892130480025
aF-0.021952020335997188
aF0.004095796488980444
aF-0.004733349020120754
aF0.014022143094297248
aF0.014410237758499946
aaaF0.05639812722802162
a(lp375
F1.2272502183914185
aF1.2122411727905273
aag9
(g13
S']\xea\r\xe1\xc2\x83\xc5\xbf'
p376
tp377
Rp378
aa(lp379
F4.268795013427734
a(lp380
F-1.1900227705584925
aF-1.7976916472064417
aF-1.3610590139972132
aF-2.0542543570147913
aF1.754701018333435
aF0.3225228488445282
aa(lp381
F0.10228207916400424
aF-0.09385458505776363
aF0.03567477267513673
aF0.011603581984690858
aF0.0887606982510475
aF-0.02651351121396712
aa(lp382
(lp383
F0.011728539339242679
aF-0.021374552353855582
aF0.004470882515196017
aF-0.005141848783044764
aF0.014151172627716133
aF0.014231474121085406
aaaF0.056386176496744156
a(lp384
F1.2301701307296753
aF1.2159454822540283
aag9
(g13
S'\xc8\xc6\xb1\xbb;\x88\xc4\xbf'
p385
tp386
Rp387
aa(lp388
F4.3704259395599365
a(lp389
F-1.1881077925311487
aF-1.8017786184894007
aF-1.3571403662311
aF-2.058234993611471
aF1.7563773393630981
aF0.3255327641963959
aa(lp390
F0.024484213290108282
aF0.007182585718716293
aF0.009905401617378212
aF-0.005644659343424244
aF0.03041441595621253
aF0.02556816165178011
aa(lp391
(lp392
F0.011409003303909235
aF-0.020846169569199626
aF0.004765285816093475
aF-0.0064884654064060725
aF0.014520417792173763
aF0.013692267429103086
aaaF0.05639292299747467
a(lp393
F1.2337874174118042
aF1.2203688621520996
aag9
(g13
S'\xdc\xa3\x92\x16\x80\x8a\xc3\xbf'
p394
tp395
Rp396
aa(lp397
F4.471809148788452
a(lp398
F-1.1859882513629358
aF-1.8062499205218714
aF-1.3537610212909144
aF-2.0617478529559534
aF1.758065938949585
aF0.3277992606163025
aa(lp399
F-0.008526546264029624
aF-0.052776107419470294
aF-0.21979591116016417
aF0.2072223131003388
aF0.07273019745664301
aF-0.08967584258714995
aa(lp400
(lp401
F0.011154735948190072
aF-0.020028218493587033
aF0.004500721348782806
aF-0.006430238191743431
aF0.01438126257641888
aF0.013228152357546348
aaaF0.05639762058854103
a(lp402
F1.2360560894012451
aF1.2235164642333984
aag9
(g13
S'\xd5\x8bM\xee\xfc\n\xe0\xbf'
p403
tp404
Rp405
aa(lp406
F4.574838161468506
a(lp407
F-1.1840127150165003
aF-1.8117879072772425
aF-1.354755703602926
aF-2.060356918965475
aF1.7598018646240234
aF0.329622358083725
aa(lp408
F-0.018720440425954006
aF-0.14820094335032485
aF-0.08026340314244246
aF0.2155590495381612
aF0.09476533963356372
aF0.00023295412546128942
aa(lp409
(lp410
F0.010887244791800074
aF-0.01865784606492166
aF0.0032071393827204525
aF-0.00474092327286643
aF0.013745084858645031
aF0.012809180511311608
aaaF0.0563909076154232
a(lp411
F1.237996220588684
aF1.2265093326568604
aag9
(g13
S'#\xe2\xb5.?\xd9\xdf\xbf'
p412
tp413
Rp414
aa(lp415
F4.676629066467285
a(lp416
F-1.182300869618551
aF-1.8174336592303675
aF-1.3595731894122522
aF-2.0549500624286097
aF1.7612028121948242
aF0.33089345693588257
aa(lp417
F0.0001194923777731588
aF-0.09359855724057292
aF-0.10633577571152816
aF0.09115714797696274
aF0.07332406640782015
aF-0.0021271109140945828
aa(lp418
(lp419
F0.010685804487699225
aF-0.01705586412796673
aF0.0015557395635838124
aF-0.0019179029361906994
aF0.012732334471326198
aF0.012572753702162754
aaaF0.056393254548311234
a(lp420
F1.2393101453781128
aF1.2289527654647827
aag9
(g13
S'\xbe\xb7N\xa2\xc6H\xdf\xbf'
p421
tp422
Rp423
aa(lp424
F4.777683973312378
a(lp425
F-1.1804211775409144
aF-1.8244579474078577
aF-1.3688491026507776
aF-2.0448554197894495
aF1.762651801109314
aF0.33193719387054443
aa(lp426
F0.011959894061280143
aF-0.07928186634189076
aF-0.03147939208633406
aF0.16538164963096258
aF-0.008238586490886277
aF-0.030284539421144688
aa(lp427
(lp428
F0.010487815409952528
aF-0.014858074198968568
aF-0.0008032674934273156
aF0.0023406524429054236
aF0.011177301214493887
aF0.012419816809151094
aaaF0.05638904497027397
a(lp429
F1.2403064966201782
aF1.2313870191574097
aag9
(g13
S"\n3'\x95ZN\xde\xbf"
p430
tp431
Rp432
aa(lp433
F4.882287979125977
a(lp434
F-1.1782425085650843
aF-1.8312066237079065
aF-1.3775489966021937
aF-2.0346043745623987
aF1.7637652158737183
aF0.33307644724845886
aa(lp435
F0.12266681315426234
aF-0.006143863983598147
aF-0.1295463384887845
aF0.20940271108353295
aF0.06342444932157287
aF-0.04052080789898858
aa(lp436
(lp437
F0.010334737393321157
aF-0.012673414512069088
aF-0.0030322875421516654
aF0.00685287333407416
aF0.009454037824692544
aF0.012401485617847322
aaaF0.056388482451438904
a(lp438
F1.24065363407135
aF1.2331206798553467
aag9
(g13
S'\x18\xad\x95\x0b\x94X\xdd\xbf'
p439
tp440
Rp441
aa(lp442
F4.993014097213745
a(lp443
F-1.1759312788592737
aF-1.8380268255816858
aF-1.3868010679828089
aF-2.023693863545553
aF1.7646992206573486
aF0.3346475064754486
aa(lp444
F-0.029000944786980412
aF-0.050951999030118524
aF-0.12864062502667117
aF0.14948396992686658
aF0.00575262469402216
aF-0.08076265864153775
aa(lp445
(lp446
F0.010150344907049575
aF-0.01052989825961135
aF-0.0045807011589736775
aF0.010582635946610049
aF0.007776710844952618
aF0.012364229320723997
aaaF0.05639360845088959
a(lp447
F1.2414745092391968
aF1.235539436340332
aag9
(g13
S'\xe1l\xf6\x08\xffT\xdc\xbf'
p448
tp449
Rp450
aa(lp451
F5.096174955368042
a(lp452
F-1.1738365332232874
aF-1.8439963499652308
aF-1.395740811024801
aF-2.0136712233172815
aF1.7655973434448242
aF0.33596688508987427
aa(lp453
F-0.01888394067370796
aF0.0033698663474695523
aF-0.052669108907584
aF0.1471385087401203
aF0.07000021144496182
aF0.07289671072724155
aa(lp454
(lp455
F0.009935455161029852
aF-0.008641961719932733
aF-0.005762677326402193
aF0.013445504752243402
aF0.006301954884242882
aF0.012215655198867161
aaaF0.05639604479074478
a(lp456
F1.242087960243225
aF1.237600564956665
aag9
(g13
S'N0\xf0`id\xdb\xbf'
p457
tp458
Rp459
aa(lp460
F5.2027740478515625
a(lp461
F-1.1716573874102991
aF-1.8491390387164515
aF-1.404428784047262
aF-2.003516499196188
aF1.7668309211730957
aF0.3372859060764313
aa(lp462
F-0.0006398751952062885
aF-0.06450688203186007
aF-0.12293456336378972
aF0.2688977314388529
aF-0.006029472114901631
aF0.06359617525868441
aa(lp463
(lp464
F0.00961480770395932
aF-0.006875257247400184
aF-0.007719734688803618
aF0.016116236614247163
aF0.0050738687459878
aF0.011824503594344286
aaaF0.0563962496817112
a(lp465
F1.2423548698425293
aF1.238983154296875
aag9
(g13
S'wr\xb6\xf6Yx\xda\xbf'
p466
tp467
Rp468
aa(lp469
F5.303164005279541
a(lp470
F-1.1696937719928187
aF-1.85417348543276
aF-1.413008991871969
aF-1.9933250586139124
aF1.7678724527359009
aF0.3385933041572571
aa(lp471
F-0.04794715361813236
aF-0.05995080319255012
aF-0.13441048349440343
aF0.18962379994071676
aF0.021230677085546625
aF0.003702728714135699
aa(lp472
(lp473
F0.009277009965895519
aF-0.0052426535142485005
aF-0.009264010652683327
aF0.018141146786968113
aF0.0039737516074792555
aF0.011403122370031469
aaaF0.056397467851638794
a(lp474
F1.2428048849105835
aF1.2405787706375122
aag9
(g13
S'\xda\x15\xf3Z\xcf\x8d\xd9\xbf'
p475
tp476
Rp477
aa(lp478
F5.403780937194824
a(lp479
F-1.168173615132467
aF-1.858800236378805
aF-1.42102557817568
aF-1.9841178099261683
aF1.7685551643371582
aF0.33961233496665955
aa(lp480
F0.030286841052116365
aF-0.08133513267527484
aF-0.1240304897621367
aF0.14393315877482526
aF-0.004311248092804575
aF0.0023198271231286323
aa(lp481
(lp482
F0.008979597197448402
aF-0.0038593427737657177
aF-0.009996685754707984
aF0.019394862681980343
aF0.0029954809039158276
aF0.011046946784986914
aaaF0.0563928484916687
a(lp483
F1.2433182001113892
aF1.2422313690185547
aag9
(g13
S'\xe3\xafN?\xd4\xb7\xd8\xbf'
p484
tp485
Rp486
aa(lp487
F5.507791042327881
a(lp488
F-1.1662939230548304
aF-1.8632591406451624
aF-1.429737393056051
aF-1.9740713278399866
aF1.768890380859375
aF0.3404396176338196
aa(lp489
F-0.03458747203191817
aF-0.06627537773800114
aF-0.08499757515076764
aF0.21612204528701112
aF-0.03233016225320885
aF0.011957196173123508
aa(lp490
(lp491
F0.008816132861990714
aF-0.002293879170774412
aF-0.010869385048914956
aF0.021809372879051707
aF0.0015864402328589202
aF0.011024376445297237
aaaF0.056394271552562714
a(lp492
F1.2427724599838257
aF1.2426477670669556
aag9
(g13
S'\\5\xad2\xb6\xd1\xd7\xbf'
p493
tp494
Rp495
aa(lp496
F5.608365058898926
a(lp497
F-1.1648090521441858
aF-1.8677309195147913
aF-1.4380658308612269
aF-1.9642155806170862
aF1.7688188552856445
aF0.34126728773117065
aa(lp498
F-0.012363352685762153
aF-0.08937829494396207
aF-0.0994690733748712
aF0.14353080076116106
aF-0.0026411194901670406
aF0.04641376305946435
aa(lp499
(lp500
F0.008650820073395465
aF-0.0008160831353798521
aF-0.011024586035856042
aF0.023426027650449942
aF0.00026153035043674716
aF0.011031601340611175
aaaF0.05639510974287987
a(lp501
F1.2426477670669556
aF1.2435967922210693
aag9
(g13
S'\xf9\x99\xfeb\x0c\xf2\xd6\xbf'
p502
tp503
Rp504
aa(lp505
F5.713978052139282
a(lp506
F-1.1634200255023401
aF-1.8723095099078577
aF-1.4459508101092737
aF-1.9542048613177698
aF1.768830418586731
aF0.3421069383621216
aa(lp507
F0.07877386516058989
aF-0.04691281384373881
aF-0.10072594980142538
aF0.16146094705707864
aF0.027749429776551243
aF-0.02934465889837836
aa(lp508
(lp509
F0.008413552844047427
aF0.0006012121326344057
aF-0.011442171091971636
aF0.02479541592922086
aF-0.0009158729625721617
aF0.01089430889573897
aaaF0.05638863891363144
a(lp510
F1.2425893545150757
aF1.244532823562622
aag9
(g13
S'\xe7H\xed\x81\xec\x13\xd6\xbf'
p511
tp512
Rp513
aa(lp514
F5.816581964492798
a(lp515
F-1.1615284124957483
aF-1.876840893422262
aF-1.4537032286273401
aF-1.944145981465475
aF1.7688188552856445
aF0.34367799758911133
aa(lp516
F0.030564672488093015
aF-0.04540754129851789
aF-0.2214458959500277
aF0.21985625841711176
aF0.06970807901434471
aF-0.03289141770127401
aa(lp517
(lp518
F0.00810236497791677
aF0.002141380607015254
aF-0.01143395783615406
aF0.02545001877877807
aF-0.0021023648458467162
aF0.01066350363547296
aaaF0.056398048996925354
a(lp519
F1.2429393529891968
aF1.2461025714874268
aag9
(g13
S'\xf4,kN\xc35\xd5\xbf'
p520
tp521
Rp522
aa(lp523
F5.920907020568848
a(lp524
F-1.1599720160113733
aF-1.8814800421344202
aF-1.4611204306231897
aF-1.9352014700519007
aF1.7688543796539307
aF0.3452730178833008
aa(lp525
F-0.10350158184196351
aF-0.08971365159843459
aF-0.01856759121859039
aF0.18030932842921088
aF-0.047244711105872944
aF0.010548068367686106
aa(lp526
(lp527
F0.0076543971724083336
aF0.00360273699817895
aF-0.010557874493566153
aF0.024518290338380808
aF-0.0030781913366483976
aF0.010151739623201983
aaaF0.05639386922121048
a(lp528
F1.2440311908721924
aF1.2487095594406128
aag9
(g13
S'd(\xac\xe7\x10i\xd4\xbf'
p529
tp530
Rp531
aa(lp532
F6.023833990097046
a(lp533
F-1.1580084005938929
aF-1.8868497053729456
aF-1.469065014516012
aF-1.9246271292315882
aF1.7690941095352173
aF0.34678414463996887
aa(lp534
F0.03359638789373358
aF-0.08027896196346734
aF-0.07137593616360234
aF0.03468461723954784
aF0.04760358020204013
aF-0.009314008952109593
aa(lp535
(lp536
F0.007166040699267077
aF0.005323193954117427
aF-0.010730070660014033
aF0.024540765993237786
aF-0.004231269821285817
aF0.009585798281088288
aaaF0.05639003589749336
a(lp537
F1.2443482875823975
aF1.2503306865692139
aag9
(g13
S'\xba\x03\xd1\xb9\x11\x7f\xd3\xbf'
p538
tp539
Rp540
aa(lp541
F6.128492116928101
a(lp542
F-1.1562007109271448
aF-1.8912013212787073
aF-1.476313892995016
aF-1.9150593916522425
aF1.7690701484680176
aF0.34783950448036194
aa(lp543
F-0.025291892865491383
aF0.019124920510869274
aF-0.13853310295527124
aF0.12007534623239036
aF-0.09196355873490658
aF0.04786003329991226
aa(lp544
(lp545
F0.0068558184691587965
aF0.006859347840592142
aF-0.01109041958242113
aF0.025482777062129185
aF-0.005482757972039704
aF0.0093626272113553
aaaF0.056401047855615616
a(lp546
F1.243884801864624
aF1.250718116760254
aag9
(g13
S'\x02A\xcbs\x8e\xad\xd2\xbf'
p547
tp548
Rp549
aa(lp550
F6.228554964065552
a(lp551
F-1.1551950613604944
aF-1.8949416319476526
aF-1.4829400221454065
aF-1.90684682527651
aF1.769178032875061
aF0.34824734926223755
aa(lp552
F0.04946122680788541
aF-0.04392769286996869
aF-0.17765009086120448
aF0.11656906820473363
aF-0.061010727542394616
aF-0.05711299412785659
aa(lp553
(lp554
F0.006547962430485992
aF0.008023985219397373
aF-0.011449043219855792
aF0.025885965909998664
aF-0.006333556847832054
aF0.009030970410948315
aaaF0.05639345571398735
a(lp555
F1.2435935735702515
aF1.2510907649993896
aag9
(g13
S'fm\xad\xa5\xe7\xf6\xd1\xbf'
p556
tp557
Rp558
aa(lp559
F6.331303119659424
a(lp560
F-1.154416863118307
aF-1.898465935383932
aF-1.489913288746969
aF-1.8977587858783167
aF1.7691899538040161
aF0.3488229811191559
aa(lp561
F-0.015811649981176807
aF-0.0661424313034662
aF-0.053553673239337185
aF0.12524884708047895
aF0.039185194932831055
aF-0.004575908776111319
aa(lp562
(lp563
F0.006191541106085175
aF0.009066506963969474
aF-0.011765544322991909
aF0.0257421478808509
aF-0.0069431044788466605
aF0.008585448772878125
aaaF0.05639054253697395
a(lp564
F1.2437103986740112
aF1.2519330978393555
aag9
(g13
S'b\x161\xa3\xd12\xd1\xbf'
p565
tp566
Rp567
aa(lp568
F6.434296131134033
a(lp569
F-1.1535185019122522
aF-1.9013670126544397
aF-1.496479336415426
aF-1.889090363179342
aF1.7691899538040161
aF0.34921881556510925
aa(lp570
F-0.03773261091311886
aF-0.07807631940278714
aF-0.10039847263385532
aF0.08910313334028737
aF0.06602418600156418
aF0.030896855763199622
aa(lp571
(lp572
F0.0059655679885536415
aF0.009979404798383459
aF-0.012510438830834539
aF0.02651472902469003
aF-0.007599071979225504
aF0.00837145283752197
aaaF0.05639493465423584
a(lp573
F1.243219256401062
aF1.2518075704574585
aag9
(g13
S'\xd1\xa6\x10\x0c\x8dz\xd0\xbf'
p574
tp575
Rp576
aa(lp577
F6.536484956741333
a(lp578
F-1.1528599897967737
aF-1.90410024324526
aF-1.5023024717914026
aF-1.8806141058551233
aF1.769178032875061
aF0.34962666034698486
aa(lp579
F0.03277300025669681
aF-0.0850628141824706
aF-0.058349519127591704
aF0.13992430026626976
aF-0.033493196813767605
aF-0.07302864354437014
aa(lp580
(lp581
F0.0057301992436516146
aF0.01068805268076019
aF-0.013394070441796625
aF0.027037100331891818
aF-0.007992608695721043
aF0.008088056487769234
aaaF0.05638686567544937
a(lp582
F1.2429380416870117
aF1.251840353012085
aag9
(g13
S'\xc3_bX\x13\x98\xcf\xbf'
p583
tp584
Rp585
aa(lp586
F6.6390221118927
a(lp587
F-1.1518304983722132
aF-1.9067252318011683
aF-1.5081256071673792
aF-1.8722098509417933
aF1.7689622640609741
aF0.34997421503067017
aa(lp588
F-0.015775833364386455
aF-0.009113375636074162
aF0.015245164419690427
aF0.12093190774055113
aF-0.09852756164608173
aF0.0639511344654913
aa(lp589
(lp590
F0.005632686556719826
aF0.011548240792143123
aF-0.014392569165919272
aF0.0286820906189425
aF-0.008782740537989185
aF0.00814013732360841
aaaF0.05639292299747467
a(lp591
F1.2419577836990356
aF1.2509558200836182
aag9
(g13
S'\x858\xe9\xab\xde=\xce\xbf'
p592
tp593
Rp594
aa(lp595
F6.741140127182007
a(lp596
F-1.1510046164142054
aF-1.9088104406939905
aF-1.5131219069110315
aF-1.8642609755145472
aF1.7687828540802002
aF0.35037004947662354
aa(lp597
F0.09596533606473404
aF-0.100642916495242
aF-0.024160343667810315
aF0.14463949304078766
aF-0.0622221516232606
aF-0.012808906577687875
aa(lp598
(lp599
F0.0055554224985334254
aF0.01211923597734257
aF-0.015584718197479303
aF0.03017767921035077
aF-0.009266351048554194
aF0.008156645645927533
aaaF0.056385282427072525
a(lp600
F1.2411712408065796
aF1.2501575946807861
aag9
(g13
S'\xbd\x8a\xcc1\xa6\x02\xcd\xbf'
p601
tp602
Rp603
aa(lp604
F6.843335151672363
a(lp605
F-1.150477711354391
aF-1.9108966032611292
aF-1.5185135046588343
aF-1.855976406727926
aF1.7686030864715576
aF0.3511258065700531
aa(lp606
F-0.008384947262748417
aF-0.001374389109245977
aF-0.01942129240171634
aF0.08563726235050154
aF-0.029646456614212828
aF0.03570766101211896
aa(lp607
(lp608
F0.005307050062834586
aF0.012629512732706245
aF-0.016124574231188994
aF0.029993207251947557
aF-0.00940116636460977
aF0.007819818443869067
aaaF0.0563928484916687
a(lp609
F1.2413960695266724
aF1.2507810592651367
aag9
(g13
S'\xb9\xf2`\x0f\xe7\xb7\xcb\xbf'
p610
tp611
Rp612
aa(lp613
F6.944061040878296
a(lp614
F-1.1500347296344202
aF-1.9129341284381312
aF-1.5235579649554651
aF-1.8477752844439905
aF1.7685312032699585
aF0.3519171476364136
aa(lp615
F0.05970743764123652
aF0.05743812078926157
aF-0.046531998659028614
aF0.06030715215159676
aF-0.0357856148092925
aF0.013228722664628934
aa(lp616
(lp617
F0.005028162760540273
aF0.013004234410112434
aF-0.016797079149209384
aF0.029551376619093326
aF-0.009334245640992805
aF0.007373957726056563
aaaF0.05639175698161125
a(lp618
F1.2417644262313843
aF1.2515382766723633
aag9
(g13
S'\xf4\xc8i\xa5\xb3u\xca\xbf'
p619
tp620
Rp621
aa(lp622
F7.044710159301758
a(lp623
F-1.1497710386859339
aF-1.9146125952350062
aF-1.5281346479998987
aF-1.8402822653399866
aF1.768483281135559
aF0.35260024666786194
aa(lp624
F-0.0005078923637763639
aF-0.04795177386970883
aF-0.013893883800385996
aF-0.04878438574214619
aF0.03502510748565216
aF-0.036771118782560834
aa(lp625
(lp626
F0.004772653269796706
aF0.013231257801438528
aF-0.017441561768359405
aF0.02901344781401386
aF-0.00914263101555836
aF0.006930006564614909
aaaF0.05639079213142395
a(lp627
F1.2421953678131104
aF1.252304196357727
aag9
(g13
S'\x00\x1f\xed0\xc4Q\xc9\xbf'
p628
tp629
Rp630
aa(lp631
F7.145395994186401
a(lp632
F-1.149316136037008
aF-1.9168184439288538
aF-1.5328548590289515
aF-1.8322132269488733
aF1.76829195022583
aF0.35327211022377014
aa(lp633
F0.05236290151764476
aF0.09007789428325773
aF0.026536915483996837
aF0.14605054937698697
aF0.05933248133651547
aF-0.0458094400055834
aa(lp634
(lp635
F0.004540749597571821
aF0.013636878331254699
aF-0.018161294950989473
aF0.028942405477815684
aF-0.009190134280836527
aF0.006592212527849195
aaaF0.056386783719062805
a(lp636
F1.2423135042190552
aF1.2527306079864502
aag9
(g13
S'%\xcf\x96\xde\x94\x17\xc8\xbf'
p637
tp638
Rp639
aa(lp640
F7.247251987457275
a(lp641
F-1.148597542439596
aF-1.9189756552325647
aF-1.5373719374286097
aF-1.824348274861471
aF1.7680282592773438
aF0.3535960614681244
aa(lp642
F0.00016462525546150943
aF0.0004482832721915374
aF-0.01594838056869503
aF0.07391184790172214
aF-0.03822718868535916
aF-0.048872668175298534
aa(lp643
(lp644
F0.004492221674739292
aF0.014096169778357261
aF-0.019403464580884426
aF0.030542583564050388
aF-0.009617343850522446
aF0.006639653906545331
aaaF0.05639020726084709
a(lp645
F1.2414723634719849
aF1.2517929077148438
aag9
(g13
S'[\x85r\x83\xf5\xe6\xc6\xbf'
p646
tp647
Rp648
aa(lp649
F7.348665952682495
a(lp650
F-1.1476400534259241
aF-1.9206064383136194
aF-1.5410855452166956
aF-1.8175743261920374
aF1.767693042755127
aF0.3538237512111664
aa(lp651
F-0.07011277084693528
aF0.03441709028801352
aF0.04945601859270937
aF0.08383835264664855
aF0.022264425118422405
aF0.008874124585796127
aa(lp652
(lp653
F0.004600040120586973
aF0.014529226333951423
aF-0.02085765745757026
aF0.033219387570190974
aF-0.010287218601176606
aF0.007004440454245597
aaaF0.056393254548311234
a(lp654
F1.2400822639465332
aF1.2500301599502563
aag9
(g13
S'\xfe\r\xb0E\xe6\xe5\xc5\xbf'
p655
tp656
Rp657
aa(lp658
F7.449746131896973
a(lp659
F-1.1465743223773401
aF-1.9218047300921839
aF-1.5448721090899866
aF-1.8107884565936487
aF1.7673579454421997
aF0.3540394902229309
aa(lp660
F-0.0062295215472784275
aF0.07372683194042143
aF-0.12530350348691066
aF0.04128019496334612
aF0.03749846568151654
aF0.011913496232274178
aa(lp661
(lp662
F0.0047847219769965605
aF0.014890434070818526
aF-0.022534048666887588
aF0.036476012090217835
aF-0.011010602799192113
aF0.0075099300820476046
aaaF0.05640179663896561
a(lp663
F1.2384617328643799
aF1.2478811740875244
aag9
(g13
S'\xb6\x9d~\x9d\xb4\xe7\xc4\xbf'
p664
tp665
Rp666
aa(lp667
F7.551844120025635
a(lp668
F-1.1462629477130335
aF-1.921924893056051
aF-1.548741642628805
aF-1.8038700262652796
aF1.7671781778335571
aF0.35395559668540955
aa(lp669
F-0.018201821216625686
aF-0.011504886040861532
aF-0.05826636687032098
aF0.13403894049157739
aF0.13904127433511385
aF0.07384591493901993
aa(lp670
(lp671
F0.005005087464242835
aF0.014686378725767498
aF-0.0246405449326855
aF0.03964110203109953
aF-0.011183499675175061
aF0.007930132804528254
aaaF0.05639619007706642
a(lp672
F1.23723304271698
aF1.2459628582000732
aag9
(g13
S'\x94\x0f0\xa1\xc9\xef\xc3\xbf'
p673
tp674
Rp675
aa(lp676
F7.652295112609863
a(lp677
F-1.146203343068258
aF-1.9226082007037562
aF-1.552431885396139
aF-1.797659699116842
aF1.7667471170425415
aF0.3539196252822876
aa(lp678
F0.07746120253324415
aF0.09603391703591277
aF-0.13167758551848457
aF0.01863726222480755
aF0.09307116755787546
aF-0.0357416737110481
aa(lp679
(lp680
F0.005110396436101393
aF0.014717317753076834
aF-0.02572832718639222
aF0.041510665590007975
aF-0.011428954853767187
aF0.00820150498447586
aaaF0.0563976876437664
a(lp681
F1.2365869283676147
aF1.2450393438339233
aag9
(g13
S'\x0bCB\x81\xb6Y\xd6\xbf'
p682
tp683
Rp684
aa(lp685
F7.753354072570801
a(lp686
F-1.1457722822772425
aF-1.9225004355060022
aF-1.5574153105365198
aF-1.7911255995379847
aF1.7665553092956543
aF0.3539915382862091
aa(lp687
F0.0226471495851615
aF0.05691296635531996
aF-0.1502264985100416
aF0.06135384258141264
aF0.07530616225882293
aF0.043528808587580875
aa(lp688
(lp689
F0.005265159803757391
aF0.014726134097821215
aF-0.026912608971714377
aF0.04373792547690409
aF-0.011751852141524768
aF0.008561085570327176
aaaF0.056403327733278275
a(lp690
F1.2357028722763062
aF1.2437595129013062
aag9
(g13
S'\x1b\tY\xd9\x83\xfb\xd5\xbf'
p691
tp692
Rp693
aa(lp694
F7.858248949050903
a(lp695
F-1.1445868651019495
aF-1.9207261244403284
aF-1.5635736624347132
aF-1.78514272371401
aF1.7668309211730957
aF0.3551311790943146
aa(lp696
F-0.0622911604035795
aF0.06069110366553159
aF-0.21551617619630548
aF0.027601274429671547
aF0.003830275741058275
aF-0.020236035153587233
aa(lp697
(lp698
F0.005297106622714492
aF0.014657175852978193
aF-0.02739664937835625
aF0.044300338445958785
aF-0.011746721544384723
aF0.008633882400808287
aaaF0.056414902210235596
a(lp699
F1.2355616092681885
aF1.2435002326965332
aag9
(g13
S'\xd9<\xf7\x01\xf9}\xd5\xbf'
p700
tp701
Rp702
aa(lp703
F7.9593400955200195
a(lp704
F-1.1427906195269983
aF-1.9167822043048304
aF-1.570953671132223
aF-1.779435936604635
aF1.7674893140792847
aF0.35752952098846436
aa(lp705
F-0.035118772025962294
aF0.1409792841938708
aF-0.08049120522463013
aF0.05930405040730659
aF0.09968412191629607
aF0.07354023020795113
aa(lp706
(lp707
F0.005201413840012712
aF0.01437118223337272
aF-0.02714222713751847
aF0.04288432757536096
aF-0.011202794997847916
aF0.008385740764686993
aaaF0.056406352669000626
a(lp708
F1.2364692687988281
aF1.2445921897888184
aag9
(g13
S'\x95\xef<\x05f\xda\xd4\xbf'
p709
tp710
Rp711
aa(lp712
F8.062134981155396
a(lp713
F-1.1401928106891077
aF-1.9107406775103968
aF-1.5790284315692347
aF-1.7745683828936976
aF1.768483281135559
aF0.3603360652923584
aa(lp714
F0.11710552907123996
aF0.022949049675462574
aF-0.07404896267503591
aF0.05364559112907574
aF0.08265607158771988
aF0.08395970791331092
aa(lp715
(lp716
F0.005283641232036779
aF0.013915012750382488
aF-0.027201427560295623
aF0.04248685684438374
aF-0.010774602263425212
aF0.008442370962786862
aaaF0.05639315024018288
a(lp717
F1.236873745918274
aF1.2448341846466064
aag9
(g13
S'\xa6\t\xb5]\xb9\x1b\xd4\xbf'
p718
tp719
Rp720
aa(lp721
F8.163939952850342
a(lp722
F-1.13686448732485
aF-1.903320614491598
aF-1.5887325445758265
aF-1.769928280507223
aF1.7697049379348755
aF0.3639339506626129
aa(lp723
F0.052397013120662236
aF0.03023276366189051
aF-0.12099387242811235
aF0.01113893099669606
aF0.0019809185732317935
aF0.022560643387313218
aa(lp724
(lp725
F0.005314216386342685
aF0.013550543729134033
aF-0.026478313924812355
aF0.04101788987296308
aF-0.010301380044178009
aF0.008418314128739326
aaaF0.056397661566734314
a(lp726
F1.237650990486145
aF1.2456512451171875
aag9
(g13
S'C\xe3e\xa9\xfc8\xd3\xbf'
p727
tp728
Rp729
aa(lp730
F8.264601945877075
a(lp731
F-1.1335833708392542
aF-1.8958285490619105
aF-1.5976694265948694
aF-1.7649524847613733
aF1.7701359987258911
aF0.36724385619163513
aa(lp732
F0.03731545572711089
aF0.0321606967725374
aF-0.06380865720542314
aF-0.0075565591029757295
aF-0.009610241009456476
aF0.011432993929919257
aa(lp733
(lp734
F0.005621873516603828
aF0.01328819722001036
aF-0.02608622257453176
aF0.0416932125423708
aF-0.01041371242089497
aF0.009062875100940938
aaaF0.05639466270804405
a(lp735
F1.2375749349594116
aF1.2452694177627563
aag9
(g13
S"{\x91'\xc0.a\xd2\xbf"
p736
tp737
Rp738
aa(lp739
F8.37020206451416
a(lp740
F-1.130698029194967
aF-1.8887084166156214
aF-1.6065705458270472
aF-1.7598932425128382
aF1.7706029415130615
aF0.3701702356338501
aa(lp741
F0.10217192245088236
aF0.07796770347259532
aF-0.09060702322084563
aF0.03690625778395464
aF-0.02441315570051738
aF-0.149544469484291
aa(lp742
(lp743
F0.005920978215967227
aF0.01294127466723691
aF-0.02582734554411611
aF0.042380723847127065
aF-0.010448221524032783
aF0.009656354599722323
aaaF0.05638950318098068
a(lp744
F1.2375028133392334
aF1.2448612451553345
aag9
(g13
S'\xd1\xad\x96\x00f\x8f\xd1\xbf'
p745
tp746
Rp747
aa(lp748
F8.471964120864868
a(lp749
F-1.1281235853778284
aF-1.8818638960467737
aF-1.6156986395465296
aF-1.7547019163714808
aF1.7709262371063232
aF0.3728685677051544
aa(lp750
F0.02494825203941354
aF0.07527417147990527
aF-0.047845823550274766
aF0.07944328472116383
aF-0.015733571250569067
aF-0.0051515801283722636
aa(lp751
(lp752
F0.0062087578714058915
aF0.01262681584520523
aF-0.02531472606308249
aF0.04281725596260572
aF-0.01049595763088035
aF0.010244813289714003
aaaF0.05639338493347168
a(lp753
F1.237541913986206
aF1.2446370124816895
aag9
(g13
S'u\x07Zm\x16\xbf\xd0\xbf'
p754
tp755
Rp756
aa(lp757
F8.575541973114014
a(lp758
F-1.1260760466205042
aF-1.8752825895892542
aF-1.6244800726519983
aF-1.7492464224444788
aF1.7712373733520508
aF0.37531521916389465
aa(lp759
F0.05260665147430495
aF0.10790396344172162
aF-0.025937023009993843
aF-0.019691199097207103
aF0.011335585295073563
aF0.014486486931712676
aa(lp760
(lp761
F0.006457303737098222
aF0.012126321603535467
aF-0.02502689552875489
aF0.0430606119749425
aF-0.010279880698819785
aF0.010706227077932916
aaaF0.05639335513114929
a(lp762
F1.2378300428390503
aF1.2446582317352295
aag9
(g13
S'\x80\xe6\x12\xbd\x07\xef\xcf\xbf'
p763
tp764
Rp765
aa(lp766
F8.677035093307495
a(lp767
F-1.1242921988116663
aF-1.869732681904928
aF-1.6323979536639612
aF-1.7442944685565394
aF1.7717763185501099
aF0.37729412317276
aa(lp768
F0.011590753347063451
aF0.018990500570439113
aF-0.11839340342320931
aF0.031767561589391896
aF0.05762010670786334
aF-0.08828007136128531
aa(lp769
(lp770
F0.006653565529416092
aF0.011621825402332756
aF-0.02509201055670252
aF0.04342409279786041
aF-0.010023961956047652
aF0.011026402794546239
aaaF0.056394319981336594
a(lp771
F1.2379586696624756
aF1.2444825172424316
aag9
(g13
S'd\x01W\xa3\xd5\x8e\xce\xbf'
p772
tp773
Rp774
aa(lp775
F8.777197122573853
a(lp776
F-1.1217778364764612
aF-1.8641465345965784
aF-1.6408074537860315
aF-1.7390316168414515
aF1.77273428440094
aF0.37924903631210327
aa(lp777
F0.08133217969170178
aF0.05863581465590986
aF-0.12231628391611502
aF0.03100166738116248
aF0.052712844605022055
aF-0.024107190281057983
aa(lp778
(lp779
F0.0069383123592770875
aF0.011168656482086413
aF-0.026012525571039044
aF0.04532117862453182
aF-0.010086441306886044
aF0.011512710792630153
aaaF0.056394271552562714
a(lp780
F1.2371582984924316
aF1.243054986000061
aag9
(g13
S'w\xb9\x9f\xd0\xd9\x19\xcd\xbf'
p781
tp782
Rp783
aa(lp784
F8.878632068634033
a(lp785
F-1.1194308439837855
aF-1.8590639273272913
aF-1.6493004004107874
aF-1.7340319792376917
aF1.7739200592041016
aF0.3814796209335327
aa(lp786
F0.013089385692322477
aF0.06580717611200358
aF-0.09443253198509113
aF-0.0007076440198160727
aF0.019800840050258204
aF-0.0834292813089891
aa(lp787
(lp788
F0.006996240096262358
aF0.010759720911254628
aF-0.026266173464831767
aF0.045231241039556495
aF-0.009741076133565087
aF0.011518297332101145
aaaF0.05639471486210823
a(lp789
F1.2372705936431885
aF1.2429478168487549
aag9
(g13
S'\xec\x08\tI\x86\xac\xcb\xbf'
p790
tp791
Rp792
aa(lp793
F8.97962498664856
a(lp794
F-1.1172393004046839
aF-1.8544490973102015
aF-1.6566432158099573
aF-1.7296317259417933
aF1.7752251625061035
aF0.38315853476524353
aa(lp795
F0.0015134570014777998
aF0.07756063893948643
aF-0.09747264505897112
aF0.07754017187245496
aF0.03474900757026554
aF0.052829882358075564
aa(lp796
(lp797
F0.007140762298480892
aF0.01026261889579708
aF-0.02733313808409832
aF0.046482750942390114
aF-0.009553627933947727
aF0.011662416801931278
aaaF0.0563996247947216
a(lp798
F1.2367382049560547
aF1.2419052124023438
aag9
(g13
S'\xfaR\xc9Iul\xca\xbf'
p799
tp800
Rp801
aa(lp802
F9.081979990005493
a(lp803
F-1.1148565451251429
aF-1.8498342672931116
aF-1.6643579641925257
aF-1.725231949483053
aF1.7765542268753052
aF0.38512542843818665
aa(lp804
F0.01480061837673927
aF-0.014067217790190295
aF-0.09405054989039612
aF0.0638786767474048
aF-0.07307605926771527
aF0.06776552118363519
aa(lp805
(lp806
F0.007223327008298725
aF0.009870434505361663
aF-0.027969777104296174
aF0.04702234873936469
aF-0.00933489145225611
aF0.01170109462686498
aaaF0.05639724060893059
a(lp807
F1.2364791631698608
aF1.2413105964660645
aag9
(g13
S'\r\xbfWr_!\xc9\xbf'
p808
tp809
Rp810
aa(lp811
F9.186933994293213
a(lp812
F-1.1127851645099085
aF-1.846034351979391
aF-1.6714728514300745
aF-1.7218506971942347
aF1.7776081562042236
aF0.38721218705177307
aa(lp813
F-0.0012875232558161448
aF0.06071354195899062
aF-0.12622574941466996
aF-0.05048901415868433
aF-0.01964472449997215
aF0.05381864141008297
aa(lp814
(lp815
F0.00714330991123287
aF0.009744766414656825
aF-0.027259419035069895
aF0.04544334472683312
aF-0.008971348501277981
aF0.011475781821803949
aaaF0.05640297755599022
a(lp816
F1.2370734214782715
aF1.2420624494552612
aag9
(g13
S'\x85\xa4\x8eh\x91\xfc\xc7\xbf'
p817
tp818
Rp819
aa(lp820
F9.288515090942383
a(lp821
F-1.1102827231036585
aF-1.8417070547686976
aF-1.679821793233053
aF-1.7183736006366175
aF1.7783983945846558
aF0.38959893584251404
aa(lp822
F0.05670201637276407
aF0.04205282476804154
aF-0.022279519433062264
aF0.06514676374902992
aF0.04026325379589972
aF-0.012408577861698779
aa(lp823
(lp824
F0.007118153046783071
aF0.009913237517206717
aF-0.02568908570607175
aF0.043572213963901006
aF-0.00894875561034692
aF0.011462418547464695
aaaF0.056388840079307556
a(lp825
F1.237618088722229
aF1.2429022789001465
aag9
(g13
S'\x1bWAA\\\xad\xc6\xbf'
p826
tp827
Rp828
aa(lp829
F9.394647121429443
a(lp830
F-1.1076844374286097
aF-1.837811295186178
aF-1.6872246901141565
aF-1.7154362837420862
aF1.7787455320358276
aF0.39186543226242065
aa(lp831
F0.0961358068701817
aF0.038481795584361767
aF-0.012920598625025842
aF-0.03911977704295851
aF-0.01279679882801961
aF-0.003428473117758535
aa(lp832
(lp833
F0.007203853607051981
aF0.010347447143249788
aF-0.023964258079583457
aF0.04246363940542961
aF-0.009414143890126457
aF0.011768801680639903
aaaF0.05638820677995682
a(lp834
F1.2377434968948364
aF1.2432888746261597
aag9
(g13
S'\x1e\xf7X\x0f^\x84\xc5\xbf'
p835
tp836
Rp837
aa(lp838
F9.496690034866333
a(lp839
F-1.1052654425250452
aF-1.8344429175006312
aF-1.694327179585592
aF-1.7129905859576624
aF1.7794522047042847
aF0.39407241344451904
aa(lp840
F-0.023292051895725537
aF0.06533414497752152
aF-0.14963020664953253
aF0.013190004154942574
aF0.022338644581246573
aF-0.0007820898362332039
aa(lp841
(lp842
F0.007133765986683419
aF0.010795416780881861
aF-0.022202557339440647
aF0.0404461512830189
aF-0.0096141219358924
aF0.01171558427619067
aaaF0.05640172213315964
a(lp843
F1.2382885217666626
aF1.2442543506622314
aag9
(g13
S'\x08\x94\xc9\x1b]n\xc4\xbf'
p844
tp845
Rp846
aa(lp847
F9.598088026046753
a(lp848
F-1.1035054365741175
aF-1.8317459265338343
aF-1.6994660536395472
aF-1.7110002676593226
aF1.7800506353378296
aF0.3957153856754303
aa(lp849
F5.7525542588301656e-05
aF0.012362199726189203
aF-0.01422577801514633
aF-0.014325410294344976
aF0.12261129674562476
aF-0.04197475296967055
aa(lp850
(lp851
F0.007106386221653433
aF0.01099054714805473
aF-0.021234565688844503
aF0.03925524130409612
aF-0.009678488875339342
aF0.011690116007866104
aaaF0.05638933554291725
a(lp852
F1.2386471033096313
aF1.2448256015777588
aag9
(g13
S'\xf2\x15\xe7\xd8\x06\xa0\xc3\xbf'
p853
tp854
Rp855
aa(lp856
F9.704283952713013
a(lp857
F-1.101074520741598
aF-1.8271310965167444
aF-1.7073233763324183
aF-1.7076552549945276
aF1.7809487581253052
aF0.39755046367645264
aa(lp858
F-0.0155522529232426
aF0.07654034904508104
aF0.0226379755145113
aF0.004597524057684473
aF-0.03524880376656352
aF-0.05017446565439149
aa(lp859
(lp860
F0.0072712336909588745
aF0.010985105705417648
aF-0.020784146860548972
aF0.03953285007039588
aF-0.009931988868456362
aF0.012020561104089588
aaaF0.056389376521110535
a(lp861
F1.2382827997207642
aF1.244274616241455
aag9
(g13
S'N\x88<\xca7a\xc2\xbf'
p862
tp863
Rp864
aa(lp865
F9.808266162872314
a(lp866
F-1.099039379750387
aF-1.8226717154132288
aF-1.7141988913165491
aF-1.704681698475973
aF1.7816674709320068
aF0.39865338802337646
aa(lp867
F0.011346316135935649
aF0.013882515282683031
aF-0.050806393268319615
aF-0.04435414320937525
aF-0.043736415477394514
aF0.021231504495269254
aa(lp868
(lp869
F0.007628633850271792
aF0.010787145816199138
aF-0.021011027251912045
aF0.041436740487866955
aF-0.010406249407196432
aF0.012713256076467491
aaaF0.05639274790883064
a(lp870
F1.237162470817566
aF1.2426044940948486
aag9
(g13
S'\x91&)k\x9dG\xc1\xbf'
p871
tp872
Rp873
aa(lp874
F9.908879041671753
a(lp875
F-1.0974705854998987
aF-1.8189199606524866
aF-1.7196725050555628
aF-1.702224079762594
aF1.7819187641143799
aF0.3996847867965698
aa(lp876
F-0.013332414548321125
aF0.022777625635686093
aF0.012719913835877034
aF0.020458928140062546
aF-0.020117829343100427
aF0.021000976279319045
aa(lp877
(lp878
F0.007939951640315213
aF0.010700261351123421
aF-0.020845094837626626
aF0.04275918600261406
aF-0.010866244900959384
aF0.013358334782831261
aaaF0.05639023706316948
a(lp879
F1.2364386320114136
aF1.2415289878845215
aag9
(g13
S'\xf1^\xc8Adg\xc0\xbf'
p880
tp881
Rp882
aa(lp883
F10.010097026824951
a(lp884
F-1.095961872731344
aF-1.8146050612079065
aF-1.724990193043844
aF-1.699561897908346
aF1.7818588018417358
aF0.4009802043437958
aa(lp885
F-0.0003715084170132568
aF-0.05756293010101665
aF-0.08793262269177515
aF0.07139431846519587
aF-0.12183012025134446
aF-0.006480947170910516
aa(lp886
(lp887
F0.00828473170353932
aF0.010531350321037124
aF-0.020572429627061118
aF0.044035632348265866
aF-0.011262580124836972
aF0.014086312495491183
aaaF0.05639110133051872
a(lp888
F1.2359150648117065
aF1.2406642436981201
aag9
(g13
S'\xdc\xa12Wd\t\xbf\xbf'
p889
tp890
Rp891
aa(lp892
F10.11213207244873
a(lp893
F-1.0945966879474085
aF-1.8110922018634241
aF-1.7299140135394495
aF-1.6977279821978968
aF1.7818472385406494
aF0.4025512635707855
aa(lp894
F0.042601057400123474
aF0.0655672910598189
aF-0.11503721355126002
aF0.007940293310792736
aF-0.005670551578301042
aF-0.0677102610518151
aa(lp895
(lp896
F0.00839104300783882
aF0.010674088029458993
aF-0.019330608178939664
aF0.043208878597958134
aF-0.011455120458017037
aF0.014367091914084782
aaaF0.05639282241463661
a(lp897
F1.2363399267196655
aF1.2412350177764893
aag9
(g13
S'D\xe1lo_x\xbd\xbf'
p898
tp899
Rp900
aa(lp901
F10.213137149810791
a(lp902
F-1.0934589544879358
aF-1.8081439177142542
aF-1.7340338865863245
aF-1.6962769667254847
aF1.7821344137191772
aF0.40395453572273254
aa(lp903
F0.022740962453579414
aF0.03657967511402652
aF-0.07025473408589246
aF-0.01743727290857013
aF0.05285138594845897
aF-0.05103950799302842
aa(lp904
(lp905
F0.008398450625847527
aF0.010686845856525871
aF-0.01841768853189798
aF0.04207087886511064
aF-0.01135464049784637
aF0.01438884267499429
aaaF0.05639054253697395
a(lp906
F1.236930251121521
aF1.2419869899749756
aag9
(g13
S'\xb6\x8aG\xfcg%\xbc\xbf'
p907
tp908
Rp909
aa(lp910
F10.314587116241455
a(lp911
F-1.0926926771747034
aF-1.8053749243365687
aF-1.7386930624591272
aF-1.6947663466082972
aF1.7827688455581665
aF0.40548962354660034
aa(lp912
F-0.0007921498567156661
aF-0.02840747372067251
aF-0.04281977846355552
aF-0.08531135308788548
aF-0.011685929390694079
aF0.07678064059982997
aa(lp913
(lp914
F0.008161306512556886
aF0.010643200334814647
aF-0.017092405869652064
aF0.03910072003873735
aF-0.010694459760957719
aF0.013862216124581262
aaaF0.05639328062534332
a(lp915
F1.238499641418457
aF1.2440426349639893
aag9
(g13
S'?T\xcd\xa7\x9e\xbc\xba\xbf'
p916
tp917
Rp918
aa(lp919
F10.41487193107605
a(lp920
F-1.0922020117389124
aF-1.803061310444967
aF-1.7428486982928675
aF-1.6928003470050257
aF1.7838226556777954
aF0.40689289569854736
aa(lp921
F0.06763399321267877
aF0.03839339567912527
aF0.012586594202006612
aF-0.005487683346888275
aF-0.0872637503454024
aF-0.022872812724150867
aa(lp922
(lp923
F0.007813320500447288
aF0.010235986541290418
aF-0.016496678065244453
aF0.03595180460106961
aF-0.009488251008783094
aF0.012999687294739323
aaaF0.05638589709997177
a(lp924
F1.240251898765564
aF1.2462108135223389
aag9
(g13
S'Zt\xf6\x98\xee|\xb9\xbf'
p925
tp926
Rp927
aa(lp928
F10.516235113143921
a(lp929
F-1.0918305555926722
aF-1.80101186433901
aF-1.7465136686908167
aF-1.6910017172442835
aF1.7843976020812988
aF0.4081999361515045
aa(lp930
F0.016287402514016183
aF0.10284817579719037
aF-0.02863006606150612
aF0.030048448678484545
aF-0.01760720981269493
aF0.0017696512697659783
aa(lp931
(lp932
F0.007533795933330085
aF0.010031148883253438
aF-0.015605900806054118
aF0.03307798996839882
aF-0.008603132706987036
aF0.01234994826365654
aaaF0.05639074370265007
a(lp933
F1.2419145107269287
aF1.2483389377593994
aag9
(g13
S'\xc8\xba\x14w\xb9m\xb8\xbf'
p934
tp935
Rp936
aa(lp937
F10.617862939834595
a(lp938
F-1.0911358038531702
aF-1.7982304731952112
aF-1.7502506414996546
aF-1.6892994085894983
aF1.785187840461731
aF0.4091953933238983
aa(lp939
F-0.006488262711969936
aF0.0421071881658899
aF-0.03010318277456954
aF-0.07265530441477253
aF0.006091552968065232
aF-0.01076810247865674
aa(lp940
(lp941
F0.007475781253164556
aF0.009540636132108827
aF-0.015618739638959718
aF0.03213369657306396
aF-0.007915726612695784
aF0.01209031604589148
aaaF0.05639132484793663
a(lp942
F1.2425141334533691
aF1.2488895654678345
aag9
(g13
S'\xeb\xa9\xb3\x02\x15>\xb7\xbf'
p943
tp944
Rp945
aa(lp946
F10.719610929489136
a(lp947
F-1.0899627844439905
aF-1.79503041902651
aF-1.7542513052569788
aF-1.6881006399737757
aF1.7864214181900024
aF0.4101428687572479
aa(lp948
F-0.026439700501642537
aF0.009148395167684922
aF-0.03382086987860052
aF-0.023053298643854647
aF0.04511818311970092
aF0.04669133520205481
aa(lp949
(lp950
F0.007489813445086508
aF0.008976095862895724
aF-0.016042064478276195
aF0.03195432193814153
aF-0.0073414456098951225
aF0.011931642086020534
aaaF0.056392472237348557
a(lp951
F1.2425321340560913
aF1.2486258745193481
aag9
(g13
S'\xce\xaa#\xb8\xdd\xe4\xb5\xbf'
p952
tp953
Rp954
aa(lp955
F10.82290005683899
a(lp956
F-1.0888250509845179
aF-1.792321507130758
aF-1.7578685919391077
aF-1.687596623097555
aF1.7871637344360352
aF0.411198228597641
aa(lp957
F0.02621365046939888
aF-0.01525130038339341
aF0.00016814900057134097
aF-0.08307361566278922
aF0.07903231006676158
aF0.07760176569622587
aa(lp958
(lp959
F0.007473118518958708
aF0.0088981345800307
aF-0.015493570149971166
aF0.031059689682828195
aF-0.007160282481052519
aF0.011842583178570346
aaaF0.05639011040329933
a(lp960
F1.2428674697875977
aF1.249011516571045
aag9
(g13
S'\xec\xa4\xdf\xc9f\xb7\xb4\xbf'
p961
tp962
Rp963
aa(lp964
F10.923799991607666
a(lp965
F-1.0877473990069788
aF-1.7901876608477991
aF-1.7607186476336878
aF-1.6873090902911585
aF1.7877146005630493
aF0.41226595640182495
aa(lp966
F-0.03799779807501315
aF0.017490977337942734
aF0.008564129967720609
aF-0.03203803923455284
aF-0.08066213551066516
aF-0.006767989850862978
aa(lp967
(lp968
F0.007431274620781951
aF0.00896242151700818
aF-0.014826274190847692
aF0.03004536278344884
aF-0.007075075014853014
aF0.011744160271787875
aaaF0.05639020726084709
a(lp969
F1.2432780265808105
aF1.2495698928833008
aag9
(g13
S'\xb91\x9c\xa3\xae\xc8\xb3\xbf'
p970
tp971
Rp972
aa(lp973
F11.024592161178589
a(lp974
F-1.086597744618551
aF-1.7886293570147913
aF-1.7636168638812464
aF-1.6871536413775843
aF1.7880498170852661
aF0.4135010838508606
aa(lp975
F0.017822780133250966
aF-0.02959244748047258
aF0.05490069989670114
aF0.10119111585308585
aF-0.030231441124536657
aF0.018942940846146446
aa(lp976
(lp977
F0.007309097089873407
aF0.009435725648384932
aF-0.013505879501307185
aF0.028335435645654158
aF-0.007248106231471232
aF0.011579659531822448
aaaF0.05638470873236656
a(lp978
F1.2440065145492554
aF1.2507469654083252
aag9
(g13
S'\x0ezG8B\xf0\xb2\xbf'
p979
tp980
Rp981
aa(lp982
F11.126453161239624
a(lp983
F-1.0855439344989222
aF-1.78735858598818
aF-1.766024414693014
aF-1.6870091597186487
aF1.789031744003296
aF0.4146639406681061
aa(lp984
F0.049742834817180136
aF0.03562719782593907
aF0.006609378651668794
aF-0.023105510738975633
aF-0.05137833567718826
aF0.015274524140188168
aa(lp985
(lp986
F0.007058472286025005
aF0.00952227400575127
aF-0.012905252745820163
aF0.02629612897469709
aF-0.0068182855042323905
aF0.011015033203298235
aaaF0.05638711526989937
a(lp987
F1.2448817491531372
aF1.2519786357879639
aag9
(g13
S'4j\x1aXb.\xb2\xbf'
p988
tp989
Rp990
aa(lp991
F11.226464986801147
a(lp992
F-1.0843704382525843
aF-1.7853215376483362
aF-1.7684195677386683
aF-1.6866377035724085
aF1.7901567220687866
aF0.4156114459037781
aa(lp993
F0.03358950461541861
aF-0.02031767131872632
aF-0.03888597919149411
aF-0.04420612928016875
aF0.03136090580241044
aF-0.03113610360499571
aa(lp994
(lp995
F0.006989268343121235
aF0.009191367362835306
aF-0.013180533528406924
aF0.025761959966742957
aF-0.006333060849238495
aF0.010730032220735077
aaaF0.05638749897480011
a(lp996
F1.2449917793273926
aF1.2519729137420654
aag9
(g13
S'\x14/\xd2\xad$R\xb1\xbf'
p997
tp998
Rp999
aa(lp1000
F11.32720398902893
a(lp1001
F-1.083149258290426
aF-1.7827799955951136
aF-1.7707675139056605
aF-1.6862300078021448
aF1.7915338277816772
aF0.41585150361061096
aa(lp1002
F-0.05490661338386391
aF-0.037409557373574154
aF-0.0008698897514379765
aF-0.029088735172759592
aF0.04811638651867558
aF0.0539321768251114
aa(lp1003
(lp1004
F0.007191555980042487
aF0.008423881797438759
aF-0.01469349715343752
aF0.027645189083139003
aF-0.006008059415288333
aF0.010893614021733635
aaaF0.056391436606645584
a(lp1005
F1.2437540292739868
aF1.2499451637268066
aag9
(g13
S'\x0e\xffm\xfa\x15c\xb0\xbf'
p1006
tp1007
Rp1008
aa(lp1009
F11.427547931671143
a(lp1010
F-1.0824788252459925
aF-1.7803948561297815
aF-1.77319842973818
aF-1.685810391102926
aF1.7926955223083496
aF0.4165229797363281
aa(lp1011
F-0.04411919332840425
aF0.05165917365735217
aF0.00324508502471001
aF-0.09144538426895793
aF0.05049287536131403
aF-0.049419836854905336
aa(lp1012
(lp1013
F0.007119850538488106
aF0.007795638821868654
aF-0.015170851968456
aF0.027016942289841635
aF-0.005200482344915796
aF0.010522878825196372
aaaF0.05639068782329559
a(lp1014
F1.2440587282180786
aF1.2500503063201904
aag9
(g13
S'\x1f\xfalR\xa2\x00\xaf\xbf'
p1015
tp1016
Rp1017
aa(lp1018
F11.527951955795288
a(lp1019
F-1.0822632948504847
aF-1.7779977957354944
aF-1.7756417433368128
aF-1.6849468390094202
aF1.7933183908462524
aF0.4176502525806427
aa(lp1020
F0.007692313126457572
aF-0.017759058367639337
aF-0.03858653627873786
aF0.024642419077068364
aF0.04231753993447056
aF-0.03715022224104603
aa(lp1021
(lp1022
F0.006895645664921314
aF0.00729699277972552
aF-0.014744913842228738
aF0.024670261389442553
aF-0.004123392204096998
aF0.009907534198384879
aaaF0.05638772249221802
a(lp1023
F1.2455538511276245
aF1.2517865896224976
aag9
(g13
S'=\xba\xba\x8eMj\xad\xbf'
p1024
tp1025
Rp1026
aa(lp1027
F11.628178119659424
a(lp1028
F-1.0817001501666468
aF-1.7764509359942835
aF-1.7780850569354456
aF-1.6839640776263636
aF1.7942280769348145
aF0.41858577728271484
aa(lp1029
F0.0686256754871959
aF0.03853550545919729
aF-0.04072247130992178
aF0.010429286027357397
aF-0.06347973146920814
aF-0.04396408235064947
aa(lp1030
(lp1031
F0.0066784769431564835
aF0.006960845185931274
aF-0.01465735064710892
aF0.022928142822175805
aF-0.003298493426859346
aF0.009312202032464073
aaaF0.056386735290288925
a(lp1032
F1.2464905977249146
aF1.252882480621338
aag9
(g13
S'\x16>\xeak\n\x07\xac\xbf'
p1033
tp1034
Rp1035
aa(lp1036
F11.728750944137573
a(lp1037
F-1.0809457937823694
aF-1.7750847975360315
aF-1.78082782426943
aF-1.68323260942568
aF1.7948987483978271
aF0.41882583498954773
aa(lp1038
F0.02849049393628028
aF-0.02547183618543502
aF-0.08310957222963743
aF-0.005586935148297613
aF0.07843131457646109
aF-0.037320655821053206
aa(lp1039
(lp1040
F0.006740412417193348
aF0.006878667750602147
aF-0.014749421302681445
aF0.02327257105248884
aF-0.003354395816335891
aF0.009380532714478338
aaaF0.05638904497027397
a(lp1041
F1.2460908889770508
aF1.252302885055542
aag9
(g13
S'\x9b\x02\xdd{.\x97\xaa\xbf'
p1042
tp1043
Rp1044
aa(lp1045
F11.83194613456726
a(lp1046
F-1.0798686186419886
aF-1.7741859594928187
aF-1.7835944334613245
aF-1.6825011412249964
aF1.795712947845459
aF0.41889771819114685
aa(lp1047
F-0.029976718400128832
aF0.10241237619389472
aF-0.026507162812984413
aF-0.018244970506549628
aF0.03266677618361594
aF-0.047951090555188786
aa(lp1048
(lp1049
F0.006861063693225731
aF0.006937365071210695
aF-0.015094177515788303
aF0.024390051930640467
aF-0.0037280102040735193
aF0.009591242715713044
aaaF0.05639178678393364
a(lp1050
F1.2450966835021973
aF1.2510143518447876
aag9
(g13
S'\xb3\x1b\xff\xabYA\xa9\xbf'
p1051
tp1052
Rp1053
aa(lp1054
F11.935516119003296
a(lp1055
F-1.0788262526141565
aF-1.7733467260943812
aF-1.7863248030291956
aF-1.6817339102374476
aF1.7963117361068726
aF0.418885737657547
aa(lp1056
F0.05453861836486046
aF0.0055860736490714194
aF-0.09005732975042768
aF-0.05660855787479294
aF0.04702997783006297
aF-0.05386336431193393
aa(lp1057
(lp1058
F0.007037610884811248
aF0.007086243372489163
aF-0.015335900953090982
aF0.025806204907595925
aF-0.004300982500119644
aF0.009961015308580538
aaaF0.056389376521110535
a(lp1059
F1.2439619302749634
aF1.2495765686035156
aag9
(g13
S'\xe68:t\x8d\t\xa8\xbf'
p1060
tp1061
Rp1062
aa(lp1063
F12.036493062973022
a(lp1064
F-1.0778687636004847
aF-1.772639576588766
aF-1.7890074888812464
aF-1.681206528340475
aF1.7971858978271484
aF0.41901758313179016
aa(lp1065
F0.017584520829317243
aF-0.0017217823101853252
aF0.034626067471140165
aF-0.010838111933854722
aF0.05395380418933828
aF-0.10917740059677239
aa(lp1066
(lp1067
F0.0070681909746472095
aF0.0071877580995701315
aF-0.015419922629344399
aF0.02617620964909686
aF-0.004523384429591542
aF0.009985137768169849
aaaF0.05638424679636955
a(lp1068
F1.2433639764785767
aF1.2488492727279663
aag9
(g13
S'Qh\x08\x7f\x16\xd5\xa6\xbf'
p1069
tp1070
Rp1071
aa(lp1072
F12.137211084365845
a(lp1073
F-1.0765870253192347
aF-1.7713330427752894
aF-1.7918818632708948
aF-1.680882755910055
aF1.7981678247451782
aF0.4194374084472656
aa(lp1074
F-0.02262233791476749
aF0.10316153498603375
aF0.060049357655181615
aF-0.052421682222134586
aF0.03465132181012004
aF0.010314794202372942
aa(lp1075
(lp1076
F0.007118711141462086
aF0.007255692731518711
aF-0.015504165481420678
aF0.026592312397451533
aF-0.004741867095697622
aF0.010040923174603325
aaaF0.05638936161994934
a(lp1077
F1.2427394390106201
aF1.248061180114746
aag9
(g13
S'\xef-\xe9\xac\xf8e\xa5\xbf'
p1078
tp1079
Rp1080
aa(lp1081
F12.24067211151123
a(lp1082
F-1.075796906148092
aF-1.7699545065509241
aF-1.794384781514303
aF-1.680450741444723
aF1.7987546920776367
aF0.4201088845729828
aa(lp1083
F-0.0045795252511026605
aF-0.011459705642435588
aF-0.049744790011720275
aF-0.0657607351036866
aF0.030329593878118427
aF-0.03269808014844644
aa(lp1084
(lp1085
F0.007061127328587918
aF0.0073104644727344
aF-0.01504899321953393
aF0.025774756675823234
aF-0.00464691423278142
aF0.009897689611012627
aaaF0.05638985335826874
a(lp1086
F1.2430096864700317
aF1.248438835144043
aag9
(g13
S'\x1f\x8a\xcb"\xa4;\xa4\xbf'
p1087
tp1088
Rp1089
aa(lp1090
F12.34430193901062
a(lp1091
F-1.0748027006732386
aF-1.7686241308795374
aF-1.796492878590719
aF-1.6798394362079065
aF1.7989460229873657
aF0.4203968942165375
aa(lp1092
F-0.010962205954021073
aF0.017783617835727884
aF-0.022343219350378488
aF0.004168781582433121
aF0.024084042643581157
aF-0.04655275918407975
aa(lp1093
(lp1094
F0.007283429387457961
aF0.007423553506168904
aF-0.015130793793386072
aF0.027176003945548834
aF-0.005218566569067784
aF0.010398949747444207
aaaF0.05638828128576279
a(lp1095
F1.2420971393585205
aF1.2472553253173828
aag9
(g13
S'\xeeWfG\xbb\\\xa3\xbf'
p1096
tp1097
Rp1098
aa(lp1099
F12.44478702545166
a(lp1100
F-1.0738685766803187
aF-1.767473045979635
aF-1.7986725012408655
aF-1.6793482939349573
aF1.799556851387024
aF0.4210803508758545
aa(lp1101
F-0.03862766936716777
aF-0.0075646671937227225
aF-0.0926684618518711
aF0.016384875894927944
aF0.036853081459655004
aF-0.00959810166638424
aa(lp1102
(lp1103
F0.007248923240555934
aF0.007485426334057871
aF-0.014912414433760492
aF0.02674575107467939
aF-0.005197376651315485
aF0.01030494731414645
aaaF0.05639282241463661
a(lp1104
F1.242142915725708
aF1.2473416328430176
aag9
(g13
S'\x86\x91\xbb\x19\x16\x7f\xa2\xbf'
p1105
tp1106
Rp1107
aa(lp1108
F12.544810056686401
a(lp1109
F-1.0731266180621546
aF-1.7659509817706507
aF-1.8010676542865198
aF-1.6788204352008265
aF1.800347089767456
aF0.4216323792934418
aa(lp1110
F-0.10127291902790564
aF0.14281456204285828
aF-0.0031784883038821522
aF-0.07999324687697143
aF-0.002855610731480482
aF0.003984992631794537
aa(lp1111
(lp1112
F0.007207238647099682
aF0.007298335323932441
aF-0.01492159959966776
aF0.026288537958882207
aF-0.004916345891197832
aF0.010120814217245101
aaaF0.05639703571796417
a(lp1113
F1.2422469854354858
aF1.247394323348999
aag9
(g13
S'4\xab>t2\x82\xa1\xbf'
p1114
tp1115
Rp1116
aa(lp1117
F12.64828896522522
a(lp1118
F-1.072839085255758
aF-1.764284912739889
aF-1.8028996626483362
aF-1.6787002722369593
aF1.8010298013687134
aF0.422903448343277
aa(lp1119
F0.07443068212795947
aF-0.036602170726375866
aF0.11828120398698161
aF0.03636469867251796
aF0.018184694838290993
aF0.03350340314038059
aa(lp1120
(lp1121
F0.006843284641223772
aF0.0071004439855107135
aF-0.013999334804624383
aF0.0229555024501465
aF-0.003859242133715017
aF0.009253227696013997
aaaF0.056382544338703156
a(lp1122
F1.2441166639328003
aF1.2497787475585938
aag9
(g13
S'\x01j;\xa1b\xaa\xa0\xbf'
p1123
tp1124
Rp1125
aa(lp1126
F12.750869035720825
a(lp1127
F-1.0725997130023401
aF-1.7627504507647913
aF-1.8039901892291468
aF-1.6786406675921839
aF1.8010897636413574
aF0.4233592450618744
aa(lp1128
F-0.04019711368891409
aF0.0987740201481595
aF-0.02680240522248119
aF-0.03942381105654902
aF-0.0033476282792458782
aF-0.027122127699318106
aa(lp1129
(lp1130
F0.00687663206592168
aF0.006937374358638213
aF-0.013755783685817705
aF0.022652887747526905
aF-0.0036950467076930283
aF0.00929229153571535
aaaF0.05639244616031647
a(lp1131
F1.2443873882293701
aF1.2500313520431519
aag9
(g13
S'n\x80\x18\xa9p\x1d\xa0\xbf'
p1132
tp1133
Rp1134
aa(lp1135
F12.8541841506958
a(lp1136
F-1.0724080244647425
aF-1.7616117636310022
aF-1.804504696522848
aF-1.6784966627704065
aF1.8011252880096436
aF0.42380303144454956
aa(lp1137
F0.020854675507833747
aF0.046917273769547685
aF-0.08070508117482661
aF-0.043381397842604655
aF-0.012914354721021686
aF0.033724914695046564
aa(lp1138
(lp1139
F0.0068905471844361325
aF0.0067377998209608376
aF-0.013726464842567227
aF0.02243720240486712
aF-0.003469242912932323
aF0.009279651629124636
aaaF0.05639274790883064
a(lp1140
F1.2446364164352417
aF1.2502467632293701
aag9
(g13
S'::\xe21\x07\xb4\x9f\xbf'
p1141
tp1142
Rp1143
aa(lp1144
F12.954401969909668
a(lp1145
F-1.0724557081805628
aF-1.7606647650348108
aF-1.8052356878863733
aF-1.6776579062091272
aF1.8010298013687134
aF0.4243786334991455
aa(lp1146
F0.07747595431009811
aF0.026724255826177618
aF0.07456016889243741
aF0.09743419821632074
aF0.026532104996417276
aF0.022870359541973147
aa(lp1147
(lp1148
F0.006820936867727652
aF0.006518081966879601
aF-0.013543795813148773
aF0.021574194742574375
aF-0.0030277718513037634
aF0.009099837058244003
aaaF0.056382499635219574
a(lp1149
F1.2453550100326538
aF1.2510745525360107
aag9
(g13
S'\xdf\x91\x17\x1f)\xb7\x9f\xbf'
p1150
tp1151
Rp1152
aa(lp1153
F13.054598093032837
a(lp1154
F-1.0724919478045862
aF-1.7594903151141565
aF-1.8057025114642542
aF-1.6766985098468226
aF1.8007421493530273
aF0.425254225730896
aa(lp1155
F0.001952846462574774
aF0.06679630539989531
aF-0.06510732653596404
aF0.04634706175382161
aF0.016779368853852897
aF0.059774679598186026
aa(lp1156
(lp1157
F0.006734972831552979
aF0.006274068551549903
aF-0.013260545427672315
aF0.02045024671555706
aF-0.0024922868976541557
aF0.008899775007665185
aaaF0.05639280378818512
a(lp1158
F1.24634850025177
aF1.2522432804107666
aag9
(g13
S'\x13l\x0c<8\x0c\xa0\xbf'
p1159
tp1160
Rp1161
aa(lp1162
F13.155622959136963
a(lp1163
F-1.0725396315204065
aF-1.7583397070514124
aF-1.8062413374530237
aF-1.6763985792743128
aF1.8006227016448975
aF0.42602160573005676
aa(lp1164
F-0.017820079519358337
aF0.028924185979942896
aF-0.09296784242915841
aF0.11528893400232085
aF-0.04628261573518766
aF-0.07181300856683892
aa(lp1165
(lp1166
F0.0066100564954710275
aF0.006118534036004968
aF-0.012727477742459848
aF0.018945509918347543
aF-0.0019750383759042324
aF0.008619386501247115
aaaF0.056390512734651566
a(lp1167
F1.2474387884140015
aF1.2535910606384277
aag9
(g13
S'T@\xd53`\xfd\x9f\xbf'
p1168
tp1169
Rp1170
aa(lp1171
F13.256263017654419
a(lp1172
F-1.0720966498004358
aF-1.7568052450763147
aF-1.8066728750811976
aF-1.6762550512896937
aF1.8011852502822876
aF0.42692115902900696
aa(lp1173
F-0.02228481216877291
aF-0.02379673596400074
aF-0.038539507245577295
aF0.02177165826644982
aF0.1005742249806316
aF0.04689800108217912
aa(lp1174
(lp1175
F0.00648848756036046
aF0.005613912114852812
aF-0.013070549733317316
aF0.018023548411894137
aF-0.0011591643240233638
aF0.008205974594262935
aaaF0.05639015510678291
a(lp1176
F1.2481049299240112
aF1.2542219161987305
aag9
(g13
S'\x07\x96Ha\\\x9e\x9f\xbf'
p1177
tp1178
Rp1179
aa(lp1180
F13.358147144317627
a(lp1181
F-1.072012726460592
aF-1.7555468718158167
aF-1.807342831288473
aF-1.6762669722186487
aF1.8025263547897339
aF0.427520751953125
aa(lp1182
F-0.02252047203884519
aF0.054659060804803455
aF-0.010616389805527397
aF-0.16491410928641095
aF0.0881242977574602
aF0.0454456639752507
aa(lp1183
(lp1184
F0.006172488917796327
aF0.004766080559592612
aF-0.013804689639682665
aF0.016109064035330353
aF0.00036062321194985265
aF0.007208182974667429
aaaF0.05639353394508362
a(lp1185
F1.249218225479126
aF1.2553069591522217
aag9
(g13
S'c^\xd3O\xc8\xc0\x9e\xbf'
p1186
tp1187
Rp1188
aa(lp1189
F13.459299087524414
a(lp1190
F-1.0714743773089808
aF-1.7544081846820276
aF-1.8081935087787073
aF-1.6762669722186487
aF1.8041311502456665
aF0.42759302258491516
aa(lp1191
F0.01886668060888787
aF-0.011465016918121705
aF-0.014770461308036227
aF-0.018382638842867137
aF0.03265432285818404
aF-0.02630332546848382
aa(lp1192
(lp1193
F0.006086903073797043
aF0.003913993037201308
aF-0.015465971916425226
aF0.016517435863016038
aF0.0013039909463248348
aF0.0066623507353876016
aaaF0.056387268006801605
a(lp1194
F1.2488689422607422
aF1.2544304132461548
aag9
(g13
S'\xf3\xbb\xe7\xf8\xc1\xbd\x9d\xbf'
p1195
tp1196
Rp1197
aa(lp1198
F13.561212062835693
a(lp1199
F-1.070730988179342
aF-1.753676716481344
aF-1.8091757933246058
aF-1.676183048878805
aF1.8051609992980957
aF0.42728108167648315
aa(lp1200
F0.04507304634992829
aF0.02027651514169943
aF-0.05275977640815339
aF0.00607794149143728
aF0.024918750016742652
aF0.02465601367750116
aa(lp1201
(lp1202
F0.006243084150380366
aF0.0035154631272528683
aF-0.016930581687031303
aF0.0185969749315182
aF0.0012464668346377089
aF0.006797379606938349
aaaF0.056389402598142624
a(lp1203
F1.2475062608718872
aF1.2524300813674927
aag9
(g13
S'\x15\x10\x8d$C\x02\x9d\xbf'
p1204
tp1205
Rp1206
aa(lp1207
F13.66356110572815
a(lp1208
F-1.0701807180987757
aF-1.7527058760272425
aF-1.8101933638202112
aF-1.6755474249469202
aF1.8055680990219116
aF0.4268612563610077
aa(lp1209
F0.04534699304346648
aF-0.013205753811809766
aF-0.05797107849140917
aF0.07211213738935024
aF0.03417184763561737
aF0.028558558920607248
aa(lp1210
(lp1211
F0.0065508046538661855
aF0.0031779093003722076
aF-0.01833822380010706
aF0.021563701101495573
aF0.000825873811829497
aF0.007346183097108535
aaaF0.05638840049505234
a(lp1212
F1.2458723783493042
aF1.2500813007354736
aag9
(g13
S'\xc2=\xec\x8f \xdb\x9c\xbf'
p1213
tp1214
Rp1215
aa(lp1216
F13.764727115631104
a(lp1217
F-1.0699170271502894
aF-1.7517107168780726
aF-1.811451260243551
aF-1.6748045126544397
aF1.8057115077972412
aF0.4264773726463318
aa(lp1218
F0.005792483152949798
aF-0.011660986110866753
aF0.0542270391074439
aF-0.07391973750500778
aF0.0742680175473691
aF0.059176786426580405
aa(lp1219
(lp1220
F0.006812113615648981
aF0.00292647180528813
aF-0.01920461012881586
aF0.023786108973602206
aF0.0004548844405042415
aF0.007847627099068007
aaaF0.056388970464468
a(lp1221
F1.2447034120559692
aF1.2483972311019897
aag9
(g13
S'\xcc\x8c6E\x1e\xda\x9c\xbf'
p1222
tp1223
Rp1224
aa(lp1225
F13.867444038391113
a(lp1226
F-1.0695818106280726
aF-1.7510879675494593
aF-1.8126724402057093
aF-1.674192253743307
aF1.8061665296554565
aF0.42599764466285706
aa(lp1227
F-0.07427239518707711
aF-0.037360773717269743
aF-0.07681278775026516
aF0.04828036634752461
aF0.08330064486873487
aF-0.1029761717730572
aa(lp1228
(lp1229
F0.007014546412128638
aF0.002676608011348562
aF-0.02025430928373622
aF0.025900812294517395
aF0.0001535411564697249
aF0.00818379379485938
aaaF0.05639137700200081
a(lp1230
F1.2434924840927124
aF1.2466845512390137
aag9
(g13
S'\x94\xf5\x17\x94\x8d\xca\x9c\xbf'
p1231
tp1232
Rp1233
aa(lp1234
F13.96931505203247
a(lp1235
F-1.0694621245013636
aF-1.7506683508502405
aF-1.814193073903219
aF-1.6739166418658655
aF1.806562066078186
aF0.42582985758781433
aa(lp1236
F0.0009487713601157854
aF0.058289331416367676
aF0.05150249023780018
aF-0.06051635582355739
aF0.06738021351362128
aF0.07516050315520362
aa(lp1237
(lp1238
F0.007017286122142082
aF0.0026290754357632955
aF-0.02018444174068681
aF0.02583990326035184
aF0.00016732982805409992
aF0.008145161473649134
aaaF0.05639056861400604
a(lp1239
F1.2433604001998901
aF1.2465064525604248
aag9
(g13
S'\x85\xbd\xb0\xb1\x82\x92\x9c\xbf'
p1240
tp1241
Rp1242
aa(lp1243
F14.071763038635254
a(lp1244
F-1.0688751379596155
aF-1.7503088156329554
aF-1.8158939520465296
aF-1.6738088766681116
aF1.8070290088653564
aF0.4253261387348175
aa(lp1245
F0.046548643028403294
aF0.006377521277347768
aF-0.06986136963730688
aF-0.02399930941513733
aF-0.02988055742008406
aF-0.04152136779914143
aa(lp1246
(lp1247
F0.0072160465636330285
aF0.0027173008487549866
aF-0.020527940748337404
aF0.027519217897455147
aF-0.0004467178598762566
aF0.008556080611919196
aaaF0.056389085948467255
a(lp1248
F1.242100477218628
aF1.2449378967285156
aag9
(g13
S'E]I\xe9\x1fH\x9c\xbf'
p1249
tp1250
Rp1251
aa(lp1252
F14.172520160675049
a(lp1253
F-1.0689228216754358
aF-1.7495291868792933
aF-1.8174508253680628
aF-1.6737011114703577
aF1.8076034784317017
aF0.42500218749046326
aa(lp1254
F-0.017535019059573775
aF-0.02493411317453182
aF-0.05357691137228559
aF-0.036772769457086255
aF0.08009454078649106
aF-0.05379901051645
aa(lp1255
(lp1256
F0.007220227827646833
aF0.002456875971748797
aF-0.020749010647237193
aF0.027585264892396856
aF-0.00024468066745369035
aF0.008448783878750714
aaaF0.05639013648033142
a(lp1257
F1.2419599294662476
aF1.2446377277374268
aag9
(g13
S"o\x15S' \xf9\x9b\xbf"
p1258
tp1259
Rp1260
aa(lp1261
F14.273422956466675
a(lp1262
F-1.0694144407855433
aF-1.7489541212665003
aF-1.8192594687091272
aF-1.6733296553241175
aF1.8082263469696045
aF0.4244026243686676
aa(lp1263
F-0.008460877755901413
aF0.06531234809609603
aF0.05727121332086902
aF-0.054518295707959435
aF0.0028811838371510653
aF0.036082694313623154
aa(lp1264
(lp1265
F0.007163818282337143
aF0.002084568820125411
aF-0.02096111410054616
aF0.027230687443189277
aF0.00018238254925775834
aF0.008174626686111209
aaaF0.05639003589749336
a(lp1266
F1.2420884370803833
aF1.2446361780166626
aag9
(g13
S'c\xf3u}?\xd0\x9b\xbf'
p1267
tp1268
Rp1269
aa(lp1270
F14.3748459815979
a(lp1271
F-1.0704920927630823
aF-1.7486785093890589
aF-1.8200858275042933
aF-1.6725977102862757
aF1.808825135231018
aF0.4242827594280243
aa(lp1272
F-0.05631205015052479
aF0.06653937854156615
aF0.10619049082314157
aF0.019844581212533838
aF0.03712939776956737
aF-0.05872569951890885
aa(lp1273
(lp1274
F0.006830410497031243
aF0.0014434984572825082
aF-0.021143445623609747
aF0.024932445517275987
aF0.0015182051517275087
aF0.007225054072524303
aaaF0.056386880576610565
a(lp1275
F1.2436103820800781
aF1.246285319328308
aag9
(g13
S'\xc5\xde\x85\xa8Q\x1a\x9c\xbf'
p1276
tp1277
Rp1278
aa(lp1279
F14.475178003311157
a(lp1280
F-1.071162525807516
aF-1.7483070532428187
aF-1.8207562605487269
aF-1.6718428770648401
aF1.809411644935608
aF0.42439061403274536
aa(lp1281
F-0.003249290675647519
aF0.02691069958313115
aF-0.075332561810851
aF0.08438735109582722
aF0.01714255394956634
aF-0.013320191219054714
aa(lp1282
(lp1283
F0.006552496856003084
aF0.0008764768737933952
aF-0.021497687430759284
aF0.023170087867421186
aF0.002653856036709014
aF0.006413389374276744
aaaF0.056391723453998566
a(lp1284
F1.2448376417160034
aF1.2475762367248535
aag9
(g13
S'6\xcd\x19\x9c`\xa7\x9c\xbf'
p1285
tp1286
Rp1287
aa(lp1288
F14.57619595527649
a(lp1289
F-1.0713542143451136
aF-1.747575585042135
aF-1.8215706984149378
aF-1.6715911070453089
aF1.8096274137496948
aF0.4244745075702667
aa(lp1290
F-0.04054497950018635
aF-0.03784269176450828
aF-0.0530995018824197
aF-0.015678424048866747
aF0.028383491692328285
aF0.11474435099422418
aa(lp1291
(lp1292
F0.006489048935525016
aF0.0006282007467075727
aF-0.02148635729368329
aF0.02254395129782237
aF0.0030521696545593065
aF0.006198081980532841
aaaF0.0563962496817112
a(lp1293
F1.2452763319015503
aF1.2480047941207886
aag9
(g13
S'\xc1\x997\xa9\xa4\xf2\x9c\xbf'
p1294
tp1295
Rp1296
aa(lp1297
F14.680325984954834
a(lp1298
F-1.0716894308673304
aF-1.7468450705157679
aF-1.8225048224078577
aF-1.6716631094561976
aF1.8100345134735107
aF0.4241509437561035
aa(lp1299
F-0.016000531836247653
aF-0.007898889809309593
aF0.010624443722223901
aF-0.11211500395649626
aF-0.04615126983044775
aF-0.012527589045776591
aa(lp1300
(lp1301
F0.006459102198149836
aF0.0002994945953402804
aF-0.021697099322956385
aF0.022322125214655066
aF0.003404328119597004
aF0.0060093221027828206
aaaF0.05639081820845604
a(lp1302
F1.2454200983047485
aF1.2480137348175049
aag9
(g13
S'\xe5j\xf9\xaa\t\xd3\x9c\xbf'
p1303
tp1304
Rp1305
aa(lp1306
F14.784029006958008
a(lp1307
F-1.0718095938311976
aF-1.7464492956744593
aF-1.823115650807516
aF-1.6719864050494593
aF1.8101662397384644
aF0.42346709966659546
aa(lp1308
F-0.10435931908474239
aF0.040130948105612074
aF0.12813388774093895
aF-0.03631196155393519
aF0.019776590182006806
aF-0.022798952778836718
aa(lp1309
(lp1310
F0.006618748327663932
aF0.00020297822906396916
aF-0.022022511738113416
aF0.023590194810737874
aF0.0030842272611606263
aF0.006321339434904779
aaaF0.056390050798654556
a(lp1311
F1.2446202039718628
aF1.2469279766082764
aag9
(g13
S'\xb6\xc3\x9dd\xb7h\x9c\xbf'
p1312
tp1313
Rp1314
aa(lp1315
F14.886630058288574
a(lp1316
F-1.071881119404928
aF-1.7464011351214808
aF-1.8235586325274866
aF-1.6722624937640589
aF1.810848593711853
aF0.42310717701911926
aa(lp1317
F-0.01668221828983514
aF0.05235043405124391
aF0.035281847360391916
aF0.010479324883224006
aF-0.051953440804358264
aF0.006838863427799319
aa(lp1318
(lp1319
F0.006553992159488352
aF-3.878383469810706e-05
aF-0.022551806572343316
aF0.023613785271991837
aF0.0033557427883536806
aF0.006032554304414437
aaaF0.05638985335826874
a(lp1320
F1.2445019483566284
aF1.2466623783111572
aag9
(g13
S'\xec@\x15\x8a}\n\x9c\xbf'
p1321
tp1322
Rp1323
aa(lp1324
F14.991636037826538
a(lp1325
F-1.0719645659076136
aF-1.7464130560504358
aF-1.824421230946676
aF-1.6724541823016565
aF1.8109205961227417
aF0.42298734188079834
aa(lp1326
F0.05482932080175539
aF-0.07658353888040166
aF0.1673240535473742
aF-0.015331751813612874
aF-0.012841936410591191
aF0.03722980143268632
aa(lp1327
(lp1328
F0.006509440665936824
aF9.023286882092834e-05
aF-0.021868756648243365
aF0.02276419054678266
aF0.003361225859580908
aF0.005963881577708029
aaaF0.05638470873236656
a(lp1329
F1.2447509765625
aF1.2470879554748535
aag9
(g13
S'\xf2I\x11\xd8Z\xfa\x9b\xbf'
p1330
tp1331
Rp1332
aa(lp1333
F15.092503070831299
a(lp1334
F-1.0719526449786585
aF-1.7463772932635706
aF-1.825151268635885
aF-1.6726940313922327
aF1.8111238479614258
aF0.4229993224143982
aa(lp1335
F0.023904116291432843
aF-0.011514348849779369
aF-0.0354211115011514
aF0.011202766634447445
aF-0.004777461653845606
aF0.02145691105183288
aa(lp1336
(lp1337
F0.006430599355076142
aF0.00017376869114559261
aF-0.02132690607385522
aF0.021811832899837298
aF0.0034734266028008205
aF0.005792143954611032
aaaF0.056389737874269485
a(lp1338
F1.2450793981552124
aF1.2475881576538086
aag9
(g13
S'\x8aR\xbe\xf9%\xe9\x9b\xbf'
p1339
tp1340
Rp1341
aa(lp1342
F15.195160150527954
a(lp1343
F-1.072132412587301
aF-1.7462571302997034
aF-1.8259900251971644
aF-1.672826115285055
aF1.8111358880996704
aF0.42296338081359863
aa(lp1344
F0.02552249061192325
aF-0.011385601357084947
aF0.09058076647625195
aF-0.017467559927141066
aF0.04898473289564883
aF-0.03731816494802467
aa(lp1345
(lp1346
F0.006362819228205353
aF0.00026852562106688323
aF-0.02058311621850651
aF0.020714381840743215
aF0.003579994905214469
aF0.005671730994907054
aaaF0.05638473108410835
a(lp1347
F1.2455381155014038
aF1.248258113861084
aag9
(g13
S'\xea\xbf\x82T\xfa\xf9\x9b\xbf'
p1348
tp1349
Rp1350
aa(lp1351
F15.297788143157959
a(lp1352
F-1.0721800963031214
aF-1.7462452093707483
aF-1.8267558256732386
aF-1.6725619474994105
aF1.812034010887146
aF0.4229154586791992
aa(lp1353
F0.03997799286582787
aF0.059656933591969455
aF0.10495623214663473
aF-0.021371056923032587
aF0.006554786340078801
aF0.03873588723176866
aa(lp1354
(lp1355
F0.006170764846081759
aF-8.133707259520824e-05
aF-0.021129054768209816
aF0.019894090646618113
aF0.004234079773803048
aF0.005052257967945612
aaaF0.05638672411441803
a(lp1356
F1.245932698249817
aF1.2486069202423096
aag9
(g13
S'#\xce#E\xfdZ\x9c\xbf'
p1357
tp1358
Rp1359
aa(lp1360
F15.39857006072998
a(lp1361
F-1.0730426947223108
aF-1.7462933699237269
aF-1.8271992842303675
aF-1.6723340193377894
aF1.8124654293060303
aF0.4228435456752777
aa(lp1362
F0.013098661470408338
aF0.060206167661820575
aF0.07246093071291716
aF-0.01354898398015358
aF-0.016697735973335612
aF-0.04188732833869491
aa(lp1363
(lp1364
F0.005864775478828489
aF-0.000472914623876759
aF-0.020941168500184983
aF0.017548521453915524
aF0.005273789096873219
aF0.004223866618480272
aaaF0.05638640373945236
a(lp1365
F1.247346043586731
aF1.2502450942993164
aag9
(g13
S'\xa1\x92\x87\xd4\x81\x88\x9c\xbf'
p1366
tp1367
Rp1368
aa(lp1369
F15.503922939300537
a(lp1370
F-1.0743239561664026
aF-1.7462332884417933
aF-1.8280976454364222
aF-1.6721065680133265
aF1.8125967979431152
aF0.42285552620887756
aa(lp1371
F-0.038136433054924125
aF-0.03796243781691693
aF0.043361383216424014
aF-0.10874542122603358
aF0.10994263213931577
aF-0.0011249644383155583
aa(lp1372
(lp1373
F0.005466972561554113
aF-0.0007780937997401733
aF-0.01980177794561136
aF0.01371255321511464
aF0.006517368533866698
aF0.003259869150974843
aaaF0.05639000982046127
a(lp1374
F1.2495880126953125
aF1.253028154373169
aag9
(g13
S'\x04\xa1/\n\xa9\xe8\x9c\xbf'
p1375
tp1376
Rp1377
aa(lp1378
F15.604397058486938
a(lp1379
F-1.0751860777484339
aF-1.7456343809710901
aF-1.8291390577899378
aF-1.6721304098712366
aF1.8125249147415161
aF0.4228435456752777
aa(lp1380
F0.07217430982855805
aF-0.018437607717359913
aF-0.007941305027365337
aF-0.0067969472827198625
aF0.09777268709410229
aF0.009055584725484681
aa(lp1381
(lp1382
F0.005267734389980447
aF-0.0009518137176048011
aF-0.01873577176716406
aF0.011238977127923953
aF0.007209870305864019
aF0.002799430219373719
aaaF0.05638640373945236
a(lp1383
F1.2510391473770142
aF1.2548434734344482
aag9
(g13
S'\x82\x11\x9dt\xf3D\x9d\xbf'
p1384
tp1385
Rp1386
aa(lp1387
F15.70774793624878
a(lp1388
F-1.0752580801593226
aF-1.745178524647848
aF-1.8298218886004847
aF-1.672070328389303
aF1.8125369548797607
aF0.42285552620887756
aa(lp1389
F-0.08134838676512907
aF0.05159516920770303
aF-0.06795516155475743
aF-0.13185617191717325
aF-0.01980353827000287
aF-0.020560340063425664
aa(lp1390
(lp1391
F0.005263842270272502
aF-0.0009881115165362002
aF-0.018466046012944617
aF0.010894664882676269
aF0.007279972133205793
aF0.0027893481652909976
aaaF0.05639855936169624
a(lp1392
F1.2512218952178955
aF1.2550632953643799
aag9
(g13
S'NFI\xaf\x8c\xa4\x9d\xbf'
p1393
tp1394
Rp1395
aa(lp1396
F15.808901071548462
a(lp1397
F-1.075341526662008
aF-1.7450946013080042
aF-1.83020526567568
aF-1.6724417845355433
aF1.812620759010315
aF0.4225675165653229
aa(lp1398
F0.05654545910610758
aF-0.01695745497066433
aF0.0023319058887360817
aF-0.057031045255039645
aF-0.053066701124845767
aF-0.04949548030477264
aa(lp1399
(lp1400
F0.005291516434389649
aF-0.0009540770943093717
aF-0.018287492349423406
aF0.010933352793734809
aF0.007173175007924243
aF0.0028486835095189737
aaaF0.05638626217842102
a(lp1401
F1.2510669231414795
aF1.2548942565917969
aag9
(g13
S'\x829,\xa9\xc2\xf7\xf6\xbf'
p1402
tp1403
Rp1404
aasS'model'
p1405
S'open2_open1_scoop2_scoop1_cut2_cut1_push2_push1'
p1406
sS'task'
p1407
S'scoop1'
p1408
sS'run'
p1409
I1
s.