(dp0
S'push1'
p1
(lp2
F0.9793094992637634
aF0.3501274287700653
aF0.013657507486641407
aF0.2479179948568344
aF0.9778093695640564
aF0.9122278094291687
aF0.7940363883972168
aF0.7871955633163452
asS'push2'
p3
(lp4
F0.3612375855445862
aF0.9777166843414307
aF0.15008431673049927
aF0.005268292501568794
aF0.31411221623420715
aF0.8938616514205933
aF0.9326348900794983
aF0.9800128936767578
asS'description'
p5
S'computed mean confidence of model trained on one task vs all tasks'
p6
sS'scoop2'
p7
(lp8
F0.982086181640625
aF0.9844664931297302
aF0.00999306421726942
aF0.0017164527671411633
aF0.905900776386261
aF0.9845057129859924
aF0.002659959252923727
aF0.21270428597927094
asS'trials'
p9
I1
sS'scoop1'
p10
(lp11
F0.07870077341794968
aF0.11058933287858963
aF0.07310223579406738
aF0.051654279232025146
aF0.7553988695144653
aF0.07869606465101242
aF0.12143898010253906
aF0.11734206229448318
asS'cut1'
p12
(lp13
F0.32318222522735596
aF0.11792183667421341
aF0.9883289337158203
aF0.4542482793331146
aF0.5933197140693665
aF0.468005508184433
aF0.09564418345689774
aF0.13074716925621033
asS'cut2'
p14
(lp15
F0.0012892711674794555
aF0.24362166225910187
aF0.0011708963429555297
aF0.96965491771698
aF0.08712349832057953
aF0.0006662373780272901
aF0.2955132722854614
aF0.2762588858604431
asS'open1'
p16
(lp17
F0.059783101081848145
aF0.31510284543037415
aF0.033034224063158035
aF0.04845067486166954
aF0.022578904405236244
aF0.06659800559282303
aF0.966020941734314
aF0.03022962622344494
asS'open2'
p18
(lp19
F0.6846811175346375
aF0.8586363196372986
aF0.009862072765827179
aF0.13390199840068817
aF0.8066612482070923
aF0.5982585549354553
aF0.8375983834266663
aF0.8821350932121277
as.