(dp0
S'push1'
p1
(lp2
F0.9943680167198181
aF0.37396910786628723
aF0.005642058793455362
aF0.0064872801303863525
aF0.7708807587623596
aF0.14127108454704285
aF0.06072676554322243
aF0.8624021410942078
asS'push1_push2_cut1_cut2'
p3
(lp4
F0.9532899856567383
aF0.9654268026351929
aF0.9444403052330017
aF0.9492577314376831
aF0.21857698261737823
aF0.9811879992485046
aF0.8252764940261841
aF0.43746617436408997
asS'push1_push2_cut1_cut2_scoop1_scoop2_open1_open2'
p5
(lp6
F0.974030077457428
aF0.9227288365364075
aF0.9517664313316345
aF0.9518605470657349
aF0.9380000829696655
aF0.9388416409492493
aF0.9782432317733765
aF0.9404557347297668
asS'push1_push2_cut1_cut2_scoop1_scoop2'
p7
(lp8
F0.9788211584091187
aF0.9681175947189331
aF0.9563601613044739
aF0.9437253475189209
aF0.9648441076278687
aF0.9602046012878418
aF0.7646933794021606
aF0.9857966303825378
asS'open2_open1_scoop2_scoop1_cut2'
p9
(lp10
F0.8297159075737
aF0.16330350935459137
aF0.018681960180401802
aF0.9704868197441101
aF0.9378976821899414
aF0.9732078313827515
aF0.9251931309700012
aF0.9767301678657532
asS'open2_open1_scoop2_scoop1_cut2_cut1'
p11
(lp12
F0.9662742614746094
aF0.07100489735603333
aF0.9481115341186523
aF0.9226540327072144
aF0.9450702667236328
aF0.9643308520317078
aF0.9759602546691895
aF0.9539528489112854
asS'open2_open1'
p13
(lp14
F0.05968624725937843
aF0.039880938827991486
aF0.00045888510067015886
aF0.0003536103176884353
aF0.05211319774389267
aF0.7576974630355835
aF0.9873120188713074
aF0.987440824508667
asS'trials'
p15
I1
sS'description'
p16
S'testing old classifier'
p17
sS'push1_push2_cut1'
p18
(lp19
F0.9773542284965515
aF0.9547999501228333
aF0.9725879430770874
aF0.051133979111909866
aF0.002203757641837001
aF0.9560137987136841
aF0.33759912848472595
aF0.9524966478347778
asS'open2_open1_scoop2_scoop1_cut2_cut1_push2_push1'
p20
(lp21
F0.9646403193473816
aF0.9358963370323181
aF0.9586060643196106
aF0.9641420245170593
aF0.9444901943206787
aF0.9695902466773987
aF0.963839054107666
aF0.9708803296089172
asS'push1_push2_cut1_cut2_scoop1'
p22
(lp23
F0.9789695739746094
aF0.9839573502540588
aF0.9811875820159912
aF0.9449160695075989
aF0.9468260407447815
aF0.9895786046981812
aF0.8539556264877319
aF0.9806432127952576
asS'open2_open1_scoop2_scoop1'
p24
(lp25
F0.9810869097709656
aF0.5710811018943787
aF0.015443244948983192
aF0.3273875117301941
aF0.976189136505127
aF0.9491885900497437
aF0.9696921110153198
aF0.9413231611251831
asS'push1_push2_cut1_cut2_scoop1_scoop2_open1'
p26
(lp27
F0.9709987640380859
aF0.9664257764816284
aF0.9849777221679688
aF0.9512026906013489
aF0.9569992423057556
aF0.9703990817070007
aF0.9480370879173279
aF0.9118479490280151
asS'open2_open1_scoop2_scoop1_cut2_cut1_push2'
p28
(lp29
F0.6200172901153564
aF0.9748155474662781
aF0.9064134359359741
aF0.9570604562759399
aF0.9430438280105591
aF0.9467049241065979
aF0.9803426861763
aF0.9549604654312134
asS'open2_open1_scoop2'
p30
(lp31
F0.07451073080301285
aF0.02890024520456791
aF0.005183425731956959
aF0.005642688367515802
aF0.012004335410892963
aF0.9567023515701294
aF0.9920179843902588
aF0.9804617762565613
asS'push1_push2'
p32
(lp33
F0.9583513736724854
aF0.9573765993118286
aF0.14718252420425415
aF0.12795202434062958
aF0.08738626539707184
aF0.9279857277870178
aF0.7168418765068054
aF0.16867120563983917
asS'open2'
p34
(lp35
F0.7073765993118286
aF0.6605225801467896
aF0.707274854183197
aF0.3792465031147003
aF0.5738193988800049
aF0.7073655724525452
aF0.1414007693529129
aF0.7070918083190918
as.