(dp0
S'demo_num'
p1
S'1'
p2
sS'model'
p3
S'push12_open12_scoop12_cut1'
p4
sS'task'
p5
S'cut1'
p6
sS'data'
p7
(lp8
(lp9
F0.40209197998046875
a(F-1.5713713804828089
F-1.1923497358905237
F-2.011554543172018
F-1.4083293120013636
F1.560105323791504
F-0.08843118349184209
tp10
a(lp11
F-0.015016524934133484
aF0.025422195543211956
aF0.01789578971139448
aF-0.16684580264336216
aF-0.02550225282875554
aF-0.3
aa(lp12
(lp13
F-0.03452869098300723
aF0.1686483928633989
aF-0.07142426713890332
aF-0.055723519507198886
aF0.08011689871474391
aF-0.513014645268174
aaaF0.18582920730113983
a(lp14
F-0.6819469928741455
aF-1.1089953184127808
aacnumpy.core.multiarray
scalar
p15
(cnumpy
dtype
p16
(S'f8'
p17
I0
I1
tp18
Rp19
(I3
S'<'
p20
NNNI-1
I-1
I0
tp21
bS'f=\x13\xa8\x8a\xa7\xf5\xbf'
p22
tp23
Rp24
aa(lp25
F0.8035159111022949
a(F-1.5750444571124476
F-1.195920769368307
F-2.010237995778219
F-1.4188311735736292
F1.5816136598587036
F-0.2085936705218714
tp26
a(lp27
F0.1563345815001097
aF-0.019049926935155344
aF-0.05269901614163212
aF-0.03777450378754631
aF0.0877782379869903
aF-0.3
aa(lp28
(lp29
F-0.012397295492612247
aF-0.02282746574506009
aF-0.001303819878680783
aF0.026007500037741896
aF0.0649115085376696
aF-0.6127876985113118
aaaF0.6000000238418579
a(lp30
F-1.9430277347564697
aF-2.145923137664795
aag15
(g19
S'\xa4w\x16v>\xb4\xf3\xbf'
p31
tp32
Rp33
aa(lp34
F1.205258846282959
a(F-1.5790284315692347
F-1.1963995138751429
F-2.008214298878805
F-1.4252336660968226
F1.5977927446365356
F-0.32873517671693975
tp35
a(lp36
F-0.052556739323588265
aF-0.03140371101633077
aF-0.015334726078854392
aF-0.050182400814098305
aF0.07817059205559836
aF-0.3
aa(lp37
(lp38
F-0.008829290904471754
aF0.00876096324681951
aF-0.007870803611166193
aF-0.0037246469316887278
aF0.04970075298625916
aF-0.5858198845360897
aaaF0.6000000238418579
a(lp39
F-2.5063347816467285
aF-2.424757719039917
aag15
(g19
S'\xdfI\x8f\xb9\xc4\xc3\xf1\xbf'
p40
tp41
Rp42
aas.