(dp0
S'demo_num'
p1
S'1'
p2
sS'model'
p3
S'push1_open1'
p4
sS'task'
p5
S'cut1'
p6
sS'data'
p7
(lp8
(lp9
F0.4005730152130127
a(F-1.5749486128436487
F-1.1926491896258753
F-2.0133145491229456
F-1.4101632277118128
F1.5623209476470947
F-0.10422212282289678
tp10
a(lp11
F0.009910403108755367
aF-0.010515328375348174
aF-0.010010723347768785
aF-0.021475079913131752
aF0.07344839894926533
aF-0.3
aa(lp12
(lp13
F0.2742953467544065
aF-0.09880349999090776
aF-0.2463506762468064
aF0.383146187619781
aF-0.03594802497603797
aF0.35122404730499285
aaaF3.585702143027447e-05
a(lp14
F-0.4160459637641907
aF-0.6602292060852051
aacnumpy.core.multiarray
scalar
p15
(cnumpy
dtype
p16
(S'f8'
p17
I0
I1
tp18
Rp19
(I3
S'<'
p20
NNNI-1
I-1
I0
tp21
bS'\xa4nCV\xe9e\xf5\xbf'
p22
tp23
Rp24
aa(lp25
F0.8013989925384521
a(F-1.5792320410357874
F-1.1948779265033167
F-2.0102856794940394
F-1.4212654272662562
F1.582715392112732
F-0.22663766542543584
tp26
a(lp27
F-0.012216716541599186
aF-0.020540673715723143
aF0.0037164303123497075
aF-0.02956962515133104
aF0.0456576998091982
aF-0.3
aa(lp28
(lp29
F0.39072370743000895
aF-0.057998692113144075
aF-0.278332698765934
aF0.3543234832618703
aF-0.04771927662756701
aF0.5300848265395398
aaaF3.4599954233272e-05
a(lp30
F-0.31022846698760986
aF-0.7260711789131165
aag15
(g19
S'C\xf3L\xb8\xa6i\xf3\xbf'
p31
tp32
Rp33
aa(lp34
F1.2046778202056885
a(F-1.5824030081378382
F-1.1973469893084925
F-2.0073164145099085
F-1.4300416151629847
F1.5988825559616089
F-0.3467658201800745
tp35
a(lp36
F-0.0237548356755819
aF0.01933937437937569
aF0.0037710074825111468
aF-0.013103810250120248
aF0.028222913615430695
aF-0.3
aa(lp37
(lp38
F0.4597448008362204
aF-0.011555978200703428
aF-0.29381552462750565
aF0.31361500864300174
aF-0.05345772960552251
aF0.6397226738110011
aaaF3.456331614870578e-05
a(lp39
F-0.19385576248168945
aF-0.7965070009231567
aag15
(g19
S'\x93\x91=\x9b\xd8x\xf1\xbf'
p40
tp41
Rp42
aa(lp43
F1.6066219806671143
a(F-1.5855377356158655
F-1.1985686461078089
F-2.0045746008502405
F-1.4366114775287073
F1.6124985218048096
F-0.46669131914247686
tp44
a(lp45
F-0.025030137594210102
aF0.014267021574988017
aF0.004470154897643016
aF-0.01007376639135819
aF0.03158772619868558
aF-0.3
aa(lp46
(lp47
F0.46053810688994073
aF0.03868426867347563
aF-0.28472379773112805
aF0.2522871048394798
aF-0.05833690705836269
aF0.6703876414954935
aaaF3.455827391007915e-05
a(lp48
F-0.06917628645896912
aF-0.8732290863990784
aag15
(g19
S'\x12\x01\xcf\xca\\\x14\xef\xbf'
p49
tp50
Rp51
aa(lp52
F2.0078089237213135
a(F-1.5874279181109827
F-1.199371639882223
F-2.002838436757223
F-1.4421985785113733
F1.6241865158081055
F-0.586654011403219
tp53
a(lp54
F0.01594973213592304
aF0.0064720802431276064
aF0.0014303104756253106
aF-0.02023561678917795
aF0.027663465072134755
aF-0.3
aa(lp55
(lp56
F0.4276583380851205
aF0.11730144429136968
aF-0.23133774989206704
aF0.11656719903312018
aF-0.0671286468787339
aF0.6600625796299828
aaaF3.4556756872916594e-05
a(lp57
F0.06962037086486816
aF-0.9583674073219299
aag15
(g19
S'\xef{`r}8\xeb\xbf'
p58
tp59
Rp60
aa(lp61
F2.4089548587799072
a(F-1.5891392866717737
F-1.2004497686969202
F-2.0012696425067347
F-1.4468620459186
F1.6335270404815674
F-0.7091229597674769
tp62
a(lp63
F-0.007473329460414705
aF-0.019249950013129614
aF-0.01667096636981369
aF-0.02729917237925569
aF0.01977374018077976
aF-0.3
aa(lp64
(lp65
F0.4027042766261395
aF0.2336147457235564
aF-0.15999133531655468
aF-0.07552279252024438
aF-0.08014309686438642
aF0.6468090912128113
aaaF3.455616388237104e-05
a(lp66
F0.21526187658309937
aF-1.0497770309448242
aag15
(g19
S'\xa5\x13\xc6\xce\x9fI\xe7\xbf'
p67
tp68
Rp69
aa(lp70
F2.8100388050079346
a(F-1.5904672781573694
F-1.2014086882220667
F-2.0000847021686
F-1.450555149708883
F1.6405445337295532
F-0.8289554754840296
tp71
a(lp72
F0.005932964709640991
aF0.01409982661681548
aF0.00481274489507659
aF-0.028942330942909923
aF0.018264629642416003
aF-0.3
aa(lp73
(lp74
F0.3824693069500631
aF0.33171531195418913
aF-0.14514733775641697
aF-0.18373097727442145
aF-0.0874192706564742
aF0.6329654008813455
aaaF3.455590194789693e-05
a(lp75
F0.35854804515838623
aF-1.1425280570983887
aag15
(g19
S'\xaa\xa4\xf92\xafq\xe3\xbf'
p76
tp77
Rp78
aa(lp79
F3.211289882659912
a(F-1.5921900908099573
F-1.2019718329059046
F-1.9987314383136194
F-1.4534924666034144
F1.646185040473938
F-0.9400652090655726
tp80
a(lp81
F-0.010734843554535037
aF0.00989385344886308
aF-0.0016503080160895915
aF-0.005891065623591885
aF-0.002799251693372251
aF-0.24653190106272982
aa(lp82
(lp83
F0.3630609624810316
aF0.38753024110738993
aF-0.16369586120939764
aF-0.21179916663938808
aF-0.08944809779429516
aF0.6198033432876209
aaaF3.45557346008718e-05
a(lp84
F0.48235023021698
aF-1.2271116971969604
aag15
(g19
S' \xfe\xe9\xe1\xa4\xc3\xdf\xbf'
p85
tp86
Rp87
aa(lp88
F3.6116268634796143
a(F-1.5927045981036585
F-1.2029426733600062
F-1.9978936354266565
F-1.4561060110675257
F1.6510592699050903
F-1.0307839552508753
tp89
a(lp90
F-0.013588600595847204
aF-0.016053830195589137
aF0.00682365190539857
aF0.0014788810638888808
aF0.019424845886767513
aF-0.19050975222783872
aa(lp91
(lp92
F0.34933616462367884
aF0.4172855408084736
aF-0.18356116077939508
aF-0.2135695693962749
aF-0.08922381163331258
aF0.6112115796678694
aaaF3.455570185906254e-05
a(lp93
F0.5781950950622559
aF-1.2945953607559204
aag15
(g19
S'S\xfb\xcb\x9ae\xf2\xd9\xbf'
p94
tp95
Rp96
aa(lp97
F4.013791799545288
a(F-1.5935781637774866
F-1.2035897413836878
F-1.997007195149557
F-1.4579761664019983
F1.6549986600875854
F-1.1052621046649378
tp98
a(lp99
F-0.0016455504096552066
aF0.012733789604641345
aF-0.004827546172130029
aF-0.013437229708215665
aF0.010635453484357711
aF-0.15684049090621247
aa(lp100
(lp101
F0.3405542672422546
aF0.43480811130948693
aF-0.19873957148816374
aF-0.20978857106839555
aF-0.08904570790474368
aF0.6061139355951052
aaaF3.4555669117253274e-05
a(lp102
F0.6478403806686401
aF-1.3468959331512451
aag15
(g19
S's\x92@\x88\xdd+\xd5\xbf'
p103
tp104
Rp105
aa(lp106
F4.414608955383301
a(F-1.5939844290362757
F-1.204080883656637
F-1.996516529713766
F-1.4594991842852991
F1.6583276987075806
F-1.1659939924823206
tp107
a(lp108
F-0.005748763234254599
aF-0.0003581264628968416
aF-0.013443036177511494
aF0.009511454671489134
aF-0.001279172699367755
aF-0.11969567641584887
aa(lp109
(lp110
F0.33493029861969903
aF0.44635853373990164
aF-0.209970154476385
aF-0.20544597846164053
aF-0.08877701584251022
aF0.6032274733238254
aaaF3.455563637544401e-05
a(lp111
F0.7005331516265869
aF-1.388031244277954
aag15
(g19
S'\x82\x18\xc2o\xf7F\xd1\xbf'
p112
tp113
Rp114
aa(lp115
F4.815062999725342
a(F-1.5950616041766565
F-1.2039487997638147
F-1.9959777037249964
F-1.4609740416156214
F1.6610941886901855
F-1.2157490889178675
tp116
a(lp117
F0.016073583191128102
aF-0.008074605570238761
aF-0.006218805940404057
aF-0.013535036289662562
aF0.013046776240211654
aF-0.11864089752659576
aa(lp118
(lp119
F0.3314744430864979
aF0.4537033862167141
aF-0.21754822655248132
aF-0.20177925052068008
aF-0.08870459606547972
aF0.6017112355118092
aaaF3.455563637544401e-05
a(lp120
F0.7359988689422607
aF-1.4186592102050781
aag15
(g19
S'E\xaf\x0c>\x11,\xcc\xbf'
p121
tp122
Rp123
aa(lp124
F5.2167418003082275
a(F-1.595252815877096
F-1.2047045866595667
F-1.9955108801471155
F-1.4620288054095667
F1.663297414779663
F-1.2572720686541956
tp125
a(lp126
F-3.6281476241172245e-05
aF0.004204157908633924
aF0.009578531824947712
aF-0.0052050350191359795
aF0.0006965020616593095
aF-0.0874473168604436
aa(lp127
(lp128
F0.32881417280730924
aF0.4593656003344559
aF-0.2238547444926274
aF-0.19847041119720923
aF-0.0885061210254758
aF0.6006229285522611
aaaF3.455557089182548e-05
a(lp129
F0.7666207551956177
aF-1.4445457458496094
aag15
(g19
S'>~\xd7\x8f\xe5\xd8\xc6\xbf'
p130
tp131
Rp132
aa(lp133
F5.617017984390259
a(F-1.5954445044146937
F-1.2046921888934534
F-1.9949119726764124
F-1.4634316603290003
F1.665057897567749
F-1.2901328245746058
tp134
a(lp135
F0.008016587663640919
aF-0.009495004520930809
aF-0.002930873557535952
aF-0.001174584369573329
aF-0.0022031446061580072
aF-0.0736244764111188
aa(lp136
(lp137
F0.327233187548519
aF0.46334177435207
aF-0.2282864560701362
aF-0.19594834793662536
aF-0.08840288328051174
aF0.6001978718773782
aaaF3.455557089182548e-05
a(lp138
F0.7901955842971802
aF-1.464842677116394
aag15
(g19
S'2\xe0\xf4\xdf\x95\xa1\xc2\xbf'
p139
tp140
Rp141
aa(lp142
F6.0171167850494385
a(F-1.595504109059469
F-1.2049434820758265
F-1.9953668753253382
F-1.4645221869098108
F1.6665308475494385
F-1.3169787565814417
tp143
a(lp144
F-0.0016249341352959897
aF-0.010429116634392076
aF0.010309206419401832
aF0.0003924068009987084
aF0.002041305107112066
aF-0.058896173898332974
aa(lp145
(lp146
F0.32642774339895825
aF0.46569108836447665
aF-0.23108666709686335
aF-0.19413004365896533
aF-0.08784995513950258
aF0.6003673082956574
aaaF3.455557089182548e-05
a(lp147
F0.8038997650146484
aF-1.4786157608032227
aag15
(g19
S'\xd56.\x16\xfd_\xbe\xbf'
p148
tp149
Rp150
aa(lp151
F6.41778302192688
a(F-1.5968082586871546
F-1.207041088734762
F-1.9935467878924769
F-1.464846436177389
F1.6677521467208862
F-1.339332405720846
tp152
a(lp153
F-0.11056250275160201
aF-0.3
aF0.3
aF0.006155385638933909
aF0.011219656292697975
aF-0.15603271966693888
aa(lp154
(lp155
F0.32459170672509735
aF0.46707752868692476
aF-0.23384924159688597
aF-0.1916614455235083
aF-0.08772135975415704
aF0.599151222475503
aaaF3.4555505408206955e-05
a(lp156
F0.8141382932662964
aF-1.4898464679718018
aag15
(g19
S'\x9fm]v\x85\x1d\xee\xbf'
p157
tp158
Rp159
aa(lp160
F6.8187079429626465
a(F-1.6349504629718226
F-1.3236396948443812
F-1.8825610319720667
F-1.4641507307635706
F1.6700156927108765
F-1.3963411490069788
tp161
a(lp162
F-0.08110697681052399
aF-0.25760763828891525
aF0.2540223083386641
aF0.00026378211086580585
aF-0.00911774045592591
aF-0.13119753545570537
aa(lp163
(lp164
F0.27252382396015484
aF0.43895241573774646
aF-0.261714001414778
aF-0.13911737123703877
aF-0.08335972166781837
aF0.5456118406849655
aaaF3.4555505408206955e-05
a(lp165
F0.7776546478271484
aF-1.488208532333374
aag15
(g19
S'\xfa\x802\x7f\xf8\x83\xe8\xbf'
p166
tp167
Rp168
aa(lp169
F7.22052001953125
a(F-1.6659844557391565
F-1.417114559804098
F-1.7926481405841272
F-1.463299576436178
F1.6714047193527222
F-1.4417761007892054
tp170
a(lp171
F-0.09247576003255066
aF-0.20560291485473378
aF0.18584990226901593
aF0.009411568806949641
aF0.0004290700660208825
aF-0.1022404600631578
aa(lp172
(lp173
F0.24838606743157937
aF0.39912000955042043
aF-0.2631324365443754
aF-0.10605395262705601
aF-0.08280562590301745
aF0.5188622664268883
aaaF3.4555505408206955e-05
a(lp174
F0.5942362546920776
aF-1.4070355892181396
aag15
(g19
S'e,/\xce\xc3\x01\xe4\xbf'
p175
tp176
Rp177
aa(lp178
F7.622463941574097
a(F-1.691754166279928
F-1.493960205708639
F-1.7196725050555628
F-1.462832276021139
F1.6730093955993652
F-1.478525463734762
tp179
a(lp180
F-0.06585515183640708
aF-0.16779285182851464
aF0.16487420120871452
aF-0.0035743117204750166
aF0.0178893851155317
aF-0.08743058676642265
aa(lp181
(lp182
F0.24120734726855095
aF0.33891316560318985
aF-0.24915400230642204
aF-0.06952354880241826
aF-0.08236699222444294
aF0.5098515546615711
aaaF3.4555505408206955e-05
a(lp183
F0.3077067732810974
aF-1.2558631896972656
aag15
(g19
S'h\x03\xbbQ\xe1R\xe0\xbf'
p184
tp185
Rp186
aa(lp187
F8.025300979614258
a(F-1.7125337759601038
F-1.5573485533343714
F-1.6592548529254358
F-1.4620888868915003
F1.6738835573196411
F-1.5092371145831507
tp188
a(lp189
F-0.04965747228867427
aF-0.14614626902441333
aF0.13619074899701472
aF0.01105464094976346
aF-0.007221563010952026
aF-0.05296972153015604
aa(lp190
(lp191
F0.23305223926676133
aF0.25410007655977024
aF-0.255832614152272
aF0.018474083834982218
aF-0.07746603260299097
aF0.5042294266706568
aaaF3.4555505408206955e-05
a(lp192
F0.008664488792419434
aF-1.0847673416137695
aag15
(g19
S'\xcc\xf49\xdb\x99\x8f\xda\xbf'
p193
tp194
Rp195
aa(lp196
F8.426409006118774
a(F-1.728743855153219
F-1.6083944479571741
F-1.6104281584369105
F-1.4613097349749964
F1.6752246618270874
F-1.5341036955462855
tp197
a(lp198
F-0.03268487792000416
aF-0.10369543901435006
aF0.10829719439317637
aF-0.0059232325960495245
aF0.011049812439812394
aF-0.04739215780221473
aa(lp199
(lp200
F0.18463869581409806
aF0.15182002330400218
aF-0.2969960508394095
aF0.17179196874924604
aF-0.06374598914927034
aF0.4624158500357946
aaaF3.4555505408206955e-05
a(lp201
F-0.23840048909187317
aF-0.9318428635597229
aag15
(g19
S'\x0f\x97\xb6\xad\x0f\xa8\xd5\xbf'
p202
tp203
Rp204
aa(lp205
F8.827790975570679
a(F-1.7428954283343714
F-1.6495536009417933
F-1.5713847319232386
F-1.4609258810626429
F1.6757875680923462
F-1.553842846547262
tp206
a(lp207
F-0.018383981976493817
aF-0.0876481076465214
aF0.09312460214361458
aF-0.01389637812578819
aF-0.0036116870254823998
aF-0.06449751833804902
aa(lp208
(lp209
F0.0778561462698116
aF0.05336205517561235
aF-0.3122393880930914
aF0.30384505278461016
aF-0.04458250651617361
aF0.3607965687733594
aaaF3.4555505408206955e-05
a(lp210
F-0.4384055733680725
aF-0.799136221408844
aag15
(g19
S'\tQ\x84%\xf7\xb4\xd1\xbf'
p211
tp212
Rp213
aa(lp214
F9.22836184501648
a(F-1.7541044394122522
F-1.6836651007281702
F-1.539133373891012
F-1.4607575575457972
F1.6766496896743774
F-1.5703957716571253
tp215
a(lp216
F-0.03549318415486365
aF-0.07740982289246548
aF0.06342197373578891
aF0.009396849426800706
aF-0.0006590277485555704
aF-0.03481173302156587
aa(lp217
(lp218
F0.01823705889880188
aF0.004544218672737688
aF-0.3056656736884107
aF0.35672955113122234
aF-0.03340436208275799
aF0.3020321083257695
aaaF3.4555505408206955e-05
a(lp219
F-0.5822773575782776
aF-0.6935579776763916
aag15
(g19
S'c?Ez\xc5\xe1\xcc\xbf'
p220
tp221
Rp222
aa(lp223
F9.629090785980225
a(F-1.7633989492999476
F-1.710705582295553
F-1.513073746358053
F-1.460614029561178
F1.6767334938049316
F-1.5836671034442347
tp224
a(lp225
F-0.029198693151445416
aF-0.05835309936613113
aF0.050064959411243434
aF-0.00541940928998307
aF-0.006679993775980513
aF-0.023904830060554827
aa(lp226
(lp227
F0.006756950882104339
aF-0.014299740537302449
aF-0.3024362376132785
aF0.376364090462199
aF-0.028815091132815156
aF0.29025185040060486
aaaF3.4555505408206955e-05
a(lp228
F-0.6852027773857117
aF-0.611572265625
aag15
(g19
S'\x05\x9d]\x1c\xc7\xa5\xc7\xbf'
p229
tp230
Rp231
aa(lp232
F10.029719829559326
a(F-1.7709234396563929
F-1.733875576649801
F-1.491387192402975
F-1.4603865782367151
F1.6772724390029907
F-1.594374958668844
tp233
a(lp234
F-0.02004055809725498
aF-0.05054182927364404
aF0.03296042200714212
aF-0.0021256068005819206
aF-0.003590233858154597
aF-0.030332180352808248
aa(lp235
(lp236
F0.010025687311989322
aF-0.023034512376094177
aF-0.3016908858164594
aF0.3862450385764851
aF-0.026530852284732717
aF0.2932730095054862
aaaF3.4555505408206955e-05
a(lp237
F-0.7648082971572876
aF-0.5407900810241699
aag15
(g19
S'2\x05\xd7\x05\xd5@\xc3\xbf'
p238
tp239
Rp240
aa(lp241
F10.431517839431763
a(F-1.77667743364443
F-1.752214256917135
F-1.4733660856830042
F-1.4600022474872034
F1.677739143371582
F-1.6030824820147913
tp242
a(lp243
F0.001559828644250234
aF-0.05362476953826007
aF0.043799765624427056
aF0.010183266318528596
aF0.012130058773419796
aF-0.018277355153719692
aa(lp244
(lp245
F0.01568190954128917
aF-0.026746364092987186
aF-0.30216464917326136
aF0.39121202648053305
aF-0.025548470175635773
aF0.2987192278339252
aaaF3.4555505408206955e-05
a(lp246
F-0.8192873001098633
aF-0.48606163263320923
aag15
(g19
S'\xd1\x83\xdb\xbafg\xbf\xbf'
p247
tp248
Rp249
aa(lp250
F10.832134008407593
a(F-1.7818568388568323
F-1.7670777479754847
F-1.4592269102679651
F-1.459942642842428
F1.6784218549728394
F-1.6105321089373987
tp251
a(lp252
F-0.016396912385690264
aF-0.0158224175178033
aF0.029659224574149073
aF-0.00018548147082171607
aF0.0018966692013104034
aF-0.01478025325993887
aa(lp253
(lp254
F0.021681218334866897
aF-0.028766855834693565
aF-0.303107775164044
aF0.3946375436403093
aF-0.02492855470065304
aF0.30459933394630123
aaaF3.4555505408206955e-05
a(lp255
F-0.865500271320343
aF-0.43974369764328003
aag15
(g19
S'\xb8y+\xc1\x1c\xa9\xb9\xbf'
p256
tp257
Rp258
aa(lp259
F11.232340812683105
a(F-1.7860196272479456
F-1.8073766867267054
F-1.5036681334124964
F-1.3748791853534144
F1.6780143976211548
F-1.616424862538473
tp260
a(lp261
F-0.003015889772430712
aF-0.09815899285524655
aF-0.13037597199829415
aF0.20284086650749875
aF-0.00703803023469256
aF-0.016663778643360813
aa(lp262
(lp263
F0.061817078600909424
aF-0.05254397165456575
aF-0.2842454008809967
aF0.394589939483647
aF-0.02598560863040296
aF0.3452710788314709
aaaF3.455557089182548e-05
a(lp264
F-1.11942720413208
aF-0.07568414509296417
aag15
(g19
S'\ti\x89=U9\xe1\xbf'
p265
tp266
Rp267
aa(lp268
F11.632784843444824
a(F-1.7888549009906214
F-1.8445356527911585
F-1.548058811818258
F-1.2942646185504358
F1.6778829097747803
F-1.6215274969684046
tp269
a(lp270
F-0.011695300314494688
aF-0.0856826515981026
aF-0.09332978961237573
aF0.18032051473470567
aF0.00019975775337654003
aF-0.035543178983557404
aa(lp271
(lp272
F0.09493520828384457
aF-0.06770535923289978
aF-0.26616052375682153
aF0.3829336229260339
aF-0.028665780040882438
aF0.37990864247542083
aaaF3.455557089182548e-05
a(lp273
F-1.3547183275222778
aF0.3168953061103821
aag15
(g19
S'\xe8\x84\xe3\xcf\xd5\x15\xdc\xbf'
p274
tp275
Rp276
aa(lp277
F12.049845933914185
a(F-1.7915704886065882
F-1.8745635191546839
F-1.5834968725787562
F-1.229908291493551
F1.678313970565796
F-1.6250484625445765
tp278
a(lp279
F-0.014820538497416437
aF-0.05623225827202824
aF-0.08891916825987375
aF0.1410078293825762
aF0.006118304712793869
aF-0.014224987097977888
aa(lp280
(lp281
F0.11088870868812098
aF-0.08061711801265528
aF-0.24363845322825706
aF0.36597681485557043
aF-0.02880767931189601
aF0.39763959178265507
aaaF3.455557089182548e-05
a(lp282
F-1.5495213270187378
aF0.6283766627311707
aag15
(g19
S'\xd4\xdf:\x12r\xff\xd6\xbf'
p283
tp284
Rp285
aa(lp286
F12.451901912689209
a(F-1.7942255179034632
F-1.9007795492755335
F-1.6149800459491175
F-1.1728180090533655
F1.6785892248153687
F-1.6289175192462366
tp287
a(lp288
F0.01190103560418207
aF-0.040853350935918936
aF-0.04906295909805391
aF0.11847352023425392
aF-0.004523774904838897
aF-0.014281840414621294
aa(lp289
(lp290
F0.11562287958633034
aF-0.08971504598521088
aF-0.21870834374498827
aF0.34429004837784866
aF-0.026538459111348826
aF0.4045420595863542
aaaF3.455553815001622e-05
a(lp291
F-1.720422625541687
aF0.8726063966751099
aag15
(g19
S'\x0c\x03\xd1\x1c\xa3}\xd2\xbf'
p292
tp293
Rp294
aa(lp295
F12.853744983673096
a(F-1.795816723500387
F-1.9212177435504358
F-1.6383994261371058
F-1.1294072310077112
F1.678385853767395
F-1.6312406698810022
tp296
a(lp297
F-0.019086114913539065
aF-0.03722983725376952
aF-0.060835240152537065
aF0.08766825210982518
aF0.00297647219365078
aF0.004414126462169965
aa(lp298
(lp299
F0.11428206545778223
aF-0.09577852608087241
aF-0.19540732136715488
aF0.3230569766361645
aF-0.0234089994995742
aF0.4054310463571557
aaaF3.455557089182548e-05
a(lp300
F-1.8446996212005615
aF1.0355644226074219
aag15
(g19
S'\x9a\x0f\x98\x05m#\xce\xbf'
p301
tp302
Rp303
aa(lp304
F13.255121946334839
a(F-1.7972877661334437
F-1.9374006430255335
F-1.658248249684469
F-1.0943406263934534
F1.6785773038864136
F-1.6331213156329554
tp305
a(lp306
F-0.019578106265087887
aF-0.024690181514002298
aF-0.05543290107737629
aF0.0729813574303088
aF-0.00536098605733059
aF-0.008184121327984763
aa(lp307
(lp308
F0.11100156497431714
aF-0.09881659288802178
aF-0.1763230222125491
aF0.3042558639274886
aF-0.020129426999802368
aF0.4043517543842155
aaaF3.455557089182548e-05
a(lp309
F-1.9449445009231567
aF1.1481959819793701
aag15
(g19
S'j\x0b\x88|\xa8\x92\xc8\xbf'
p310
tp311
Rp312
aa(lp313
F13.656759977340698
a(F-1.7981494108783167
F-1.9508259932147425
F-1.6735451857196253
F-1.0648606459247034
F1.6787689924240112
F-1.6348817984210413
tp314
a(lp315
F-0.0011780979476001385
aF-0.02948526986473777
aF-0.027483585937125955
aF0.06051746681363434
aF0.00801223499942278
aF-0.007593334970985318
aa(lp316
(lp317
F0.10702974709125943
aF-0.09885444363419192
aF-0.1624449999492622
aF0.28833999240951813
aF-0.017496172719535935
aF0.402342801186609
aaaF3.455553815001622e-05
a(lp318
F-2.0184693336486816
aF1.2319310903549194
aag15
(g19
S',\xeb"B?\xfb\xc3\xbf'
p319
tp320
Rp321
aa(lp322
F14.058599948883057
a(F-1.7987354437457483
F-1.9611476103412073
F-1.686230484639303
F-1.0415557066546839
F1.6784816980361938
F-1.6362946669207972
tp323
a(lp324
F0.0006723684980265553
aF-0.025068783054700193
aF-0.024867621821074166
aF0.03704497304483795
aF-0.0015475008033036938
aF0.004474631920683507
aa(lp325
(lp326
F0.1034037060139473
aF-0.09762179659176058
aF-0.15314438367201996
aF0.276066332602774
aF-0.015352852957606963
aF0.4002965575073757
aaaF3.455553815001622e-05
a(lp327
F-2.0750298500061035
aF1.2897982597351074
aag15
(g19
S'{<\x07\xceRU\xc0\xbf'
p328
tp329
Rp330
aa(lp331
F14.459458827972412
a(F-1.7998836676227015
F-1.9705217520343226
F-1.696878735219137
F-1.0223267714129847
F1.678565263748169
F-1.6372531096087855
tp332
a(lp333
F-0.014813005313957402
aF-0.006728550205303179
aF-0.020902762142295202
aF0.02916936304141571
aF0.010355689674955263
aF-0.01153322865971089
aa(lp334
(lp335
F0.09997841948859496
aF-0.09530517521680906
aF-0.14686911243030526
aF0.26606342396835947
aF-0.013292989580020599
aF0.39826474592777983
aaaF3.455553815001622e-05
a(lp336
F-2.1285829544067383
aF1.3356906175613403
aag15
(g19
S';\xeb\xb7y\x06\x8a\xba\xbf'
p337
tp338
Rp339
aas.