(dp0
S'demo_num'
p1
S'1'
p2
sS'model'
p3
S'push1_open1'
p4
sS'task'
p5
S'scoop1'
p6
sS'data'
p7
(lp8
(lp9
F0.4012751579284668
a(F-1.4989197889911097
F-1.2990606466876429
F-1.9070246855365198
F-1.5093262831317347
F1.580894947052002
F0.0603754036128521
tp10
a(lp11
F0.18190081109464942
aF-0.28009316594937733
aF0.3
aF-0.3
aF0.0945462519057466
aF0.15663428970104853
aa(lp12
(lp13
F0.6369213712172699
aF-0.09471889229067212
aF-0.1099684353193821
aF0.0868567924314781
aF-0.021609059622373247
aF0.7075987642908007
aaaF3.456822378211655e-05
a(lp14
F-3.493232250213623
aF2.4477643966674805
aacnumpy.core.multiarray
scalar
p15
(cnumpy
dtype
p16
(S'f8'
p17
I0
I1
tp18
Rp19
(I3
S'<'
p20
NNNI-1
I-1
I0
tp21
bS'\xd5[\xe0\x92r\xdb\xf2\xbf'
p22
tp23
Rp24
aa(lp25
F0.8016049861907959
a(F-1.4339283148394983
F-1.4036086241351526
F-1.7912233511554163
F-1.6244128386126917
F1.6167619228363037
F0.11466094851493835
tp26
a(lp27
F0.150216600286717
aF-0.2215357944963832
aF0.2512533886021284
aF-0.2697092623170884
aF0.06350902750875285
aF0.13241270601819488
aa(lp28
(lp29
F0.574121738551179
aF-0.14552766365957157
aF-0.07717506288761512
aF0.1291579164708887
aF0.04253182716338578
aF0.6502944860684822
aaaF3.4560383937787265e-05
a(lp30
F-3.218122959136963
aF2.3884294033050537
aag15
(g19
S'\xb3\xa4\xf0\xc9%\xd9\xee\xbf'
p31
tp32
Rp33
aa(lp34
F1.203822135925293
a(F-1.3815935293780726
F-1.4877875486956995
F-1.6965673605548304
F-1.7179778257953089
F1.6457898616790771
F0.1582513153553009
tp35
a(lp36
F0.13343654045167624
aF-0.18676555761201324
aF0.22539200382326485
aF-0.22233652883449362
aF0.05449913375991643
aF0.09076986575735758
aa(lp37
(lp38
F0.5579916898511481
aF-0.21684921303179644
aF-0.04046431382925498
aF0.19184633904073226
aF0.09660735390706363
aF0.6373195931773367
aaaF3.455853584455326e-05
a(lp39
F-2.5743870735168457
aF2.2064387798309326
aag15
(g19
S'\x05s\x82\xa9\x9aG\xe9\xbf'
p40
tp41
Rp42
aa(lp43
F1.603991985321045
a(F-1.3376205603228968
F-1.558883015309469
F-1.6157944838153284
F-1.7976835409747522
F1.669428825378418
F0.19534286856651306
tp44
a(lp45
F0.0754521240678631
aF-0.15037189591378675
aF0.17008754854118213
aF-0.17336947198282648
aF0.048060950616828614
aF0.09824318051460386
aa(lp46
(lp47
F0.5265932303476373
aF-0.24825259240408687
aF-0.047628039706077055
aF0.26126992038713237
aF0.1378955668266846
aF0.6039283524697171
aaaF3.4557480830699205e-05
a(lp48
F-1.8568131923675537
aF1.9618208408355713
aag15
(g19
S'E:>\xbd\x1a\x8e\xe4\xbf'
p49
tp50
Rp51
aa(lp52
F2.005308151245117
a(F-1.3019755522357386
F-1.6159699598895472
F-1.5516889731036585
F-1.8609994093524378
F1.689151406288147
F0.22537122666835785
tp53
a(lp54
F0.07793571776431754
aF-0.1373398652746711
aF0.13753439156690947
aF-0.13630794934092547
aF0.03933422951462202
aF0.08177141509657562
aa(lp55
(lp56
F0.5060624260606996
aF-0.09678937479727091
aF-0.24117887878319183
aF0.34023660698987906
aF0.17166979405577412
aF0.5757574467618143
aaaF3.455708792898804e-05
a(lp57
F-1.3983168601989746
aF1.7278966903686523
aag15
(g19
S'\x8b\xb7BF\xf5\xc6\xe0\xbf'
p58
tp59
Rp60
aa(lp61
F2.406054973602295
a(F-1.2735822836505335
F-1.6623542944537562
F-1.4997027556048792
F-1.9124577681170862
F1.705508828163147
F0.2490801364183426
tp62
a(lp63
F0.059949680569747726
aF-0.08801137429506611
aF0.12815901507036015
aF-0.12583072207540769
aF0.039247794658328554
aF0.049861235539241176
aa(lp64
(lp65
F0.4846778327035805
aF0.011818840587714562
aF-0.390365256720451
aF0.4079567278749586
aF0.1961975308295368
aF0.5444443777338184
aaaF3.455682235653512e-05
a(lp66
F-1.117811679840088
aF1.5283031463623047
aag15
(g19
S'A(>\xdb\xc3o\xdb\xbf'
p67
tp68
Rp69
aa(lp70
F2.806364059448242
a(F-1.2499883810626429
F-1.7004459539996546
F-1.4566624800311487
F-1.9549482504474085
F1.719004511833191
F0.26904773712158203
tp71
a(lp72
F0.04756176930969987
aF-0.07994525764663415
aF0.10032289531706115
aF-0.09295543860151113
aF0.047936300671724
aF0.055435393590853206
aa(lp73
(lp74
F0.4562451460762639
aF0.05963204729492877
aF-0.4687399700092078
aF0.4567026449485959
aF0.21161614677801527
aF0.5055226302535738
aaaF3.455678961472586e-05
a(lp75
F-0.9235329031944275
aF1.362537145614624
aag15
(g19
S'\x82\x14\x81\t\xe4`\xd6\xbf'
p76
tp77
Rp78
aa(lp79
F3.2078030109405518
a(F-1.2308943907367151
F-1.7314661184894007
F-1.4217451254474085
F-1.9899686018573206
F1.7297700643539429
F0.28524965047836304
tp80
a(lp81
F0.062194040984407964
aF-0.07710131965196855
aF0.07929159215742686
aF-0.08925671414385013
aF0.01760304494761057
aF0.041048597469954026
aa(lp82
(lp83
F0.42974430327799706
aF0.08803885521150528
aF-0.5172161503953034
aF0.4899037547703516
aF0.22116086775480445
aF0.4692934797416836
aaaF3.455662590567954e-05
a(lp84
F-0.7861425280570984
aF1.2329496145248413
aag15
(g19
S'\\\xe9\xfd\x1fXA\xd2\xbf'
p85
tp86
Rp87
aa(lp88
F3.6090409755706787
a(F-1.2150562445269983
F-1.7572010199176233
F-1.3927329222308558
F-2.018754784260885
F1.7387148141860962
F0.29852554202079773
tp89
a(lp90
F0.011841931340924004
aF-0.06361886480204279
aF0.05898950623091676
aF-0.06999788732074755
aF0.033243149463508176
aF0.02720148637053187
aa(lp91
(lp92
F0.4072281564203094
aF0.10453322076006821
aF-0.5413397023320449
aF0.5068397663506891
aF0.2270724161648592
aF0.438453001638417
aaaF3.4556691389298066e-05
a(lp93
F-0.684807538986206
aF1.1316821575164795
aag15
(g19
S'\x1dSA\x8a\x8a\xb0\xcd\xbf'
p94
tp95
Rp96
aa(lp97
F4.010141134262085
a(F-1.2019832769977015
F-1.777625862752096
F-1.368908707295553
F-2.0411503950702112
F1.7460072040557861
F0.3091990053653717
tp98
a(lp99
F0.025111201742188477
aF-0.03673546101046864
aF0.040998858671634886
aF-0.046635640704693566
aF0.0057694130385607875
aF0.034499234930766676
aa(lp100
(lp101
F0.3884844536971195
aF0.10546799391785876
aF-0.5349009723712165
aF0.5046721081052437
aF0.23010346616076188
aF0.41347166919807615
aaaF3.4556491300463676e-05
a(lp102
F-0.6094292402267456
aF1.054405689239502
aag15
(g19
S'm\xf8Z>F9\xc8\xbf'
p103
tp104
Rp105
aa(lp106
F4.411232948303223
a(F-1.1912921110736292
F-1.7944071928607386
F-1.3497217337237757
F-2.0596850554095667
F1.7518510818481445
F0.31770142912864685
tp107
a(lp108
F0.03332191145977292
aF-0.03216878761225222
aF0.04048475529635091
aF-0.04268381809927993
aF-0.0054908950424823605
aF0.0205532655629335
aa(lp109
(lp110
F0.37142141280799307
aF0.08779698382604023
aF-0.49490946882740566
aF0.48353726792961266
aF0.2315967062864329
aF0.3914067624716025
aaaF3.4556491300463676e-05
a(lp111
F-0.5537233352661133
aF0.9952238202095032
aag15
(g19
S';\xd1\xc4\xd1\xb0\xc3\xc3\xbf'
p112
tp113
Rp114
aa(lp115
F4.811321973800659
a(F-1.1823371092425745
F-1.8078444639789026
F-1.3342855612384241
F-2.0748875776873987
F1.756880283355713
F0.32470548152923584
tp116
a(lp117
F0.015473042156757863
aF-0.014753869295325893
aF0.03721531260459611
aF-0.03910719341696885
aF0.01405258846134779
aF-0.0023831794953257796
aa(lp118
(lp119
F0.35552373351878785
aF0.05846657581838418
aF-0.4333999216701437
aF0.44990979657115476
aF0.23144801334784826
aF0.37179334919013307
aaaF3.455656042206101e-05
a(lp120
F-0.5110083818435669
aF0.9493609070777893
aag15
(g19
S'\xce\xd4Wy\x92"\xc0\xbf'
p121
tp122
Rp123
aa(lp124
F5.21272611618042
a(F-1.1756799856769007
F-1.819207493458883
F-1.3214495817767542
F-2.0874045530902308
F1.7606279850006104
F0.33031782507896423
tp125
a(lp126
F0.030210967176064363
aF-0.039165884816180524
aF0.04116295982847904
aF-0.03209975888128178
aF-0.012764793007478216
aF0.0151456743004181
aa(lp127
(lp128
F0.34120658631212775
aF0.02760337248280472
aF-0.36981543916336185
aF0.4146967718346247
aF0.23043867945585084
aF0.3543074936427911
aaaF3.455656042206101e-05
a(lp129
F-0.48094993829727173
aF0.915137529373169
aag15
(g19
S'+\x80o\xc8\x0eR\xba\xbf'
p130
tp131
Rp132
aa(lp133
F5.613100051879883
a(F-1.1698139349566858
F-1.8424261252032679
F-1.360711399708883
F-2.0340049902545374
F1.7631787061691284
F0.33555907011032104
tp134
a(lp135
F0.021506398825561483
aF-0.0553266656934993
aF-0.13962942111426213
aF0.18057649224907274
aF-0.0062844240038410475
aF-0.006336112796795811
aa(lp136
(lp137
F0.28237211753410074
aF-0.1652455848693404
aF-0.08924069297413102
aF0.3037745462436613
aF0.20480921173286393
aF0.2976381547066934
aaaF3.455662590567954e-05
a(lp138
F-0.5120887160301208
aF0.9089540839195251
aag15
(g19
S'\xb1\xb2\x1a\x86\xc0\xad\xdd\xbf'
p139
tp140
Rp141
aa(lp142
F6.016135931015015
a(F-1.1647494474994105
F-1.8659685293780726
F-1.4110797087298792
F-1.9683402220355433
F1.7657771110534668
F0.3398400545120239
tp143
a(lp144
F0.02560275963860241
aF-0.06709708893348415
aF-0.11113446042796592
aF0.15050359971265306
aF-0.0068861210993062735
aF0.006991123324080199
aa(lp145
(lp146
F0.24292714048327047
aF-0.24725281186195713
aF0.045019527641588314
aF0.237968093587441
aF0.18682100219118725
aF0.26046764744222
aaaF3.4556756872916594e-05
a(lp147
F-0.551973819732666
aF0.914171576499939
aag15
(g19
S"\x94\xf0\x10VK'\xd8\xbf"
p148
tp149
Rp150
aa(lp151
F6.418188095092773
a(F-1.161361042653219
F-1.8854716459857386
F-1.4515822569476526
F-1.914424244557516
F1.7679443359375
F0.3425627052783966
tp152
a(lp153
F0.004779228857434829
aF-0.03398093562326936
aF-0.07879236425123304
aF0.11907747739797658
aF-0.005314041549046262
aF0.02066776214405388
aa(lp154
(lp155
F0.21703704427515783
aF-0.2783571901751424
aF0.10561600860076306
aF0.20059468395894653
aF0.17479754490887464
aF0.23665234711677474
aaaF3.4556756872916594e-05
a(lp156
F-0.584425687789917
aF0.9227078557014465
aag15
(g19
S'%\xa5\x9e\xacy\xa6\xd3\xbf'
p157
tp158
Rp159
aa(lp160
F6.818510055541992
a(F-1.1584637800799769
F-1.9003241697894495
F-1.484126392995016
F-1.8707588354693812
F1.7695012092590332
F0.3454647660255432
tp161
a(lp162
F0.02559442487739349
aF-0.040154644968028466
aF-0.06636051887279416
aF0.07162961319613616
aF-0.0038883540069519123
aF0.012674783698126722
aa(lp163
(lp164
F0.1969430116405361
aF-0.29703005052603626
aF0.14550196988772546
aF0.17378207110431995
aF0.16545376534346645
aF0.21831341060898476
aaaF3.455678961472586e-05
a(lp165
F-0.6079673171043396
aF0.9305921196937561
aag15
(g19
S'\xd0\x99c\x86\xf7\x06\xd0\xbf'
p166
tp167
Rp168
aa(lp169
F7.224010944366455
a(F-1.155733887349264
F-1.9127667585956019
F-1.5108216444598597
F-1.8354623953448694
F1.7709381580352783
F0.34722796082496643
tp170
a(lp171
F0.0033899620693043815
aF-0.03354750615533278
aF-0.05685722054577058
aF0.08309430819098551
aF0.004080693851363458
aF-0.006679975157697575
aa(lp172
(lp173
F0.18008691986527742
aF-0.31061067828649347
aF0.17641299671644878
aF0.152005768904117
aF0.15801123719544685
aF0.20337905706513626
aaaF3.455682235653512e-05
a(lp174
F-0.625643253326416
aF0.9373446106910706
aag15
(g19
S"\x01\xeag\xba&'\xca\xbf"
p175
tp176
Rp177
aa(lp178
F7.625472068786621
a(F-1.153961483632223
F-1.9236272017108362
F-1.5334304014789026
F-1.8067477385150355
F1.7721834182739258
F0.3488709032535553
tp179
a(lp180
F0.017936563588470247
aF-0.015224562510722617
aF-0.04933049812890459
aF0.03878611257913556
aF0.003161273274071847
aF0.005158652757475981
aa(lp181
(lp182
F0.16599853243660542
aF-0.32181756848117665
aF0.20080695724384037
aF0.1353634317297535
aF0.15230781646930452
aF0.19024798323714465
aaaF3.455682235653512e-05
a(lp183
F-0.6422508955001831
aF0.9449401497840881
aag15
(g19
S'uw\xfba\xecB\xc5\xbf'
p184
tp185
Rp186
aa(lp187
F8.025959968566895
a(F-1.1523097197162073
F-1.9321263472186487
F-1.5513175169574183
F-1.7833321730243128
F1.7726144790649414
F0.3502022922039032
tp188
a(lp189
F0.008359150182105065
aF-0.01375057225677168
aF-0.039537435502448134
aF0.06715840046989578
aF0.012697335460605585
aF-0.012553869975944822
aa(lp190
(lp191
F0.1546148931226437
aF-0.3300779325151904
aF0.21973964266315252
aF0.12203667434551538
aF0.14772039999304792
aF0.17999475254356545
aaaF3.455695332377218e-05
a(lp192
F-0.6542755365371704
aF0.9506434798240662
aag15
(g19
S'\x8a,2\xc7\xb2S\xc1\xbf'
p193
tp194
Rp195
aa(lp196
F8.433604955673218
a(F-1.1508129278766077
F-1.9390066305743616
F-1.5653112570392054
F-1.7646525541888636
F1.7731773853302002
F0.3513055741786957
tp197
a(lp198
F-0.012979462042288697
aF-0.0024490285493682963
aF-0.024152364177450716
aF0.03773557440407279
aF-0.002087162410977619
aF0.02115455370314814
aa(lp199
(lp200
F0.1454427688601208
aF-0.33622305034514116
aF0.23432378824111558
aF0.11152861851891081
aF0.14393546786224337
aF0.1718724569374826
aaaF3.455682235653512e-05
a(lp201
F-0.6630105972290039
aF0.9549687504768372
aag15
(g19
S'`\x91&B\xe5g\xbc\xbf'
p202
tp203
Rp204
aa(lp205
F8.835559129714966
a(F-1.1433056036578577
F-1.9257128874408167
F-1.5946863333331507
F-1.750265900288717
F1.7769733667373657
F0.3576014041900635
tp206
a(lp207
F0.02721654593184058
aF0.09005328855904353
aF-0.10745321858995717
aF0.022475275596272926
aF0.013873323363721617
aF0.02407287772382478
aa(lp208
(lp209
F0.13996839200835934
aF-0.3415720836696252
aF0.24057792175639833
aF0.11068853626880565
aF0.14246613060220717
aF0.167184051456863
aaaF3.455695332377218e-05
a(lp210
F-0.6538181304931641
aF0.9596694111824036
aag15
(g19
S'4|v]"\x8f\xd3\xbf'
p211
tp212
Rp213
aa(lp214
F9.236427068710327
a(F-1.1307337919818323
F-1.8927119413958948
F-1.6358359495746058
F-1.741333309804098
F1.7838586568832397
F0.3681314289569855
tp215
a(lp216
F0.004273745811326689
aF0.06777925156058183
aF-0.1023290686125901
aF0.027363353194428917
aF0.012549214609598208
aF0.021217708926656063
aa(lp217
(lp218
F0.14102898230080504
aF-0.345858254083144
aF0.2357550470620567
aF0.12185002027337495
aF0.1439508837917154
aF0.16898936807553888
aaaF3.455695332377218e-05
a(lp219
F-0.6307835578918457
aF0.9681198596954346
aag15
(g19
S'\xa6\xe3h65\xe7\xcf\xbf'
p220
tp221
Rp222
aa(lp223
F9.637793064117432
a(F-1.120460335408346
F-1.866352383290426
F-1.6694729963885706
F-1.7331927458392542
F1.789510726928711
F0.3765263855457306
tp224
a(lp225
F0.019930171710716527
aF0.028946427408741333
aF-0.07372677286641972
aF0.020558637192923522
aF0.029263456595367658
aF0.001421402978568409
aa(lp226
(lp227
F0.14232402222283247
aF-0.35040282649601007
aF0.2316646931227324
aF0.13199160036792357
aF0.1453682098796158
aF0.17107791031985461
aaaF3.4557055187178776e-05
a(lp228
F-0.6150484085083008
aF0.9781538844108582
aag15
(g19
S'\xf7E\xce\x06\x89\t\xca\xbf'
p229
tp230
Rp231
aa(lp232
F10.037845134735107
a(F-1.1130011717425745
F-1.8447874228106897
F-1.6963756720172327
F-1.7274740378009241
F1.794287919998169
F0.383578360080719
tp233
a(lp234
F0.017407570106428717
aF0.04342958965307927
aF-0.08209619482935965
aF0.015527041394464225
aF0.002588142919972486
aF0.030642703444902577
aa(lp235
(lp236
F0.145261468933966
aF-0.3551607971918084
aF0.22685749163732252
aF0.14299797943534462
aF0.14744741591373248
aF0.17375322896740525
aaaF3.455688784015365e-05
a(lp237
F-0.6066750288009644
aF0.9903190732002258
aag15
(g19
S'\x9f\xb9\xab\x8cFV\xc5\xbf'
p238
tp239
Rp240
aa(lp241
F10.441767930984497
a(F-1.1059239546405237
F-1.8274543921100062
F-1.7199361960040491
F-1.7220543066607874
F1.7979880571365356
F0.38974273204803467
tp242
a(lp243
F0.01649427066382301
aF0.06636386709397965
aF-0.042602233668356165
aF0.01145283175777316
aF0.00016971954750078476
aF0.01392018437467597
aa(lp244
(lp245
F0.1454501140415117
aF-0.36003941473699796
aF0.22524480181119963
aF0.1505339255010014
aF0.14870520939002196
aF0.1740233595158504
aaaF3.455682235653512e-05
a(lp246
F-0.5988679528236389
aF0.9997687935829163
aag15
(g19
S'\x03\x99\x9dv\x92Q\xc1\xbf'
p247
tp248
Rp249
aa(lp250
F10.841984987258911
a(F-1.1009071508990687
F-1.8130343596087855
F-1.7376630941974085
F-1.717078987752096
F1.8008979558944702
F0.3942521810531616
tp251
a(lp252
F0.008097969344727791
aF0.014388904322739756
aF-0.04174957337600374
aF0.012940583065054082
aF0.007584524028751168
aF0.007516089604337086
aa(lp253
(lp254
F0.14829811683222235
aF-0.3637139093181711
aF0.22130582786718286
aF0.15898702387787145
aF0.15021808930091984
aF0.17711487081119331
aaaF3.455695332377218e-05
a(lp255
F-0.595093846321106
aF1.0099939107894897
aag15
(g19
S'\xd4:\x98\x80q]\xbc\xbf'
p256
tp257
Rp258
aas.