(dp0
S'demo_num'
p1
S'1'
p2
sS'model'
p3
S'push12_open1_scoop1_cut1'
p4
sS'task'
p5
S'cut1'
p6
sS'data'
p7
(lp8
(lp9
F0.4028899669647217
a(F-1.576815430318014
F-1.1927087942706507
F-2.014092747365133
F-1.4088924566852015
F1.5586919784545898
F-0.09001380601991826
tp10
a(lp11
F-0.1236950560954019
aF0.03652203779814231
aF-0.06066418405267804
aF0.07355462158525651
aF0.09587809387144325
aF-0.3
aa(lp12
(lp13
F0.04905664143844636
aF-0.031636483343876726
aF-0.07222941261347875
aF0.13270183999127477
aF0.04896914440543968
aF-0.38464686519718905
aaaF0.6000000238418579
a(lp14
F-0.8312054872512817
aF-0.8779333829879761
aacnumpy.core.multiarray
scalar
p15
(cnumpy
dtype
p16
(S'f8'
p17
I0
I1
tp18
Rp19
(I3
S'<'
p20
NNNI-1
I-1
I0
tp21
bS'[\x16\x0f\x919\xa1\xf5\xbf'
p22
tp23
Rp24
aa(lp25
F0.8030641078948975
a(F-1.5818522612201136
F-1.1960285345660608
F-2.0105488936053675
F-1.420342270527975
F1.5791946649551392
F-0.21022397676576787
tp26
a(lp27
F-0.09317658539632621
aF-0.1446880224956152
aF-0.007188480510134864
aF-0.14793773223585682
aF0.08051336892014843
aF-0.3
aa(lp28
(lp29
F-0.03575524094450086
aF0.020674778489696823
aF-0.0043912105666391935
aF-0.031153966281209103
aF0.07823809806659407
aF-0.6260040346775488
aaaF0.6000000238418579
a(lp30
F-2.8626487255096436
aF-0.8115944862365723
aag15
(g19
S'\x06\xf8\xad\xa1\xaf\xad\xf3\xbf'
p31
tp32
Rp33
aa(lp34
F1.2080731391906738
a(F-1.5859325567828577
F-1.1990001837359827
F-2.0071128050433558
F-1.430089298878805
F1.5965354442596436
F-0.3303292433368128
tp35
a(lp36
F-0.007583975094772882
aF-0.07297760393463205
aF-0.0064557571480727445
aF-0.06700233283052212
aF0.10378346143107035
aF-0.3
aa(lp37
(lp38
F-0.016446875063039264
aF-0.022413277286598823
aF0.009210419874639258
aF0.006475536575095361
aF0.044837254862281246
aF-0.5978603461135558
aaaF0.6000000238418579
a(lp39
F-4.001370906829834
aF-0.8990014791488647
aag15
(g19
S'\x0c1\xea\xe2b\xbc\xf1\xbf'
p40
tp41
Rp42
aa(lp43
F1.6084959506988525
a(F-1.5900004545794886
F-1.200653378163473
F-2.0035327116595667
F-1.4389494101153772
F1.6144863367080688
F-0.45254642168153936
tp44
a(lp45
F-0.09509366516812069
aF0.049994878659868444
aF0.03335694792734807
aF0.03305884666174314
aF0.07241339766568625
aF-0.3
aa(lp46
(lp47
F-0.012635886363184693
aF-0.005708398503247673
aF0.003212221661153104
aF-0.003428743070476862
aF0.02362050957068354
aF-0.5730491212889453
aaaF0.6000000238418579
a(lp48
F-4.551245212554932
aF-0.917072057723999
aag15
(g19
S'\xa3\x94\xa9\x93\xd7\x85\xef\xbf'
p49
tp50
Rp51
aa(lp52
F2.0085461139678955
a(F-1.5897253195392054
F-1.2015045324908655
F-2.003556553517477
F-1.4433015028582972
F1.6245219707489014
F-0.5726783911334437
tp53
a(lp54
F-0.019802969153977834
aF-0.03916062945964823
aF-0.01534795243351544
aF0.012072246520324296
aF0.08179570322286239
aF-0.3
aa(lp55
(lp56
F-0.002487475440269021
aF-0.0017672293756636824
aF0.0043878618903990625
aF-0.013431615391324984
aF0.01324442047005427
aF-0.5238183706871827
aaaF0.6000000238418579
a(lp57
F-4.8290815353393555
aF-0.8939496278762817
aag15
(g19
S'\xc4^\x9d\xbf\x13\xaa\xeb\xbf'
p58
tp59
Rp60
aa(lp61
F2.4091579914093018
a(F-1.5934341589557093
F-1.2050154844867151
F-2.0014975706683558
F-1.4532645384417933
F1.6352756023406982
F-0.6925237814532679
tp62
a(lp63
F-0.013577488335846273
aF-0.026954499218169607
aF-0.10176103004320065
aF0.07089858427936699
aF0.04031186304033254
aF-0.3
aa(lp64
(lp65
F0.009620996264119944
aF0.003542026420148321
aF0.0024437781956364894
aF-0.02205204568350866
aF-0.0025126179885892274
aF-0.4551260287191767
aaaF0.6000000238418579
a(lp66
F-4.985501766204834
aF-0.8381208181381226
aag15
(g19
S'C\xbc/m\xed\xce\xe7\xbf'
p67
tp68
Rp69
aa(lp70
F2.8098931312561035
a(F-1.5874879995929163
F-1.2022832075702112
F-1.9999049345599573
F-1.466968838368551
F1.6396344900131226
F-0.8126452604876917
tp71
a(lp72
F0.05503460876902089
aF-0.009495915690253005
aF-0.05613319255027255
aF-0.015194340330557594
aF-0.045514510074393826
aF-0.18743011480774924
aa(lp73
(lp74
F0.01347223740338096
aF0.00784182349219012
aF-0.0007056584760433658
aF-0.023318883299758238
aF-0.0118005989176923
aF-0.3800047189348146
aaaF0.6000000238418579
a(lp75
F-5.07536506652832
aF-0.7599866390228271
aag15
(g19
S'x\x923\xd7\xb0\xf5\xe3\xbf'
p76
tp77
Rp78
aa(lp79
F3.2101290225982666
a(F-1.5828216711627405
F-1.2008093039142054
F-2.000228230153219
F-1.4763320128070276
F1.6384012699127197
F-0.9325879255877894
tp80
a(lp81
F0.06872377106936922
aF0.033338385869681124
aF-0.0532735205552264
aF0.0343132803229885
aF0.04079137864216305
aF-0.29954857957783965
aa(lp82
(lp83
F0.010206781104890483
aF0.00848800858250166
aF-0.0030873103407479726
aF-0.017734603919913196
aF-0.016003445002804408
aF-0.30227309381894096
aaaF0.6000000238418579
a(lp84
F-5.087656021118164
aF-0.6334795951843262
aag15
(g19
S'\xa7\x00\xb4\xecJ#\xe0\xbf'
p85
tp86
Rp87
aas.