(dp0
S'data'
p1
(lp2
(lp3
F0.14066505432128906
a(lp4
F-1.5710480848895472
aF-1.1898816267596644
aF-2.0166547934161585
aF-1.3993132750140589
aF1.5406204462051392
aF-2.366701234990387e-05
aa(lp5
F0.3
aF-0.1100086348896103
aF-0.27033577108350987
aF0.3
aF0.06636487525520632
aF0.3
aa(lp6
(lp7
F0.05417867877919952
aF0.0272755550505998
aF-0.13620862415421725
aF0.5923114933949395
aF-0.0023262073076755485
aF0.05470891747064909
aaaF0.0
a(lp8
F0.32848843932151794
aF-0.4833436608314514
aF0.2806625962257385
aF-0.326473206281662
aF0.6348251104354858
aF-1.805119276046753
aF0.05820586159825325
aF1.5707436800003052
aacnumpy.core.multiarray
scalar
p9
(cnumpy
dtype
p10
(S'f8'
p11
I0
I1
tp12
Rp13
(I3
S'<'
p14
NNNI-1
I-1
I0
tp15
bS'\xfeM\x81\x90\x0b\xd7\xf5\xbf'
p16
tp17
Rp18
aa(lp19
F0.2785069942474365
a(lp20
F-1.572986904774801
aF-1.1994794050799769
aF-2.008561436329977
aF-1.3978503386126917
aF1.540513038635254
aF-0.0019181410418909195
aa(lp21
F0.3
aF-0.21047522571173743
aF-0.1371151680142198
aF0.3
aF-0.014746128084091554
aF0.2564664345361631
aa(lp22
(lp23
F0.05229285658143868
aF0.02483965527117071
aF-0.13147270220008697
aF0.5722362479813813
aF-0.0012364489161837528
aF0.053319090669988176
aaaF0.0
a(lp24
F0.349258691072464
aF-0.49500447511672974
aF0.28801295161247253
aF-0.3348832428455353
aF0.6403981447219849
aF-1.8228226900100708
aF0.058894459158182144
aF1.5785936117172241
aag9
(g13
S'\x1dy\xec"\x13\xdf\xf5\xbf'
p25
tp26
Rp27
aa(lp28
F0.42333292961120605
a(lp29
F-1.5752599875079554
aF-1.2107318083392542
aF-1.9988635222064417
aF-1.3958843390094202
aF1.5403093099594116
aF-0.0042565504657190445
aa(lp30
F0.3
aF-0.0850794088337329
aF-0.1868305672239576
aF0.22401677158707473
aF-0.0603944252907542
aF0.3
aa(lp31
(lp32
F0.04997826857373976
aF0.021824110567690996
aF-0.12489783863700099
aF0.544337372176787
aF-0.00038278019814815597
aF0.05148585040379413
aaaF0.0
a(lp33
F0.3730076551437378
aF-0.5085262060165405
aF0.2964490056037903
aF-0.3446969985961914
aF0.6467419862747192
aF-1.843298316001892
aF0.059742096811532974
aF1.587693452835083
aag9
(g13
S'\xb9\x86\x8db1\xe9\xf5\xbf'
p34
tp35
Rp36
aa(lp37
F0.5678410530090332
a(lp38
F-1.5771978537188929
aF-1.222534481679098
aF-1.9896557966815394
aF-1.3933070341693323
aF1.54008150100708
aF-0.006378952656881154
aa(lp39
F0.3
aF-0.1273902103523081
aF-0.22511654988007535
aF0.26419671657050464
aF-0.029751663139885802
aF0.3
aa(lp40
(lp41
F0.04768942144551757
aF0.018534893633425163
aF-0.11732059675316013
aF0.5121702699150015
aF0.00027333714924276725
aF0.04956117419802422
aaaF0.0
a(lp42
F0.391557514667511
aF-0.5192229747772217
aF0.30296483635902405
aF-0.3524388372898102
aF0.6516740322113037
aF-1.859391689300537
aF0.060528773814439774
aF1.5949190855026245
aag9
(g13
S'v\xf0[\x98\xaa\xf0\xf5\xbf'
p43
tp44
Rp45
aa(lp46
F0.7140219211578369
a(lp47
F-1.5788973013507288
aF-1.2342541853534144
aF-1.980579678212301
aF-1.3903210798846644
aF1.5397224426269531
aF-0.008129421864644826
aa(lp48
F0.3
aF-0.2186549651208436
aF-0.1557924949015581
aF0.28576251580209644
aF-0.020594412568714356
aF0.3
aa(lp49
(lp50
F0.045241946396946064
aF0.01435924931415823
aF-0.10645364273015255
aF0.4660189604414064
aF0.0005535410008480914
aF0.04765146172354711
aaaF0.0
a(lp51
F0.42551299929618835
aF-0.5374778509140015
aF0.31481438875198364
aF-0.3658606708049774
aF0.6608346700668335
aF-1.8877297639846802
aF0.061649445444345474
aF1.607743740081787
aag9
(g13
S'p\x04\xec_\x88\xf6\xf5\xbf'
p52
tp53
Rp54
aa(lp55
F0.8553750514984131
a(lp56
F-1.5803688208209437
aF-1.2461298147784632
aF-1.9720314184771937
aF-1.3868806997882288
aF1.539339303970337
aF-0.009664360676900685
aa(lp57
F0.3
aF-0.11534376119970692
aF-0.18664728655045132
aF0.22520383560195395
aF-0.0072658520081789225
aF0.2751150504560495
aa(lp58
(lp59
F0.04304490063574295
aF0.009919012042314806
aF-0.09399673746976164
aF0.41283713562897356
aF0.0005362908615455669
aF0.045874632003860626
aaaF0.0
a(lp60
F0.4599761664867401
aF-0.5557021498680115
aF0.3267824649810791
aF-0.3793695271015167
aF0.6701481342315674
aF-1.9162577390670776
aF0.06278488039970398
aF1.620747685432434
aag9
(g13
S'\xca\xd1l\xaa\x84\xfa\xf5\xbf'
p61
tp62
Rp63
aa(lp64
F1.0073599815368652
a(lp65
F-1.5816133658038538
aF-1.259167496358053
aF-1.9632189909564417
aF-1.3830798308001917
aF1.5389437675476074
aF-0.010899368916646779
aa(lp66
F0.3
aF-0.03289585868787655
aF-0.21615715907674485
aF0.20962073181975172
aF-0.0829304398753548
aF0.3
aa(lp67
(lp68
F0.04183587274037027
aF0.005411244163447637
aF-0.0810070522510244
aF0.3571505546451678
aF0.0001187629190308652
aF0.04510620243189755
aaaF0.0
a(lp69
F0.49845558404922485
aF-0.5755547881126404
aF0.3400754928588867
aF-0.3942200839519501
aF0.6805777549743652
aF-1.9476869106292725
aF0.0640001893043518
aF1.6351734399795532
aag9
(g13
S'a\xe5\rm\xec\xfc\xf5\xbf'
p70
tp71
Rp72
aa(lp73
F1.1429929733276367
a(lp74
F-1.5824268499957483
aF-1.2705162207232874
aF-1.9555557409869593
aF-1.3793752829181116
aF1.5385606288909912
aF-0.011798683797017873
aa(lp75
F0.3
aF-0.1221495748427609
aF-0.17294926876308422
aF0.2556667610325288
aF-0.004970485816787759
aF0.3
aa(lp76
(lp77
F0.04127277633970565
aF0.0020469534617711268
aF-0.07120943507720799
aF0.3149163322531068
aF-0.00039266741744667334
aF0.0449549611430688
aaaF0.0
a(lp78
F0.5301262140274048
aF-0.5918964147567749
aF0.3510119915008545
aF-0.40655776858329773
aF0.6891398429870605
aF-1.9736210107803345
aF0.06505130231380463
aF1.6471431255340576
aag9
(g13
S'\xc5\x05\xa5,\xe5\xfd\xf5\xbf'
p79
tp80
Rp81
aa(lp82
F1.2697689533233643
a(lp83
F-1.582893196736471
aF-1.2814810911761683
aF-1.9485991636859339
aF-1.3755744139300745
aF1.5380576848983765
aF-0.01233846346010381
aa(lp84
F0.3
aF-0.12556351631562213
aF-0.16385023775100946
aF0.26604043045572145
aF-0.06844867095697485
aF0.3
aa(lp85
(lp86
F0.0402764730592787
aF-0.0010081013401190735
aF-0.06257362297534408
aF0.2778238869592042
aF-0.0008325420222270461
aF0.04450236407194343
aaaF0.0
a(lp87
F0.5674939751625061
aF-0.610695481300354
aF0.3638598322868347
aF-0.4208982288837433
aF0.6992766857147217
aF-2.003838300704956
aF0.06623251736164093
aF1.661190390586853
aag9
(g13
S'uQ\x9d\xa5\xda\xfc\xf5\xbf'
p88
tp89
Rp90
aa(lp91
F1.4222819805145264
a(lp92
F-1.5831688086139124
aF-1.2946990172015589
aF-1.940876309071676
aF-1.3706706205951136
aF1.5375547409057617
aF-0.012781922017232716
aa(lp93
F0.3
aF-0.04096835759213174
aF-0.13615189929717547
aF0.2680677764562982
aF-0.02652049656452955
aF0.3
aa(lp94
(lp95
F0.03924355322201105
aF-0.0040270426788710624
aF-0.05398971559640418
aF0.2409716495255136
aF-0.0013731797297194483
aF0.044087123893090684
aaaF0.0
a(lp96
F0.6019333600997925
aF-0.6278928518295288
aF0.3755907416343689
aF-0.43408265709877014
aF0.7086093425750732
aF-2.031569480895996
aF0.06742055714130402
aF1.6742128133773804
aag9
(g13
S'\xe1\xd9]\x8f\xc2\xf9\xf5\xbf'
p97
tp98
Rp99
aa(lp100
F1.5740740299224854
a(lp101
F-1.583240811024801
aF-1.307868782673971
aF-1.9330571333514612
aF-1.3653958479510706
aF1.5369319915771484
aF-0.012914005910054982
aa(lp102
F0.3
aF-0.05678701630782284
aF-0.22816647007018848
aF0.2798569001528435
aF-0.04106017473517744
aF0.3
aa(lp103
(lp104
F0.038031473182656934
aF-0.008172248023108989
aF-0.04331702490443479
aF0.19823249577306143
aF-0.0020670949632114024
aF0.04337315962427719
aaaF0.0
a(lp105
F0.6495960354804993
aF-0.6512701511383057
aF0.39199113845825195
aF-0.4523499310016632
aF0.7215455770492554
aF-2.0697712898254395
aF0.06885714828968048
aF1.692129135131836
aag9
(g13
S'\xc9\x1c\xd3@\xb1\xf5\xf5\xbf'
p106
tp107
Rp108
aa(lp109
F1.719161033630371
a(lp110
F-1.5830729643451136
aF-1.320643726979391
aF-1.9259923140155237
aF-1.3599770704852503
aF1.5362491607666016
aF-0.012949768696920216
aa(lp111
F0.3
aF-0.11208543426227875
aF-0.27685779077789074
aF0.24601954779461188
aF-0.046247433029426924
aF0.3
aa(lp112
(lp113
F0.037763168344041066
aF-0.01300583051208317
aF-0.03293823390443452
aF0.15857441082006282
aF-0.002763336307892408
aF0.042624482177681736
aaaF0.0
a(lp114
F0.6919122338294983
aF-0.6718149185180664
aF0.40646427869796753
aF-0.4685651957988739
aF0.7330226898193359
aF-2.103565216064453
aF0.07021529972553253
aF1.7081342935562134
aag9
(g13
S'\xda\x85[\x83~\xf0\xf5\xbf'
p115
tp116
Rp117
aa(lp118
F1.8561301231384277
a(lp119
F-1.5824983755694788
aF-1.3323877493487757
aF-1.9196580092059534
aF-1.3546655813800257
aF1.5356148481369019
aF-0.012602154408590138
aa(lp120
F0.3
aF-0.07519097366508756
aF-0.1708150127628879
aF0.24394340666894737
aF-0.06866637890150694
aF0.3
aa(lp121
(lp122
F0.03600817779438591
aF-0.014743242440029251
aF-0.03043635090428502
aF0.14254058278001294
aF-0.0022335129858792294
aF0.04013037634918614
aaaF0.0
a(lp123
F0.7293078303337097
aF-0.6897627115249634
aF0.41921788454055786
aF-0.48289117217063904
aF0.7431583404541016
aF-2.133298873901367
aF0.07143555581569672
aF1.7223161458969116
aag9
(g13
S'N\x07\x9aC\xa1\xe9\xf5\xbf'
p124
tp125
Rp126
aa(lp127
F1.9993770122528076
a(lp128
F-1.5815056006061
aF-1.3451741377459925
aF-1.9132517019854944
aF-1.3487308661090296
aF1.534980058670044
aF-0.011846844349996388
aa(lp129
F0.3
aF-0.06911099740655746
aF-0.3
aF0.20810552006446015
aF-0.023596394807180184
aF0.3
aa(lp130
(lp131
F0.035194277938830364
aF-0.017957840500048644
aF-0.023042307376020348
aF0.11833666771744804
aF-0.0035815977570332
aF0.038336998108889346
aaaF0.0
a(lp132
F0.766353189945221
aF-0.7072046995162964
aF0.43175625801086426
aF-0.49693819880485535
aF0.7532098293304443
aF-2.1624579429626465
aF0.07266445457935333
aF1.7363518476486206
aag9
(g13
S'\x8a\x14\xf8\x98\x1b\xe0\xf5\xbf'
p133
tp134
Rp135
aa(lp136
F2.154772996902466
a(lp137
F-1.580153767262594
aF-1.3587396780597132
aF-1.9069531599627894
aF-1.3419931570636194
aF1.5339621305465698
aF-0.010599438344137013
aa(lp138
F0.3
aF-0.09910265275084942
aF-0.3
aF0.27944928049905754
aF-0.11783078400346897
aF0.3
aa(lp139
(lp140
F0.0357642899936277
aF-0.019433835017481763
aF-0.016651501313216483
aF0.09799508632307401
aF-0.0033958414019866624
aF0.03979206080068878
aaaF0.0
a(lp141
F0.8300027251243591
aF-0.7365673780441284
aF0.45361143350601196
aF-0.521160364151001
aF0.7705161571502686
aF-2.2123684883117676
aF0.07442823052406311
aF1.7602951526641846
aag9
(g13
S'H[\xd1\xa8~\xd3\xf5\xbf'
p142
tp143
Rp144
aa(lp145
F2.3029820919036865
a(lp146
F-1.5785625616656702
aF-1.3722098509417933
aF-1.9008343855487269
aF-1.3349435965167444
aF1.5330760478973389
aF-0.009100739155904591
aa(lp147
F0.3
aF-0.057986789214721036
aF-0.2524450374082116
aF0.15821568069019581
aF-0.05949930615400071
aF0.3
aa(lp148
(lp149
F0.03335175340374371
aF-0.020333058577701058
aF-0.012629322003671417
aF0.08142015266371268
aF-0.003287157257379393
aF0.03671914710500987
aaaF0.0026971325278282166
a(lp150
F0.8875945806503296
aF-0.7627198696136475
aF0.47340571880340576
aF-0.5431681871414185
aF0.7861604690551758
aF-2.2573399543762207
aF0.07600253820419312
aF1.7820149660110474
aag9
(g13
S'\xc0\xf1\xd7\x89\xc7\xc5\xf5\xbf'
p151
tp152
Rp153
aa(lp154
F2.4484591484069824
a(lp155
F-1.5770185629474085
aF-1.3852728048907679
aF-1.895745102559225
aF-1.3278582731830042
aF1.5321660041809082
aF-0.007422272359029591
aa(lp156
F0.3
aF0.023887925673461832
aF-0.295283666085533
aF0.3
aF-0.0032162413900032744
aF0.3
aa(lp157
(lp158
F0.03166568231556464
aF-0.020883564426940667
aF-0.009387618153085555
aF0.07232693858456143
aF-0.0034536931736532774
aF0.03417958394191192
aaaF0.11743775010108948
a(lp159
F0.9545685648918152
aF-0.792424738407135
aF0.49658578634262085
aF-0.5687878131866455
aF0.8043770790100098
aF-2.309302806854248
aF0.07761915028095245
aF1.8071722984313965
aag9
(g13
S'\xf5\x8f-\x91\x15\xb7\xf5\xbf'
p160
tp161
Rp162
aa(lp163
F2.5978140830993652
a(lp164
F-1.5750325361834925
aF-1.397963825856344
aF-1.8910630385028284
aF-1.3205564657794397
aF1.5311356782913208
aF-0.0055993239032190445
aa(lp165
F0.3
aF0.011351594542130916
aF-0.24940833203141666
aF0.3
aF-0.04278634163998458
aF0.3
aa(lp166
(lp167
F0.03079739748337823
aF-0.021935839255626973
aF-0.0068099294789857445
aF0.06255683981158353
aF-0.0034158738162159866
aF0.03358492435297931
aaaF0.21035189181566238
a(lp168
F1.0125385522842407
aF-0.8178145289421082
aF0.5165464878082275
aF-0.5910682678222656
aF0.8201146125793457
aF-2.354149103164673
aF0.07914569973945618
aF1.8291414976119995
aag9
(g13
S'*\xb5\x97\xa2\xc9\xa6\xf5\xbf'
p169
tp170
Rp171
aa(lp172
F2.7340030670166016
a(lp173
F-1.5727232138263147
aF-1.4108589331256312
aF-1.8867042700396937
aF-1.3127878347979944
aF1.5301177501678467
aF-0.0034411589251917007
aa(lp174
F0.3
aF-0.023734899006220316
aF-0.3
aF0.2692365351384665
aF-0.05759699881832504
aF0.3
aa(lp175
(lp176
F0.030314800285166945
aF-0.02287627880365339
aF-0.004780816567924378
aF0.05545908636341797
aF-0.003382203967199983
aF0.03327443713205384
aaaF0.3012320250272751
a(lp177
F1.0700315237045288
aF-0.8425349593162537
aF0.5363581776618958
aF-0.6132097244262695
aF0.8357181549072266
aF-2.3983936309814453
aF0.08062092959880829
aF1.8509576320648193
aag9
(g13
S'\xafU\xb0\xbf\\\x94\xf5\xbf'
p178
tp179
Rp180
aa(lp181
F2.879439115524292
a(lp182
F-1.5701749960528772
aF-1.4228556791888636
aF-1.8831475416766565
aF-1.3048632780658167
aF1.5291478633880615
aF-0.0011270681964319351
aa(lp183
F0.3
aF-0.08395089277771482
aF-0.3
aF0.2310211150547751
aF0.020283926459248564
aF0.3
aa(lp184
(lp185
F0.029845610998713107
aF-0.023771833632186972
aF-0.0028456962897094526
aF0.04940516626239187
aF-0.003316937219905045
aF0.032600507853246107
aaaF0.38085650404294324
a(lp186
F1.1207292079925537
aF-0.8639931678771973
aF0.553791880607605
aF-0.6327782869338989
aF0.8494678735733032
aF-2.437239170074463
aF0.08194597065448761
aF1.8702706098556519
aag9
(g13
S'\xbb\xf4o\x19\\\x80\xf5\xbf'
p187
tp188
Rp189
aa(lp190
F3.022268056869507
a(lp191
F-1.5669801870929163
aF-1.4362419287311
aF-1.879650894795553
aF-1.2957757155047815
aF1.5279381275177002
aF0.001822725753299892
aa(lp192
F0.3
aF-0.08272856151153928
aF-0.24832867225380398
aF0.27799737136364877
aF-0.015155737128570473
aF0.3
aa(lp193
(lp194
F0.029441699264604326
aF-0.02449527422187741
aF-0.0011462179752554178
aF0.0437023620182927
aF-0.0031922383172443346
aF0.03194058276661523
aaaF0.4647324706117312
a(lp195
F1.1824134588241577
aF-0.8896770477294922
aF0.5750954151153564
aF-0.656714916229248
aF0.8661900758743286
aF-2.4843578338623047
aF0.08347386121749878
aF1.8937901258468628
aag9
(g13
S'\x1b:\xb3\x14\xebg\xf5\xbf'
p196
tp197
Rp198
aa(lp199
F3.151616096496582
a(lp200
F-1.5641921202289026
aF-1.4477832953082483
aF-1.8769562880145472
aF-1.2877910772906702
aF1.526908278465271
aF0.004604938440024853
aa(lp201
F0.3
aF0.017983689842322056
aF-0.3
aF0.2228607858370157
aF-0.028195626386560018
aF0.3
aa(lp202
(lp203
F0.029082713127783592
aF-0.02507502241429935
aF0.00024164716579067893
aF0.03957553582902427
aF-0.003099826472017352
aF0.03140692596789055
aaaF0.524337953577439
a(lp204
F1.2426185607910156
aF-0.9143152236938477
aF0.5961146354675293
aF-0.680310845375061
aF0.8825032711029053
aF-2.530275344848633
aF0.08477607369422913
aF1.916711449623108
aag9
(g13
S'\xfb\x8d\xa6]\x1cR\xf5\xbf'
p205
tp206
Rp207
aa(lp208
F3.303173065185547
a(lp209
F-1.5608895460711878
aF-1.4609301725970667
aF-1.8741067091571253
aF-1.2781036535846155
aF1.5255428552627563
aF0.007974003441631794
aa(lp210
F0.3
aF-0.07615563977271897
aF-0.2401628785112117
aF0.2888702198423543
aF0.001672389854299395
aF0.3
aa(lp211
(lp212
F0.02865757823549125
aF-0.025458976124691085
aF0.0013947189259756723
aF0.03564455847281398
aF-0.002931320281867037
aF0.0307972124896127
aaaF0.5828633507092793
a(lp213
F1.3220096826553345
aF-0.9464367628097534
aF0.6241582632064819
aF-0.7119970321655273
aF0.9039666652679443
aF-2.5910112857818604
aF0.08633050322532654
aF1.947066068649292
aag9
(g13
S'\x0fA\\u\xfe7\xf5\xbf'
p214
tp215
Rp216
aa(lp217
F3.445712089538574
a(lp218
F-1.557551685963766
aF-1.473933521901266
aF-1.8715322653399866
aF-1.2685721556292933
aF1.5244649648666382
aF0.011031853966414928
aa(lp219
F0.3
aF0.017382383981513046
aF-0.2540451764339246
aF0.23999953226675994
aF0.009540758930057243
aF0.3
aa(lp220
(lp221
F0.028384971040275247
aF-0.025896061796927345
aF0.002606121691696338
aF0.03180402760863864
aF-0.002788711143911058
aF0.030363912142719395
aaaF0.6
a(lp222
F1.3732268810272217
aF-0.9666199684143066
aF0.6419649124145508
aF-0.7322502732276917
aF0.9178147315979004
aF-2.6297335624694824
aF0.08751393854618073
aF1.9667725563049316
aag9
(g13
S'n\xc8\x19]2\x1f\xf5\xbf'
p223
tp224
Rp225
aa(lp226
F3.556520938873291
a(lp227
F-1.5548237005816858
aF-1.4836891333209437
aF-1.8696282545672815
aF-1.2612593809710901
aF1.5234709978103638
aF0.013513712212443352
aa(lp228
F0.3
aF0.023660315234717195
aF-0.29028347423458517
aF0.2300902851428204
aF-0.026131453810325934
aF0.3
aa(lp229
(lp230
F0.028055334842341278
aF-0.026116519756003695
aF0.0033991431555301086
aF0.02917733236652292
aF-0.002633202426278255
aF0.02990876682185993
aaaF0.6
a(lp231
F1.4173287153244019
aF-0.9839158058166504
aF0.6574485898017883
aF-0.7499663829803467
aF0.9297138452529907
aF-2.663217544555664
aF0.088468536734581
aF1.9838088750839233
aag9
(g13
S'iD>{\xc9\x0b\xf5\xbf'
p232
tp233
Rp234
aa(lp235
F3.6654369831085205
a(lp236
F-1.5524781386004847
aF-1.4927495161639612
aF-1.8680952231036585
aF-1.254317585621969
aF1.5226088762283325
aF0.015768244862556458
aa(lp237
F0.3
aF-0.020060570616956368
aF-0.25551941998465894
aF0.25074643751114656
aF-0.007840077604037269
aF0.3
aa(lp238
(lp239
F0.02768199945527849
aF-0.026385532378818945
aF0.004251728425535224
aF0.026820521077521853
aF-0.002476448918033283
aF0.02945644567436109
aaaF0.6
a(lp240
F1.4606419801712036
aF-1.0007007122039795
aF0.6728022694587708
aF-0.7675299644470215
aF0.9413942098617554
aF-2.696110725402832
aF0.08929614722728729
aF2.0005245208740234
aag9
(g13
S'M\xf1\xfa\xb74\xfa\xf4\xbf'
p241
tp242
Rp243
aa(lp244
F3.7812321186065674
a(lp245
F-1.5498579184161585
aF-1.5036080519305628
aF-1.8661912123309534
aF-1.246260944996969
aF1.5214831829071045
aF0.018454208970069885
aa(lp246
F0.3
aF-0.018158633656455286
aF-0.20108527380939464
aF0.1529061634558656
aF-6.372448828295685e-05
aF0.3
aa(lp247
(lp248
F0.027261971261542364
aF-0.02657604832323746
aF0.005041074048976718
aF0.02436815666526753
aF-0.0022797775606707626
aF0.028970198634760823
aaaF0.6
a(lp249
F1.521036148071289
aF-1.0238988399505615
aF0.6944946646690369
aF-0.7924155592918396
aF0.9576518535614014
aF-2.7421350479125977
aF0.09028495848178864
aF2.023859977722168
aag9
(g13
S'\x81H\x1c?\x9a\xe6\xf4\xbf'
p250
tp251
Rp252
aa(lp253
F3.9073281288146973
a(lp254
F-1.5469382444964808
aF-1.514909569417135
aF-1.864466969166891
aF-1.2375090757953089
aF1.5203334093093872
aF0.021319936960935593
aa(lp255
F0.3
aF0.0526950053577627
aF-0.23339938263823123
aF0.2493816691498362
aF-0.057210036026527765
aF0.3
aa(lp256
(lp257
F0.026863732662686914
aF-0.02672877580256164
aF0.005795149928035585
aF0.021863762131308844
aF-0.0020760264255972384
aF0.028504396867884706
aaaF0.5663594144086043
a(lp258
F1.5774894952774048
aF-1.0452377796173096
aF0.7147802710533142
aF-0.8158245086669922
aF0.9728314876556396
aF-2.7850513458251953
aF0.09122014045715332
aF2.045769453048706
aag9
(g13
S'\xb2\xa7UUD\xd1\xf4\xbf'
p259
tp260
Rp261
aa(lp262
F4.014003038406372
a(lp263
F-1.544389549885885
aF-1.5239108244525355
aF-1.8631976286517542
aF-1.2305195967303675
aF1.5195308923721313
aF0.023658359423279762
aa(lp264
F0.3
aF0.07549127831810391
aF-0.27707568274360306
aF0.3
aF-0.010830371098458993
aF0.3
aa(lp265
(lp266
F0.026428671740645962
aF-0.027005197305699304
aF0.006726441779002363
aF0.01963538209082432
aF-0.0018906138780214376
aF0.02801287031805664
aaaF0.5195200045903523
a(lp267
F1.611402988433838
aF-1.0577914714813232
aF0.7268147468566895
aF-0.8297691345214844
aF0.98195481300354
aF-2.810587167739868
aF0.0918683260679245
aF2.058978319168091
aag9
(g13
S'9\xff\x8e\x87\xd9\xbf\xf4\xbf'
p268
tp269
Rp270
aa(lp271
F4.142171144485474
a(lp272
F-1.541290585194723
aF-1.5352357069598597
aF-1.8616884390460413
aF-1.2217195669757288
aF1.5183331966400146
aF0.026476524770259857
aa(lp273
F0.3
aF0.0963870974349405
aF-0.19009098466338858
aF0.24021944652009786
aF0.04315528955612116
aF0.3
aa(lp274
(lp275
F0.025831919243319262
aF-0.027234641002480967
aF0.007704981378631295
aF0.016926632810812664
aF-0.001621091986518618
aF0.027350196293588543
aaaF0.4456746305028597
a(lp276
F1.6593177318572998
aF-1.075495958328247
aF0.7440129518508911
aF-0.8498086333274841
aF0.9948176145553589
aF-2.8468878269195557
aF0.0927053689956665
aF2.0777127742767334
aag9
(g13
S'\x9f\x1eg&\xe8\xaa\xf4\xbf'
p277
tp278
Rp279
aa(lp280
F4.29276704788208
a(lp281
F-1.5379403273211878
aF-1.548563305531637
aF-1.8600838820086878
aF-1.2109420935260218
aF1.5169321298599243
aF0.029989775270223618
aa(lp282
F0.3
aF-0.03846871049916352
aF-0.23356412228847817
aF0.15680423890648182
aF-0.03155773770241657
aF0.3
aa(lp283
(lp284
F0.02529645268668571
aF-0.02732187515729842
aF0.008515021308907276
aF0.014429674335064072
aF-0.0013495089959880801
aF0.02679357385944916
aaaF0.37454648315906525
a(lp285
F1.7310367822647095
aF-1.1017303466796875
aF0.7703491449356079
aF-0.880535900592804
aF1.0140222311019897
aF-2.9015817642211914
aF0.09358566999435425
aF2.1057288646698
aag9
(g13
S'i%N\x9b\x8b\x92\xf4\xbf'
p286
tp287
Rp288
aa(lp289
F4.429286003112793
a(lp290
F-1.5346859137164515
aF-1.5602734724627894
aF-1.8588865439044397
aF-1.2013152281390589
aF1.515782356262207
aF0.03314349800348282
aa(lp291
F0.3
aF0.11386969480648151
aF-0.265182160125736
aF0.14321539302570813
aF-0.01481518816961048
aF0.3
aa(lp292
(lp293
F0.02471967683244135
aF-0.02750463741002232
aF0.009484205820060427
aF0.011971653439458576
aF-0.0010726830456841674
aF0.02618356145702156
aaaF0.2977067828178406
a(lp294
F1.7814780473709106
aF-1.1198099851608276
aF0.7887841463088989
aF-0.902180552482605
aF1.0275208950042725
aF-2.939846992492676
aF0.09426812827587128
aF2.1255276203155518
aag9
(g13
S'\xdaA\x19\x05n|\xf4\xbf'
p295
tp296
Rp297
aa(lp298
F4.583781957626343
a(lp299
F-1.5307729879962366
aF-1.5737088362323206
aF-1.8576887289630335
aF-1.1905730406390589
aF1.5143929719924927
aF0.03676460683345795
aa(lp300
F0.3
aF0.0302825752502481
aF-0.25335143106003355
aF0.22629473581460408
aF-0.06494931953815047
aF0.3
aa(lp301
(lp302
F0.024055314396337506
aF-0.027648735501687238
aF0.01049989027377757
aF0.009085269419157353
aF-0.0007453039820383377
aF0.025463642958391125
aaaF0.19385965913534164
a(lp303
F1.833725094795227
aF-1.1382578611373901
aF0.807843029499054
aF-0.9246786236763
aF1.0414921045303345
aF-2.9793713092803955
aF0.09501460194587708
aF2.1461198329925537
aag9
(g13
S'\xd7\xbd\x95\xf5\x88c\xf4\xbf'
p304
tp305
Rp306
aa(lp307
F4.726524114608765
a(lp308
F-1.5271113554583948
aF-1.5857303778277796
aF-1.8567188421832483
aF-1.1801789442645472
aF1.5130399465560913
aF0.0402662493288517
aa(lp309
F0.3
aF0.09425103799716199
aF-0.19147562583403627
aF0.16044098709671117
aF0.016226570909723285
aF0.3
aa(lp310
(lp311
F0.023443323135114453
aF-0.02768112171592995
aF0.011324952803651471
aF0.006822719716561028
aF-0.00043608938353993654
aF0.02481463768936942
aaaF0.11709496130545927
a(lp312
F1.8866785764694214
aF-1.1568658351898193
aF0.8274697661399841
aF-0.9479882717132568
aF1.0556111335754395
aF-3.0197224617004395
aF0.09561960399150848
aF2.1670634746551514
aag9
(g13
S'\xc1\xdc3\x9b\xefK\xf4\xbf'
p313
tp314
Rp315
aa(lp316
F4.878035068511963
a(lp317
F-1.5231745878802698
aF-1.5987704435931605
aF-1.8560126463519495
aF-1.1690295378314417
aF1.511638879776001
aF0.044127415865659714
aa(lp318
F0.3
aF0.03892906241899863
aF-0.3
aF0.17706159449106781
aF0.029760143153490654
aF0.3
aa(lp319
(lp320
F0.022815607660477792
aF-0.027712791738949517
aF0.012191081904394463
aF0.004405870885165001
aF-0.00011092232900371257
aF0.024161696030534044
aaaF0.028956207136313084
a(lp321
F1.9425989389419556
aF-1.1761974096298218
aF0.8483219146728516
aF-0.9728134870529175
aF1.070505142211914
aF-3.06229567527771
aF0.09617814421653748
aF2.1892056465148926
aag9
(g13
S'\xd3A\x93\xe2\xbe2\xf4\xbf'
p322
tp323
Rp324
aa(lp325
F5.030709981918335
a(lp326
F-1.5186875502215784
aF-1.6111872831927698
aF-1.8555572668658655
aF-1.1578438917743128
aF1.5101059675216675
aF0.04828856140375137
aa(lp327
F0.3
aF0.06326394320299783
aF-0.13564270764423955
aF0.17373767834722006
aF-0.06510833759499363
aF0.28102408953590663
aa(lp328
(lp329
F0.022294557907829318
aF-0.0275187074174296
aF0.012709501615949245
aF0.00231919248098499
aF0.0001907514820011461
aF0.023586938756730146
aaaF0.0
a(lp330
F1.9930781126022339
aF-1.1934646368026733
aF0.8671623468399048
aF-0.9954333305358887
aF1.0839269161224365
aF-3.1007509231567383
aF0.09671002626419067
aF2.209315299987793
aag9
(g13
S'Q\x90`\xf5\x93\x17\xf4\xbf'
p331
tp332
Rp333
aa(lp334
F5.160135984420776
a(lp335
F-1.5148828665362757
aF-1.6214945952044886
aF-1.8554852644549769
aF-1.1482294241534632
aF1.5089802742004395
aF0.05196959152817726
aa(lp336
F0.3
aF0.07532867966522162
aF-0.18019055496183334
aF0.1632189382952282
aF-0.07070584898260907
aF0.3
aa(lp337
(lp338
F0.02184128570421558
aF-0.027415584638253478
aF0.013304536753326305
aF0.0006037286833408353
aF0.0004367522590867118
aF0.023112381044668583
aaaF0.0
a(lp339
F2.0338752269744873
aF-1.2072103023529053
aF0.882493793964386
aF-1.0138546228408813
aF1.0947644710540771
aF-3.1318023204803467
aF0.09706099331378937
aF2.2255587577819824
aag9
(g13
S'\x19b\x92\xe8\x1a\x00\xf4\xbf'
p340
tp341
Rp342
aa(lp343
F5.2964160442352295
a(lp344
F-1.510981861745016
aF-1.6324856917010706
aF-1.8554490248309534
aF-1.1379426161395472
aF1.507698655128479
aF0.05596296116709709
aa(lp345
F0.3
aF0.10547422427537005
aF-0.2224016834501282
aF0.11903862964657708
aF-0.019139170668284414
aF0.3
aa(lp346
(lp347
F0.021385670354294284
aF-0.027247827626404122
aF0.013826768033488028
aF-0.0010227911448297522
aF0.000692894995593645
aF0.022667598972793065
aaaF0.0
a(lp348
F2.0839052200317383
aF-1.2239985466003418
aF0.901604413986206
aF-1.0369004011154175
aF1.1080164909362793
aF-3.1701576709747314
aF0.0973396748304367
aF2.2455203533172607
aag9
(g13
S'-Q\xe0\x86\xe3\xe7\xf3\xbf'
p349
tp350
Rp351
aa(lp352
F5.44603705406189
a(lp353
F-1.5060156027423304
aF-1.644207779561178
aF-1.8557608763324183
aF-1.1262782255755823
aF1.5060100555419922
aF0.060627445578575134
aa(lp354
F0.3
aF0.08335782681344422
aF-0.27553526916000115
aF0.20523240532975703
aF-0.11614784382769777
aF0.3
aa(lp355
(lp356
F0.020920291835999864
aF-0.026880018472794334
aF0.01413112461802939
aF-0.0027235749532822495
aF0.0009921619803498606
aF0.022170419141683568
aaaF0.0
a(lp357
F2.133730173110962
aF-1.2405943870544434
aF0.9206340312957764
aF-1.060072898864746
aF1.121192216873169
aF-3.208430290222168
aF0.09767498075962067
aF2.265551805496216
aag9
(g13
S')\x87\xb7\x85\x8a\xca\xf3\xbf'
p358
tp359
Rp360
aa(lp361
F5.589699983596802
a(lp362
F-1.5012410322772425
aF-1.6550667921649378
aF-1.8566587607013147
aF-1.1149848143206995
aF1.5044292211532593
aF0.06536383926868439
aa(lp363
F0.3
aF0.180768061277843
aF-0.3
aF0.21469426492769594
aF-0.0011814614264538878
aF0.3
aa(lp364
(lp365
F0.020521339869435495
aF-0.026504586598295393
aF0.014402033390840221
aF-0.0041918862377755915
aF0.0012682628740927975
aF0.02177687591445158
aaaF0.0
a(lp366
F2.184265375137329
aF-1.257235050201416
aF0.9401834607124329
aF-1.0839208364486694
aF1.1345267295837402
aF-3.2473764419555664
aF0.09787385165691376
aF2.285878896713257
aag9
(g13
S'\xe0\x7fq;/\xad\xf3\xbf'
p367
tp368
Rp369
aa(lp370
F5.741995096206665
a(lp371
F-1.4960358778582972
aF-1.666513744984762
aF-1.8578084150897425
aF-1.1030686537372034
aF1.5027406215667725
aF0.0705324113368988
aa(lp372
F0.3
aF0.0922380644182104
aF-0.2572715581181057
aF0.19602341001298954
aF0.023601750756745914
aF0.3
aa(lp373
(lp374
F0.0201659102449512
aF-0.026036864806110865
aF0.01454945771946506
aF-0.0056381871033108774
aF0.0015400847673831262
aF0.02142935735185695
aaaF0.0
a(lp375
F2.235602378845215
aF-1.273953914642334
aF0.960174024105072
aF-1.1084197759628296
aF1.1480474472045898
aF-3.2870187759399414
aF0.09802472591400146
aF2.3065927028656006
aag9
(g13
S'<I95\xe3\x8d\xf3\xbf'
p376
tp377
Rp378
aa(lp379
F5.892159938812256
a(lp380
F-1.4906509558307093
aF-1.6766532103167933
aF-1.8592098394977015
aF-1.091703240071432
aF1.5009560585021973
aF0.07559274882078171
aa(lp381
F0.3
aF0.09676886646944143
aF-0.26736263540602223
aF0.1295688384406316
aF-0.046390062619171765
aF0.3
aa(lp382
(lp383
F0.019848125006424935
aF-0.025497554536824032
aF0.014573921461342088
aF-0.0068735009894392565
aF0.001808296418209715
aF0.021091106186260953
aaaF0.0
a(lp384
F2.2793853282928467
aF-1.2881293296813965
aF0.9772742986679077
aF-1.1295567750930786
aF1.1595571041107178
aF-3.3209457397460938
aF0.09817014634609222
aF2.3243768215179443
aag9
(g13
S'\xdab_\xd2en\xf3\xbf'
p385
tp386
Rp387
aa(lp388
F6.036654949188232
a(lp389
F-1.4850629011737269
aF-1.6874049345599573
aF-1.8610175291644495
aF-1.0793307463275355
aF1.499267339706421
aF0.0811803936958313
aa(lp390
F0.3
aF0.117122903466187
aF-0.2779785243833177
aF0.17261748343635716
aF0.00904407654582148
aF0.3
aa(lp391
(lp392
F0.019616131098036588
aF-0.024904674900122256
aF0.014532260869742745
aF-0.007933786181093971
aF0.0020391683848857735
aF0.020876589861486713
aaaF0.0
a(lp393
F2.3266255855560303
aF-1.303248405456543
aF0.9959551692008972
aF-1.15265691280365
aF1.1719484329223633
aF-3.357652187347412
aF0.09819246828556061
aF2.3435542583465576
aag9
(g13
S'<L\xae\xb4\xd0L\xf3\xbf'
p394
tp395
Rp396
aa(lp397
F6.173190116882324
a(lp398
F-1.4795945326434534
aF-1.696873966847555
aF-1.8628023306476038
aF-1.0682299772845667
aF1.4975907802581787
aF0.08640926331281662
aa(lp399
F0.3
aF0.03417926482422637
aF-0.26732898242052944
aF0.14275074661790124
aF0.11422654626089657
aF0.3
aa(lp400
(lp401
F0.019434749977652432
aF-0.02430007859195598
aF0.014393176021267265
aF-0.008792175630091058
aF0.0022482221096231086
aF0.02068359092843836
aaaF0.0
a(lp402
F2.3653206825256348
aF-1.3155500888824463
aF1.0112823247909546
aF-1.1717413663864136
aF1.1820833683013916
aF-3.3877837657928467
aF0.09823043644428253
aF2.3593485355377197
aag9
(g13
S'S\\Q\x05[-\xf3\xbf'
p403
tp404
Rp405
aa(lp406
F6.33355712890625
a(lp407
F-1.4732754866229456
aF-1.7071698347674769
aF-1.8653290907489222
aF-1.0549705664264124
aF1.495686411857605
aF0.09278861433267593
aa(lp408
F0.3
aF0.17469055740997733
aF-0.17156931822820418
aF0.1341574017410191
aF-0.0076884944824657745
aF0.3
aa(lp409
(lp410
F0.019394696895741692
aF-0.023476338127999038
aF0.01398947531037431
aF-0.009155209628642798
aF0.002405066727947829
aF0.020663133481992297
aaaF0.0
a(lp411
F2.413163423538208
aF-1.3306795358657837
aF1.030539631843567
aF-1.1957694292068481
aF1.194573163986206
aF-3.4252922534942627
aF0.09812679886817932
aF2.3789021968841553
aag9
(g13
S'\x87\xd5\xac\x9cf\x07\xf3\xbf'
p412
tp413
Rp414
aa(lp415
F6.479469060897827
a(lp416
F-1.4669693152057093
aF-1.7165072599994105
aF-1.8678434530841272
aF-1.0429704825030726
aF1.494045615196228
aF0.098844014108181
aa(lp417
F0.3
aF0.11441363198310983
aF-0.2320478207135115
aF0.05241299576961064
aF-0.002940523241600988
aF0.3
aa(lp418
(lp419
F0.019434491406717855
aF-0.022672388043781543
aF0.013526598154915507
aF-0.009429364520505927
aF0.0025117856439331354
aF0.020669025731513607
aaaF0.0
a(lp420
F2.4472434520721436
aF-1.3413041830062866
aF1.0441642999649048
aF-1.212857723236084
aF1.2034714221954346
aF-3.4518966674804688
aF0.09811024367809296
aF2.392876386642456
aag9
(g13
S'\xe3O%\x99_\xe3\xf2\xbf'
p421
tp422
Rp423
aa(lp424
F6.588787078857422
a(lp425
F-1.4621346632586878
aF-1.72369891801943
aF-1.869927231465475
aF-1.0335715452777308
aF1.492896318435669
aF0.10356917232275009
aa(lp426
F0.3
aF0.11258997067063337
aF-0.20558863329910382
aF0.04215150273047281
aF0.012020759161353839
aF0.3
aa(lp427
(lp428
F0.019458129691970912
aF-0.022115885124904946
aF0.013267096226912575
aF-0.00957766371985998
aF0.002589520620258114
aF0.02067219503875065
aaaF0.0
a(lp429
F2.4719181060791016
aF-1.3489360809326172
aF1.0540796518325806
aF-1.2253048419952393
aF1.2099055051803589
aF-3.471174716949463
aF0.09807078540325165
aF2.4029958248138428
aag9
(g13
S'\x88\xec\xeb\x82\xbd\xc7\xf2\xbf'
p430
tp431
Rp432
aa(lp433
F6.703871011734009
a(lp434
F-1.457024876271383
aF-1.7304952780352991
aF-1.8722384611712855
aF-1.0240290800677698
aF1.491662621498108
aF0.10852165520191193
aa(lp435
F0.3
aF0.21056952798227502
aF-0.2035016741157393
aF0.13571626463505948
aF0.012559952422583016
aF0.3
aa(lp436
(lp437
F0.01956239522947702
aF-0.021479764107690494
aF0.01285739169476542
aF-0.009394223172678863
aF0.0026349055675802266
aF0.020740453950787666
aaaF0.0
a(lp438
F2.4960429668426514
aF-1.3563892841339111
aF1.063821792602539
aF-1.2375818490982056
aF1.2161864042282104
aF-3.4900925159454346
aF0.09801977872848511
aF2.4129207134246826
aag9
(g13
S'%\x9fw\xe3}\xaa\xf2\xbf'
p439
tp440
Rp441
aa(lp442
F6.820375919342041
a(lp443
F-1.4513886610614222
aF-1.7375314871417444
aF-1.874800984059469
aF-1.0144379774676722
aF1.4910997152328491
aF0.11406136304140091
aa(lp444
F0.3
aF0.18908380562931879
aF-0.21885636580876136
aF0.0711546859931061
aF-0.01955912607782198
aF0.3
aa(lp445
(lp446
F0.019793767133028918
aF-0.02080945611377689
aF0.012507470886681768
aF-0.009246650959378891
aF0.0025876173425744137
aF0.02090856265224234
aaaF0.0
a(lp447
F2.509787082672119
aF-1.3603867292404175
aF1.0691226720809937
aF-1.2441850900650024
aF1.219791293144226
aF-3.5004146099090576
aF0.09805083274841309
aF2.4184703826904297
aag9
(g13
S'E\xa6\x1b\x86\xcd\x8a\xf2\xbf'
p448
tp449
Rp450
aa(lp451
F6.982784032821655
a(lp452
F-1.4437897841082972
aF-1.7465089003192347
aF-1.8786690870868128
aF-1.0023420492755335
aF1.4904409646987915
aF0.12165261805057526
aa(lp453
F0.3
aF0.16091414968398143
aF-0.22542079216302824
aF0.0326586025684178
aF-0.030893508344539727
aF0.3
aa(lp454
(lp455
F0.020085726012271314
aF-0.01998875405124372
aF0.01219141428612389
aF-0.00905203478801902
aF0.002569246649639853
aF0.021116175780114554
aaaF0.0
a(lp456
F2.5278050899505615
aF-1.3655872344970703
aF1.076085090637207
aF-1.2528393268585205
aF1.2245128154754639
aF-3.5139150619506836
aF0.09807781875133514
aF2.4257256984710693
aag9
(g13
S'\xfea\xc5\xdd\xe2_\xf2\xbf'
p457
tp458
Rp459
aa(lp460
F7.127654075622559
a(lp461
F-1.4363697210894983
aF-1.7540844122516077
aF-1.882608715687887
aF-0.9914692083941858
aF1.4898542165756226
aF0.12924350798130035
aa(lp462
F0.3
aF0.1693009778606505
aF-0.11614334391032205
aF0.14812153646962117
aF0.021359497891034383
aF0.3
aa(lp463
(lp464
F0.02050429949241864
aF-0.019112439377572055
aF0.01176397286847969
aF-0.00841417223021028
aF0.002471504820773062
aF0.02144303032319146
aaaF0.0
a(lp465
F2.5458288192749023
aF-1.3708184957504272
aF1.0831587314605713
aF-1.261643648147583
aF1.229217767715454
aF-3.5275301933288574
aF0.09805504977703094
aF2.4329874515533447
aag9
(g13
S'\xa9\xca\xda\xb7_5\xf2\xbf'
p466
tp467
Rp468
aa(lp469
F7.271326065063477
a(lp470
F-1.4282200972186487
aF-1.7611921469317835
aF-1.8869436422931116
aF-0.980715576802389
aF1.4891713857650757
aF0.1371699422597885
aa(lp471
F0.3
aF0.10319237496074901
aF-0.2634870214936111
aF0.1903047488928931
aF0.025287487431263488
aF0.27662605401071944
aa(lp472
(lp473
F0.020902587019600502
aF-0.01824101083472524
aF0.011357490686232857
aF-0.007831653749022211
aF0.002401970404722526
aF0.021704166887215947
aaaF0.0
a(lp474
F2.558622121810913
aF-1.374413251876831
aF1.087949514389038
aF-1.26762855052948
aF1.2325773239135742
aF-3.5369131565093994
aF0.09813182055950165
aF2.4381229877471924
aag9
(g13
S'\x11L_\x96\xcb\x07\xf2\xbf'
p475
tp476
Rp477
aa(lp478
F7.485098123550415
a(lp479
F-1.4155824820147913
aF-1.7705658117877405
aF-1.8945840040790003
aF-0.9648554960833948
aF1.4881415367126465
aF0.14985711872577667
aa(lp480
F0.26040972007137675
aF0.08978831618994208
aF-0.18627684763280314
aF0.0824175784676245
aF0.028882310117647185
aF0.3
aa(lp481
(lp482
F0.021604485440025495
aF-0.01689223518530184
aF0.010694564000077695
aF-0.006654516752133007
aF0.0022038655639489532
aF0.022197252622426656
aaaF0.0
a(lp483
F2.5820260047912598
aF-1.3811392784118652
aF1.0970571041107178
aF-1.279025673866272
aF1.2386806011199951
aF-3.554495334625244
aF0.09813494980335236
aF2.4475584030151367
aag9
(g13
S'\x9f\x119\xb0g\xbe\xf1\xbf'
p484
tp485
Rp486
aa(lp487
F7.600618124008179
a(lp488
F-1.4090002218829554
aF-1.77513295808901
aF-1.898726765309469
aF-0.9564998785602015
aF1.487554669380188
aF0.15665629506111145
aa(lp489
F0.2911623372011675
aF0.1867973886561014
aF-0.19357070014941108
aF-0.037208075797800805
aF0.030919198477356996
aF0.3
aa(lp490
(lp491
F0.021973598187308888
aF-0.016198509788531597
aF0.010356952917819559
aF-0.005974235232404613
aF0.002066697411924762
aF0.022459800259086032
aaaF0.06051233410835266
a(lp492
F2.5968313217163086
aF-1.3854955434799194
aF1.1030173301696777
aF-1.2865182161331177
aF1.242517113685608
aF-3.5658912658691406
aF0.0980679988861084
aF2.4535725116729736
aag9
(g13
S'm\x1a3\t\x97\x97\xf1\xbf'
p493
tp494
Rp495
aa(lp496
F7.719334125518799
a(lp497
F-1.4019034544574183
aF-1.779543701802389
aF-1.9030974547015589
aF-0.9482758680926722
aF1.4868959188461304
aF0.1636599451303482
aa(lp498
F0.3
aF0.1594239911103178
aF-0.22952427275042797
aF0.09544833392301519
aF0.0016427972331754612
aF0.3
aa(lp499
(lp500
F0.022269251815229627
aF-0.015556381530757156
aF0.01009239111941946
aF-0.005435201051445504
aF0.0019724897602937225
aF0.022626643509190265
aaaF0.12262105693419767
a(lp501
F2.6079604625701904
aF-1.3886995315551758
aF1.107344627380371
aF-1.2919812202453613
aF1.2454135417938232
aF-3.574277877807617
aF0.09808096289634705
aF2.4580843448638916
aag9
(g13
S'\x07vo\xa1\xe1n\xf1\xbf'
p502
tp503
Rp504
aa(lp505
F7.836848974227905
a(lp506
F-1.3936813513385218
aF-1.7844703833209437
aF-1.9082940260516565
aF-0.9390214125262659
aF1.4862492084503174
aF0.17185041308403015
aa(lp507
F0.3
aF0.1692240350249894
aF-0.2581332080397563
aF-0.0009153153408256454
aF0.008599595367953516
aF0.27219879593662705
aa(lp508
(lp509
F0.022599140446338022
aF-0.0148042901282691
aF0.009773900336255194
aF-0.004875103140218932
aF0.0018291152976630727
aF0.022807965555009437
aaaF0.18963226179281867
a(lp510
F2.62001895904541
aF-1.3921438455581665
aF1.1120251417160034
aF-1.2978800535202026
aF1.2485496997833252
aF-3.583324909210205
aF0.09809094667434692
aF2.4629554748535156
aag9
(g13
S'\xcb\x03\x1d\x10\xb2?\xf1\xbf'
p511
tp512
Rp513
aa(lp514
F7.95051908493042
a(lp515
F-1.3863447348224085
aF-1.78835374513735
aF-1.9130242506610315
aF-0.9308932463275355
aF1.4856982231140137
aF0.17924955487251282
aa(lp516
F0.3
aF0.15981852197759594
aF-0.24091782871860998
aF0.06667401935784831
aF-0.05285757166161186
aF0.3
aa(lp517
(lp518
F0.022853868580015493
aF-0.014196315025945677
aF0.00957673425028142
aF-0.004332323649656905
aF0.0016895625890599388
aF0.022925150674386954
aaaF0.25315765043099714
a(lp519
F2.630830764770508
aF-1.3952503204345703
aF1.1162774562835693
aF-1.3032444715499878
aF1.2513527870178223
aF-3.5914976596832275
aF0.0980747789144516
aF2.4673259258270264
aag9
(g13
S'\xab\xd5q\x03\x0e\x15\xf1\xbf'
p520
tp521
Rp522
aa(lp523
F8.062114953994751
a(lp524
F-1.3787568251239222
aF-1.7920821348773401
aF-1.9181492964373987
aF-0.9227059523211878
aF1.4851233959197998
aF0.18675655126571655
aa(lp525
F0.3
aF0.16722606313188879
aF-0.17909098780672225
aF0.0022977526515230925
aF-0.030996305444781824
aF0.20559914981555957
aa(lp526
(lp527
F0.023038545810550395
aF-0.013656138406857575
aF0.009446162055563508
aF-0.003888401560138594
aF0.001576900945982473
aF0.022968447791591545
aaaF0.30884993324677146
a(lp528
F2.639880895614624
aF-1.3978074789047241
aF1.1197490692138672
aF-1.3076337575912476
aF1.253706455230713
aF-3.5982303619384766
aF0.09809477627277374
aF2.4709742069244385
aag9
(g13
S'\x85\x8e\xdb4\x07\xe9\xf0\xbf'
p529
tp530
Rp531
aa(lp532
F8.182615995407104
a(lp533
F-1.3705585638629358
aF-1.7958696524249476
aF-1.923788849507467
aF-0.9141343275653284
aF1.4844406843185425
aF0.19509083032608032
aa(lp534
F0.3
aF0.14356041576181922
aF-0.16609832897875698
aF0.006583306385566347
aF0.04467862834577189
aF0.3
aa(lp535
(lp536
F0.02323693726221664
aF-0.013083395149208803
aF0.009296467195949808
aF-0.003318590896017179
aF0.0014239104424341024
aF0.023020698388216767
aaaF0.37279646595319105
a(lp537
F2.652949810028076
aF-1.4016308784484863
aF1.1250088214874268
aF-1.3143048286437988
aF1.2570788860321045
aF-3.608294725418091
aF0.09804396331310272
aF2.4763011932373047
aag9
(g13
S'Z?\xb0\x0b\xf7\xb8\xf0\xbf'
p538
tp539
Rp540
aa(lp541
F8.303813934326172
a(lp542
F-1.361941162739889
aF-1.799189869557516
aF-1.929835621510641
aF-0.9055388609515589
aF1.4837819337844849
aF0.20354533195495605
aa(lp543
F0.2947498221160475
aF0.17634703540058447
aF-0.2780244662693107
aF0.009921812956117541
aF0.019079718738093932
aF0.29936504845624506
aa(lp544
(lp545
F0.023365892753728874
aF-0.012543623403228666
aF0.009173051573504506
aF-0.0028280728717686686
aF0.001269594248274619
aF0.022987110527836786
aaaF0.42986369132995605
a(lp546
F2.6613309383392334
aF-1.4039777517318726
aF1.128177523612976
aF-1.3183320760726929
aF1.2592581510543823
aF-3.6144752502441406
aF0.0980796217918396
aF2.4796762466430664
aag9
(g13
S'\xf4\xa9E]\xb7\x86\xf0\xbf'
p547
tp548
Rp549
aa(lp550
F8.431187152862549
a(lp551
F-1.3531325499164026
aF-1.8024142424212855
aF-1.935798470173971
aF-0.8969081083880823
aF1.4830396175384521
aF0.2123720794916153
aa(lp552
F0.2461384413631677
aF0.16014807123530633
aF-0.22231052566459408
aF0.060195999299391456
aF0.05203200246042355
aF0.3
aa(lp553
(lp554
F0.02346983044838885
aF-0.012033507452335395
aF0.009102123583227918
aF-0.002253865727455505
aF0.00109063895853403
aF0.02292504416288995
aaaF0.4919915683567524
a(lp555
F2.672358989715576
aF-1.4071831703186035
aF1.1325695514678955
aF-1.3239312171936035
aF1.2621022462844849
aF-3.6229147911071777
aF0.09805285930633545
aF2.484168767929077
aag9
(g13
S'\xa3\xb6\x84\xba\x91S\xf0\xbf'
p556
tp557
Rp558
aa(lp559
F8.542142152786255
a(lp560
F-1.3443830649005335
aF-1.8055303732501429
aF-1.9419897238360804
aF-0.888228718434469
aF1.4823448657989502
aF0.2212819755077362
aa(lp561
F0.2690971190502087
aF0.17385093983950545
aF-0.3
aF0.07057624453602805
aF-0.050373290207014906
aF0.3
aa(lp562
(lp563
F0.023519935749659
aF-0.011585705801545877
aF0.00909325223010197
aF-0.0017345056038598427
aF0.0009122018997299486
aF0.022819306358795047
aaaF0.5482693736751874
a(lp564
F2.6841726303100586
aF-1.4106446504592896
aF1.1373597383499146
aF-1.3300364017486572
aF1.2651389837265015
aF-3.632056474685669
aF0.09799298644065857
aF2.4889931678771973
aag9
(g13
S'Q\x1b\x8a`K \xf0\xbf'
p565
tp566
Rp567
aa(lp568
F8.662569999694824
a(lp569
F-1.3351429144488733
aF-1.8084676901446741
aF-1.948383633290426
aF-0.8796933333026331
aF1.4816502332687378
aF0.2304442971944809
aa(lp570
F0.26856539004146274
aF0.17916684922075535
aF-0.26246444083555137
aF0.022239923036415223
aF-0.032919673203332785
aF0.3
aa(lp571
(lp572
F0.0235278767352469
aF-0.011166194939421063
aF0.00909326166916779
aF-0.0012745309914118735
aF0.0007481725515208067
aF0.022663068525605165
aaaF0.5968340896070004
a(lp573
F2.692904233932495
aF-1.4131356477737427
aF1.1407512426376343
aF-1.3343744277954102
aF1.2673935890197754
aF-3.6386208534240723
aF0.09800015389919281
aF2.4925315380096436
aag9
(g13
S'\xf3\xcdi)N\xd6\xef\xbf'
p574
tp575
Rp576
aa(lp577
F8.781221151351929
a(lp578
F-1.3262136618243616
aF-1.81093675294985
aF-1.9548853079425257
aF-0.8717935721026819
aF1.4810513257980347
aF0.2392822802066803
aa(lp579
F0.22576647826709725
aF0.21477794620166663
aF-0.24473837961959014
aF0.10051354374689908
aF-0.04395555613569707
aF0.3
aa(lp580
(lp581
F0.023496367989680106
aF-0.010854437720120663
aF0.009173426551740369
aF-0.0009147994335692542
aF0.0006001390967885825
aF0.022485268638059712
aaaF0.6
a(lp582
F2.7002980709075928
aF-1.4152179956436157
aF1.143576979637146
aF-1.3379881381988525
aF1.269304871559143
aF-3.6441102027893066
aF0.09802009165287018
aF2.4955132007598877
aag9
(g13
S'\xcc\rJ\x1f\x91n\xef\xbf'
p583
tp584
Rp585
aa(lp586
F8.907838106155396
a(lp587
F-1.3160994688617151
aF-1.8135021368609827
aF-1.962428394948141
aF-0.8625748793231409
aF1.4802488088607788
aF0.24947598576545715
aa(lp588
F0.25914392867778013
aF0.08607907890032995
aF-0.25980616573530385
aF-0.07790954796344464
aF0.03389180642801935
aF0.1774415474907158
aa(lp589
(lp590
F0.02344520230363561
aF-0.010527294456326051
aF0.00926405302748029
aF-0.0004881402400064277
aF0.0004229879658988263
aF0.022283338463973464
aaaF0.6
a(lp591
F2.7113192081451416
aF-1.4184461832046509
aF1.1480345726013184
aF-1.3437050580978394
aF1.2721316814422607
aF-3.6526412963867188
aF0.09797284007072449
aF2.5000245571136475
aag9
(g13
S'\xd6\xe7Lp\xe6\xf7\xee\xbf'
p592
tp593
Rp594
aa(lp595
F9.0396249294281
a(lp596
F-1.3062484900103968
aF-1.8157432715045374
aF-1.9696129004107874
aF-0.854039494191305
aF1.4794585704803467
aF0.2593577206134796
aa(lp597
F0.3
aF0.06552557816092164
aF-0.2136773822775353
aF-0.0010984368855240165
aF-0.07680291299185969
aF0.2591882473125187
aa(lp598
(lp599
F0.02337052109527879
aF-0.010280057467333665
aF0.009392213719082068
aF-0.0001082118944707751
aF0.00025662330538133837
aF0.02207251428968078
aaaF0.6
a(lp600
F2.7211742401123047
aF-1.4213340282440186
aF1.152011513710022
aF-1.348821997642517
aF1.2746572494506836
aF-3.6602673530578613
aF0.09793621301651001
aF2.504063367843628
aag9
(g13
S'\x84\xc8\xdcE\x96\x85\xee\xbf'
p601
tp602
Rp603
aa(lp604
F9.150259971618652
a(lp605
F-1.2955477873431605
aF-1.8180449644671839
aF-1.9773591200457972
aF-0.8448932806598108
aF1.4786800146102905
aF0.2701989710330963
aa(lp606
F0.2817330963363241
aF0.1713342328656332
aF-0.1501483844774386
aF0.046406576261922926
aF0.05762821469317195
aF0.3
aa(lp607
(lp608
F0.023271135769036985
aF-0.009990347117035048
aF0.009400692491002463
aF0.0003568752163420428
aF6.766717376664125e-05
aF0.021840585901266397
aaaF0.6
a(lp609
F2.7316603660583496
aF-1.4244099855422974
aF1.156275749206543
aF-1.3543058633804321
aF1.2773377895355225
aF-3.6684069633483887
aF0.09788146615028381
aF2.508357048034668
aag9
(g13
S'\xdc\xd8\x10V\xfc\t\xee\xbf'
p610
tp611
Rp612
aa(lp613
F9.299046993255615
a(lp614
F-1.2826321760760706
aF-1.8147128264056605
aF-1.9832499662982386
aF-0.8435505072223108
aF1.4778294563293457
aF0.28312695026397705
aa(lp615
F0.26379782639635757
aF0.19123238080459276
aF-0.24957176142750867
aF-0.08222878484428674
aF-0.1049220582041494
aF0.3
aa(lp616
(lp617
F0.023310322923821035
aF-0.009797838115471452
aF0.009450691457424247
aF0.0013596698251543266
aF-0.00026426571932154945
aF0.021695797621814117
aaaF0.6
a(lp618
F2.738450527191162
aF-1.4263406991958618
aF1.1588220596313477
aF-1.3576301336288452
aF1.2790641784667969
aF-3.6733555793762207
aF0.09790089726448059
aF2.5110585689544678
aag9
(g13
S'\xe1p\x12\xdd\tp\xed\xbf'
p619
tp620
Rp621
aa(lp622
F9.43118405342102
a(lp623
F-1.2710922400103968
aF-1.8107569853412073
aF-1.9880755583392542
aF-0.8435748259173792
aF1.4770393371582031
aF0.29460370540618896
aa(lp624
F0.21936528027916768
aF0.13396237987148485
aF-0.13562556133247206
aF0.04321364445238485
aF0.05457970651512552
aF0.29402987277405906
aa(lp625
(lp626
F0.02333329922359531
aF-0.010043480947407583
aF0.009713050893270797
aF0.0022315898321165176
aF-0.0004981444466130472
aF0.021611542523615378
aaaF0.6
a(lp627
F2.7431161403656006
aF-1.4276450872421265
aF1.1604846715927124
aF-1.3598263263702393
aF1.2802484035491943
aF-3.6766347885131836
aF0.09793694317340851
aF2.5128872394561768
aag9
(g13
S'e\xeeGc\x89\xe5\xec\xbf'
p628
tp629
Rp630
aa(lp631
F9.581866025924683
a(lp632
F-1.2567876021014612
aF-1.8058059851275843
aF-1.9944451490985315
aF-0.8437545935260218
aF1.475985050201416
aF0.3088870346546173
aa(lp633
F0.2683331367912459
aF0.15891244374246605
aF-0.13601666587198757
aF0.07196895152986557
aF0.029946237726358217
aF0.293708053686103
aa(lp634
(lp635
F0.023471390940684775
aF-0.010548387048947498
aF0.009952512410620406
aF0.003188635972106819
aF-0.0006638206098498528
aF0.02168904645883581
aaaF0.6
a(lp636
F2.7508323192596436
aF-1.429902195930481
aF1.1634609699249268
aF-1.3637416362762451
aF1.2822024822235107
aF-3.6824116706848145
aF0.09794329106807709
aF2.5160012245178223
aag9
(g13
S'\xb3$\x85\xbbS8\xec\xbf'
p637
tp638
Rp639
aa(lp640
F9.711957931518555
a(lp641
F-1.2445295492755335
aF-1.8011916319476526
aF-2.0000246206866663
aF-0.8438504377948206
aF1.4751468896865845
aF0.3213476240634918
aa(lp642
F0.22326421219569267
aF0.24743880759592385
aF-0.15819412377481096
aF0.018130266413486848
aF0.03106882924416473
aF0.2814788958333252
aa(lp643
(lp644
F0.023540198240836693
aF-0.011317456364792164
aF0.010356526968404394
aF0.003843913833929122
aF-0.0007212255382319345
aF0.021742395975928842
aaaF0.6
a(lp645
F2.758120536804199
aF-1.4320544004440308
aF1.166372537612915
aF-1.3675450086593628
aF1.2840392589569092
aF-3.687971830368042
aF0.09790816903114319
aF2.5189473628997803
aag9
(g13
S"\xd0\x89:'m\xa1\xeb\xbf"
p646
tp647
Rp648
aa(lp649
F9.887242078781128
a(lp650
F-1.2265847365008753
aF-1.7977636496173304
aF-2.010824505482809
aF-0.8388875166522425
aF1.4739491939544678
aF0.3390127718448639
aa(lp651
F0.2739044011439193
aF0.15867022191978036
aF-0.12809988592054808
aF0.00873482191738692
aF-0.01177201437795053
aF0.23609404376580231
aa(lp652
(lp653
F0.02356139147224644
aF-0.012126700501797235
aF0.010912299100877659
aF0.004181993088764644
aF-0.000730841207743881
aF0.021731049528320123
aaaF0.6
a(lp654
F2.765753746032715
aF-1.4342354536056519
aF1.169188380241394
aF-1.3712700605392456
aF1.285987138748169
aF-3.693549394607544
aF0.09796132147312164
aF2.5220158100128174
aag9
(g13
S'2"\x02\xed\xf1\xc8\xea\xbf'
p655
tp656
Rp657
aa(lp658
F10.011255979537964
a(lp659
F-1.2133563200580042
aF-1.7934125105487269
aF-2.0177086035357874
aF-0.8370893637286585
aF1.4730867147445679
aF0.35244444012641907
aa(lp660
F0.29989280122052947
aF0.18539561208748562
aF-0.19237500192418772
aF0.06469323490557363
aF0.006997597515723833
aF0.15672841123442122
aa(lp661
(lp662
F0.02351451070204118
aF-0.012633865951085874
aF0.011226951682440844
aF0.0043348294142821035
aF-0.0007048456993483244
aF0.021687043573379486
aaaF0.6
a(lp663
F2.7721071243286133
aF-1.4360891580581665
aF1.1716890335083008
aF-1.3745406866073608
aF1.2875860929489136
aF-3.6983306407928467
aF0.09793262183666229
aF2.5245606899261475
aag9
(g13
S'\xf5\xea\xb3J\xb3%\xea\xbf'
p664
tp665
Rp666
aa(lp667
F10.126446008682251
a(lp668
F-1.2022107283221644
aF-1.7889412085162562
aF-2.023167912160055
aF-0.8370893637286585
aF1.4724043607711792
aF0.36356207728385925
aa(lp669
F0.2096189737288339
aF0.1761208223596885
aF-0.14758111204739616
aF0.004440252208885808
aF-0.03671265064300684
aF0.25082275404284976
aa(lp670
(lp671
F0.023484844619179587
aF-0.012977807251760794
aF0.011533002488856652
aF0.004308620547609132
aF-0.0006985813090409302
aF0.021660463671305863
aaaF0.6
a(lp672
F2.7753734588623047
aF-1.437002182006836
aF1.172825813293457
aF-1.3760613203048706
aF1.2884092330932617
aF-3.7005887031555176
aF0.09795966744422913
aF2.5258257389068604
aag9
(g13
S'\xe6:\xd4o\xd3\x9b\xe9\xbf'
p673
tp674
Rp675
aa(lp676
F10.248942136764526
a(lp677
F-1.1885502974139612
aF-1.7833674589740198
aF-2.030076328908102
aF-0.837137524281637
aF1.4714584350585938
aF0.3773899972438812
aa(lp678
F0.21172600202612224
aF0.13734066597382721
aF-0.15500171395494253
aF-0.01190965386238605
aF0.03795105198037603
aF0.23615126460957345
aa(lp679
(lp680
F0.023532251230841295
aF-0.012969505659921604
aF0.011578640356915306
aF0.0041886566875887245
aF-0.0006881844328475578
aF0.02172263310820914
aaaF0.6
a(lp681
F2.782405376434326
aF-1.4391111135482788
aF1.175673484802246
aF-1.3798094987869263
aF1.2901746034622192
aF-3.7060348987579346
aF0.09791873395442963
aF2.5286929607391357
aag9
(g13
S'\xb5\xda\x8b\xc2\x05\xf1\xe8\xbf'
p682
tp683
Rp684
aa(lp685
F10.383381128311157
a(lp686
F-1.1735013167010706
aF-1.7773140112506312
aF-2.037295166646139
aF-0.8372810522662562
aF1.4705603122711182
aF0.39238113164901733
aa(lp687
F0.23563301301121858
aF0.19481192940366102
aF-0.05264851688244096
aF0.06723549523136906
aF0.06388804479802615
aF0.2445064477919986
aa(lp688
(lp689
F0.02342388536136351
aF-0.012942229793737626
aF0.01170470898687894
aF0.003981470414210965
aF-0.0006924822620887972
aF0.02160900479824075
aaaF0.6
a(lp690
F2.7860569953918457
aF-1.440123438835144
aF1.1768934726715088
aF-1.381461262702942
aF1.2910923957824707
aF-3.708491325378418
aF0.09796030819416046
aF2.5300893783569336
aag9
(g13
S'\x8d\xe5&\x97\xf97\xe8\xbf'
p691
tp692
Rp693
aa(lp694
F10.49435806274414
a(lp695
F-1.1607382933246058
aF-1.771968189870016
aF-2.043868366871969
aF-0.8374369780169886
aF1.469733715057373
aF0.40534543991088867
aa(lp696
F0.15776927059679477
aF0.21256469066031164
aF-0.17403832089412385
aF-0.0007118951691341357
aF0.009958008964160783
aF0.2681053946650367
aa(lp697
(lp698
F0.023376718123325566
aF-0.0128604705275026
aF0.011770466991961603
aF0.003814572511492915
aF-0.0007068221660939851
aF0.021555851974508752
aaaF0.6
a(lp699
F2.79235577583313
aF-1.4420249462127686
aF1.1794737577438354
aF-1.3848592042922974
aF1.292669653892517
aF-3.7134110927581787
aF0.0979142040014267
aF2.5326647758483887
aag9
(g13
S'CMm\xe9\xc7\x97\xe7\xbf'
p700
tp701
Rp702
aa(lp703
F10.620334148406982
a(lp704
F-1.1455443541156214
aF-1.7654712835894983
aF-2.051770035420553
aF-0.8375805060016077
aF1.4688832759857178
aF0.4205886423587799
aa(lp705
F0.12877491602926683
aF0.14168225637303614
aF-0.2007576017732185
aF-0.037384571437101985
aF0.02103941106150994
aF0.14950815139847892
aa(lp706
(lp707
F0.02322705543296685
aF-0.012762807244421958
aF0.011857561289226824
aF0.003624216687427813
aF-0.0007215793542421655
aF0.021373325694440937
aaaF0.6
a(lp708
F2.7965850830078125
aF-1.4432395696640015
aF1.1810120344161987
aF-1.3869186639785767
aF1.2937283515930176
aF-3.71643328666687
aF0.09792828559875488
aF2.5343213081359863
aag9
(g13
S'\xa4\xedD\x02\x82\xd9\xe6\xbf'
p709
tp710
Rp711
aa(lp712
F10.783447027206421
a(lp713
F-1.1258490721331995
aF-1.756829086934225
aF-2.0621255079852503
aF-0.837844196950094
aF1.4677695035934448
aF0.4401974380016327
aa(lp714
F0.1646665627194291
aF0.24625773032172793
aF-0.18676445799550376
aF-0.0010964262243625456
aF-0.046522765525610375
aF0.1772308301142101
aa(lp715
(lp716
F0.0229487903351739
aF-0.012873501280938874
aF0.01218132544408522
aF0.0034287396562486553
aF-0.0007832526546633842
aF0.021029652711976064
aaaF0.6
a(lp717
F2.800502300262451
aF-1.4443296194076538
aF1.1822887659072876
aF-1.3886693716049194
aF1.2947099208831787
aF-3.7190372943878174
aF0.09797871112823486
aF2.5358104705810547
aag9
(g13
S'\xb0\x05{\xc0\xdc\xe2\xe5\xbf'
p718
tp719
Rp720
aa(lp721
F10.896656036376953
a(lp722
F-1.1118152777301233
aF-1.7506445089923304
aF-2.0693329016314905
aF-0.8380125204669397
aF1.4669673442840576
aF0.4543013870716095
aa(lp723
F0.2366498547174241
aF0.1687177756983756
aF-0.13241699910693583
aF-0.011995593009829525
aF-0.00373337903231755
aF0.19203903181749096
aa(lp724
(lp725
F0.022723815095124323
aF-0.012804683662370722
aF0.012256899018067277
aF0.0033124911390296488
aF-0.0008093633625488018
aF0.020753820604439636
aaaF0.6
a(lp726
F2.8038227558135986
aF-1.4452826976776123
aF1.183478593826294
aF-1.390271544456482
aF1.2955372333526611
aF-3.7213802337646484
aF0.09798838198184967
aF2.537097215652466
aag9
(g13
S'\x85(\xb1[n3\xe5\xbf'
p727
tp728
Rp729
aa(lp730
F11.007074117660522
a(lp731
F-1.097602669392721
aF-1.7444112936602991
aF-2.0768631140338343
aF-0.8383482138263147
aF1.4662246704101562
aF0.4685974419116974
aa(lp732
F0.22402364754205223
aF0.05423569939366585
aF-0.13040104443631403
aF0.0675818947086947
aF-0.04275519757957145
aF0.26554967683747244
aa(lp733
(lp734
F0.02257375918538956
aF-0.012713824094077848
aF0.012285320435167633
aF0.003224827920864956
aF-0.0008409705033147639
aF0.020557903401611618
aaaF0.6
a(lp735
F2.807736873626709
aF-1.4464362859725952
aF1.1849586963653564
aF-1.3922549486160278
aF1.2965137958526611
aF-3.7242684364318848
aF0.09798687696456909
aF2.5386524200439453
aag9
(g13
S'\x88\xebk1T\x81\xe4\xbf'
p736
tp737
Rp738
aa(lp739
F11.120492935180664
a(lp740
F-1.083125416432516
aF-1.7377951780902308
aF-2.0848000685321253
aF-0.8387554327594202
aF1.4654101133346558
aF0.48315751552581787
aa(lp741
F0.14329712781174558
aF0.14074159697266883
aF-0.2847594451362234
aF-0.004801239639903286
aF-0.029460873872421023
aF0.21467814402000615
aa(lp742
(lp743
F0.022482610333176604
aF-0.012626074021987134
aF0.012297524636226465
aF0.003160233181343595
aF-0.0008859981871577913
aF0.020428705591740492
aaaF0.6
a(lp744
F2.8121402263641357
aF-1.4477598667144775
aF1.1866894960403442
aF-1.394569993019104
aF1.2976125478744507
aF-3.72762393951416
aF0.09797181189060211
aF2.540433168411255
aag9
(g13
S'\x19k*\x8cV\xca\xe3\xbf'
p745
tp746
Rp747
aa(lp748
F11.246977090835571
a(lp749
F-1.0661934057818812
aF-1.7302072683917444
aF-2.093862835560934
aF-0.8390792051898401
aF1.4645479917526245
aF0.5000676512718201
aa(lp750
F0.1549223913901582
aF0.13236337100899664
aF-0.17746358610015298
aF0.06330826780734186
aF0.003769675232816106
aF0.14398289322893223
aa(lp751
(lp752
F0.02228528841526766
aF-0.012517805221686966
aF0.012295609548743744
aF0.0030973795282742073
aF-0.0009435801989779039
aF0.02018405936474036
aaaF0.6
a(lp753
F2.8149666786193848
aF-1.4485586881637573
aF1.1876118183135986
aF-1.395845890045166
aF1.2983163595199585
aF-3.7295100688934326
aF0.09800311923027039
aF2.541504144668579
aag9
(g13
S'\x8f\x17s \xc2\xf6\xe2\xbf'
p754
tp755
Rp756
aa(lp757
F11.35794997215271
a(lp758
F-1.051295582448141
aF-1.7232196966754358
aF-2.101560417805807
aF-0.8395708242999476
aF1.4637813568115234
aF0.5149996280670166
aa(lp759
F0.12545788079828896
aF0.1608613541645611
aF-0.1259425266140287
aF-0.04893623533429815
aF0.049690146605181
aF0.183387101539991
aa(lp760
(lp761
F0.022002814337005346
aF-0.012504430008542797
aF0.012361600556464304
aF0.0030581658989461114
aF-0.0009948687190855223
aF0.019866254020264904
aaaF0.6
a(lp762
F2.8166587352752686
aF-1.4490054845809937
aF1.1880643367767334
aF-1.3964927196502686
aF1.2987327575683594
aF-3.730478286743164
aF0.09803548455238342
aF2.5420920848846436
aag9
(g13
S'\xab\x17\xd3\xa3\xcd<\xe2\xbf'
p763
tp764
Rp765
aa(lp766
F11.481913089752197
a(lp767
F-1.0352490584002894
aF-1.7156685034381312
aF-2.110299889241354
aF-0.8401339689837855
aF1.4629907608032227
aF0.5312625765800476
aa(lp768
F0.10906787076847102
aF0.13816853626947423
aF-0.07525302614197371
aF-0.0459725538655697
aF0.002383516302139692
aF0.09924532216144387
aa(lp769
(lp770
F0.021861361895429608
aF-0.01235930264761152
aF0.012283597534077166
aF0.003033853026036354
aF-0.0010418311457871163
aF0.019707574342960284
aaaF0.6
a(lp771
F2.820869207382202
aF-1.450271487236023
aF1.1897270679473877
aF-1.3987120389938354
aF1.299776554107666
aF-3.7336769104003906
aF0.09800894558429718
aF2.543778896331787
aag9
(g13
S'\xd7\xbe\x06\xe8\x89r\xe1\xbf'
p772
tp773
Rp774
aa(lp775
F11.583313941955566
a(lp776
F-1.0209859053241175
aF-1.7089560667621058
aF-2.118260685597555
aF-0.8407815138446253
aF1.4624278545379639
aF0.5454751253128052
aa(lp777
F0.13162178065686614
aF0.1056090819893659
aF-0.22350459192568867
aF0.014398895746420745
aF0.030553059965394664
aF0.13667035823867676
aa(lp778
(lp779
F0.021769373107523526
aF-0.012353131745419686
aF0.01231188901272898
aF0.003027935706317724
aF-0.0011059113649269322
aF0.019600648385547717
aaaF0.6
a(lp780
F2.8225879669189453
aF-1.4507490396499634
aF1.1902247667312622
aF-1.3994250297546387
aF1.3002042770385742
aF-3.734748363494873
aF0.09804326295852661
aF2.54441237449646
aag9
(g13
S'\xba\xa8B\x8e\xa5\xbf\xe0\xbf'
p781
tp782
Rp783
aa(lp784
F11.70002293586731
a(lp785
F-1.0043028036700647
aF-1.7010329405414026
aF-2.1270955244647425
aF-0.8415487448321741
aF1.4616972208023071
aF0.5622298121452332
aa(lp786
F0.2377752748078346
aF0.1104016166126625
aF-0.14270634704191787
aF-0.03411485470988762
aF-0.012884795504925235
aF0.1442436780850984
aa(lp787
(lp788
F0.021602908776034255
aF-0.01210209251567834
aF0.012122810327789587
aF0.0030058059348064396
aF-0.0011507829199859476
aF0.01942535003607269
aaaF0.6
a(lp789
F2.824493885040283
aF-1.451273798942566
aF1.1907823085784912
aF-1.400213599205017
aF1.3006726503372192
aF-3.7359158992767334
aF0.09806890785694122
aF2.5450947284698486
aag9
(g13
S'\xab3\x7f\xa8\x84\xe0\xdf\xbf'
p790
tp791
Rp792
aa(lp793
F11.836574077606201
a(lp794
F-0.9853084723102015
aF-1.691779915486471
aF-2.1371987501727503
aF-0.8424838224994105
aF1.4608830213546753
aF0.5813113451004028
aa(lp795
F0.09402773844299062
aF0.1445070456346378
aF-0.11401735414221612
aF-0.025427180504263937
aF0.08480664234135199
aF0.11047825738505536
aa(lp796
(lp797
F0.021331095637739547
aF-0.012033601719843634
aF0.012096097612537585
aF0.0030052880326539412
aF-0.0012334063629197665
aF0.019151094772578772
aaaF0.6
a(lp798
F2.825977325439453
aF-1.4516524076461792
aF1.1911054849624634
aF-1.4007009267807007
aF1.3010330200195312
aF-3.7366561889648438
aF0.09810610115528107
aF2.5455729961395264
aag9
(g13
S'\r\xb4\x7f\xfa\x89\x08\xde\xbf'
p799
tp800
Rp801
aa(lp802
F12.012845039367676
a(lp803
F-0.9615815321551722
aF-1.6862662474261683
aF-2.15511924425234
aF-0.8337205092059534
aF1.4598647356033325
aF0.6052988767623901
aa(lp804
F0.22631276677462409
aF0.12985230796319008
aF-0.04774698492877113
aF-0.08511939645646721
aF0.002924530625525989
aF0.14252002361840443
aa(lp805
(lp806
F0.021420413989807086
aF-0.01199760981725822
aF0.012041910350206601
aF0.0030612342432181725
aF-0.0013160374319751956
aF0.019226722044593712
aaaF0.6
a(lp807
F2.835411310195923
aF-1.4545994997024536
aF1.1952099800109863
aF-1.4061185121536255
aF1.3033992052078247
aF-3.7444705963134766
aF0.097990483045578
aF2.549567461013794
aag9
(g13
S"\x9e_='\x86\xc4\xdb\xbf"
p808
tp809
Rp810
aa(lp811
F12.23612904548645
a(lp812
F-0.9322002569781702
aF-1.6757429281817835
aF-2.17428428331484
aF-0.8274038473712366
aF1.458798885345459
aF0.6347665786743164
aa(lp813
F0.15753816289528727
aF0.10092747541877964
aF-0.17023475498683932
aF-0.016446190777836177
aF0.004557799888451353
aF0.05671459924122672
aa(lp814
(lp815
F0.020676875741564092
aF-0.012239863667493883
aF0.012217072470658364
aF0.003182186157357717
aF-0.0014216069588663207
aF0.01846810179010636
aaaF0.6
a(lp816
F2.8352572917938232
aF-1.4543758630752563
aF1.1945782899856567
aF-1.405356764793396
aF1.3033554553985596
aF-3.7435011863708496
aF0.09808549284934998
aF2.549243211746216
aag9
(g13
S'\x03\xd5\xf5)\x17\xff\xd8\xbf'
p817
tp818
Rp819
aa(lp820
F12.347734928131104
a(lp821
F-0.9177067915545862
aF-1.6688507238971155
aF-2.1833213011371058
aF-0.8272598425494593
aF1.4582480192184448
aF0.6493150591850281
aa(lp822
F0.1005547643513395
aF0.17473801335839362
aF-0.0647907158633028
aF-0.07318107215269072
aF-0.11375230382523603
aF0.10063865288865637
aa(lp823
(lp824
F0.020827360471600085
aF-0.012145241824224764
aF0.012122173088398367
aF0.0031883070258927936
aF-0.001479898927341417
aF0.01862772849796523
aaaF0.6
a(lp825
F2.837747097015381
aF-1.4551384449005127
aF1.1955493688583374
aF-1.406675934791565
aF1.3039747476577759
aF-3.745413064956665
aF0.09807474911212921
aF2.5502541065216064
aag9
(g13
S'\xb2\xdb\xabX\x8b\x99\xd7\xbf'
p826
tp827
Rp828
aa(lp829
F12.464808940887451
a(lp830
F-0.90369159380068
aF-1.664140526448385
aF-2.1935084501849573
aF-0.8233402411090296
aF1.4577809572219849
aF0.6633954048156738
aa(lp831
F-0.0007095397629474087
aF0.10609792952817132
aF-0.12462871325305352
aF-0.05308552608100995
aF0.0534140872016613
aF0.0018474813738342671
aa(lp832
(lp833
F0.020690054807649152
aF-0.012257321879704172
aF0.012150963354247967
aF0.0032835682104520145
aF-0.0015444011764925193
aF0.018485125071398115
aaaF0.6
a(lp834
F2.839035987854004
aF-1.455489993095398
aF1.1959432363510132
aF-1.4072178602218628
aF1.304297924041748
aF-3.746239185333252
aF0.0980851948261261
aF2.5507259368896484
aag9
(g13
S'\xe6\xef\x08\x00rK\xd6\xbf'
p835
tp836
Rp837
aa(lp838
F12.58526611328125
a(lp839
F-0.888897720967428
aF-1.6569488684283655
aF-2.2025697867022913
aF-0.8228243033038538
aF1.4573259353637695
aF0.6783393621444702
aa(lp840
F0.028487751005169093
aF0.09058650837907212
aF-0.10693619913971526
aF0.013161529360217084
aF-0.017370034555126958
aF0.019903418601461192
aa(lp841
(lp842
F0.020485265054497614
aF-0.012317368004757245
aF0.012124891933145025
aF0.003381363461096628
aF-0.0015990880563179466
aF0.018289092615425925
aaaF0.6
a(lp843
F2.8390462398529053
aF-1.455424189567566
aF1.1957179307937622
aF-1.4069492816925049
aF1.3042922019958496
aF-3.7458901405334473
aF0.09811486303806305
aF2.5506112575531006
aag9
(g13
S'G\xd53\xc6(\xe6\xd4\xbf'
p844
tp845
Rp846
aa(lp847
F12.714333057403564
a(lp848
F-0.8734806219684046
aF-1.648247543965475
aF-2.212121311818258
aF-0.8239634672748011
aF1.4568709135055542
aF0.6938709020614624
aa(lp849
F0.1622622645443464
aF0.11990670104737189
aF-0.12405962273011872
aF-0.02515480198552855
aF0.02500381018311978
aF-0.05261221086819773
aa(lp850
(lp851
F0.02062961133910553
aF-0.01227209771315991
aF0.012051680709140115
aF0.0034019125104322884
aF-0.0016686435808065682
aF0.01844968421734114
aaaF0.6
a(lp852
F2.8403234481811523
aF-1.4557908773422241
aF1.1961243152618408
aF-1.407519817352295
aF1.3046050071716309
aF-3.7467288970947266
aF0.09811873733997345
aF2.5510811805725098
aag9
(g13
S'\xa8\x1d\xd8\xca\x87i\xd3\xbf'
p853
tp854
Rp855
aa(lp856
F12.830461978912354
a(lp857
F-0.8592246214496058
aF-1.6428893248187464
aF-2.222367588673727
aF-0.8209183851825159
aF1.4564634561538696
aF0.7081553339958191
aa(lp858
F0.10891011933416253
aF0.11041908586427127
aF-0.027523369586620404
aF0.04583955922602128
aF0.06596011432884509
aF-0.015255305427643182
aa(lp859
(lp860
F0.020710285945393904
aF-0.01229353429593263
aF0.011984658868136369
aF0.003487940362628587
aF-0.001727769915655532
aF0.018529132000268397
aaaF0.6
a(lp861
F2.841653823852539
aF-1.4561721086502075
aF1.196565866470337
aF-1.4081295728683472
aF1.304939866065979
aF-3.7476487159729004
aF0.09812527894973755
aF2.5515925884246826
aag9
(g13
S'\xfd\x06\xa5y\xc4"\xd2\xbf'
p862
tp863
Rp864
aa(lp865
F12.941302061080933
a(lp866
F-0.8462503592120569
aF-1.6355903784381312
aF-2.230614964162008
aF-0.8211224714862269
aF1.4560683965682983
aF0.7212526202201843
aa(lp867
F0.09066134295610007
aF0.20293464221835006
aF-0.06431250438259305
aF-0.0587411560763168
aF0.0003283750481864285
aF0.05042758016318921
aa(lp868
(lp869
F0.020603031656291054
aF-0.012347737019979755
aF0.011984321529191379
aF0.0035392779735262535
aF-0.0017777352119765326
aF0.01843338926783139
aaaF0.6
a(lp870
F2.8409981727600098
aF-1.4559028148651123
aF1.1960749626159668
aF-1.4075042009353638
aF1.3047690391540527
aF-3.74678635597229
aF0.09815779328346252
aF2.551208257675171
aag9
(g13
S'\xe61\xc0\xa2\xbd\xec\xd0\xbf'
p871
tp872
Rp873
aa(lp874
F13.073759078979492
a(lp875
F-0.8316105047809046
aF-1.629920784627096
aF-2.241615120564596
aF-0.8176701704608362
aF1.4556609392166138
aF0.7358846068382263
aa(lp876
F0.05374423311493752
aF0.10175007965132467
aF-0.08876678987062897
aF-0.05236862121208025
aF0.07999713670155882
aF0.05729544512248999
aa(lp877
(lp878
F0.020715401531950155
aF-0.012444736889058788
aF0.01201037989623405
aF0.003598369930147089
aF-0.0018429054380433687
aF0.018544184004792602
aaaF0.6
a(lp879
F2.841858386993408
aF-1.4561318159103394
aF1.1963002681732178
aF-1.4078285694122314
aF1.3049888610839844
aF-3.7473068237304688
aF0.09817235171794891
aF2.5515198707580566
aag9
(g13
S'P\x86\xa6?\xe4T\xcf\xbf'
p880
tp881
Rp882
aa(lp883
F13.197993040084839
a(lp884
F-0.8172219435321253
aF-1.624587361012594
aF-2.2523635069476526
aF-0.8139060179339808
aF1.455385684967041
aF0.750325620174408
aa(lp885
F-0.030703690475303066
aF0.11075657501005776
aF-0.13123207341665788
aF0.08946935871316665
aF0.07775850922369734
aF0.014165331098437543
aa(lp886
(lp887
F0.020660966044301825
aF-0.012535017247756448
aF0.011986981898859462
aF0.003710117512296568
aF-0.0018935649085204318
aF0.01848581969398883
aaaF0.6
a(lp888
F2.8417272567749023
aF-1.4560264348983765
aF1.1960456371307373
aF-1.4075117111206055
aF1.3049588203430176
aF-3.746915817260742
aF0.09820324182510376
aF2.551377773284912
aag9
(g13
S'\xdf\xd5\xf0\x02\xa0\xff\xcc\xbf'
p889
tp890
Rp891
aa(lp892
F13.312757968902588
a(lp893
F-0.8050730864154261
aF-1.6176241079913538
aF-2.2599881331073206
aF-0.8143733183490198
aF1.4551340341567993
aF0.7627150416374207
aa(lp894
F0.048006275288382944
aF0.21003556933159648
aF-0.0722668974247536
aF-0.05891458495521837
aF0.08681425956286278
aF0.03018792238658777
aa(lp895
(lp896
F0.020548598256554577
aF-0.012636077434939923
aF0.011997163601816225
aF0.003793161693039496
aF-0.001943610297759579
aF0.01838681893610008
aaaF0.6
a(lp897
F2.8414416313171387
aF-1.455880880355835
aF1.195771336555481
aF-1.4071532487869263
aF1.3048779964447021
aF-3.7464208602905273
aF0.09821537137031555
aF2.5511605739593506
aag9
(g13
S'e\x12^\x83\x9d\xf1\xca\xbf'
p898
tp899
Rp900
aa(lp901
F13.429244995117188
a(lp902
F-0.792145077382223
aF-1.6116789023028772
aF-2.2693360487567347
aF-0.8126710096942347
aF1.4548827409744263
aF0.7756801247596741
aa(lp903
F0.05718450137041762
aF0.07949638198426598
aF-0.08965674747060506
aF0.04089444134689745
aF0.13738556843577485
aF0.0714130973908268
aa(lp904
(lp905
F0.020721542686213675
aF-0.012691128351238142
aF0.011984224144365053
aF0.0038406059058454754
aF-0.001989639926268091
aF0.0185647013280612
aaaF0.6
a(lp906
F2.841827154159546
aF-1.4559651613235474
aF1.1958125829696655
aF-1.4072264432907104
aF1.304976463317871
aF-3.7465686798095703
aF0.09822849929332733
aF2.5512728691101074
aag9
(g13
S'z36\x02\xae\xf7\xc8\xbf'
p907
tp908
Rp909
aa(lp910
F13.55104112625122
a(lp911
F-0.779708210621969
aF-1.6062734762774866
aF-2.2786715666400355
aF-0.8105610052691858
aF1.454630970954895
aF0.7882616519927979
aa(lp912
F0.013126094776653729
aF0.07327081491555108
aF0.02815722985965756
aF-0.04087471752672487
aF0.06214271874081069
aF0.07799185822158122
aa(lp913
(lp914
F0.021030972086499133
aF-0.012704816745125537
aF0.011932090990307807
aF0.003882052412365565
aF-0.002048540382482687
aF0.018879586936778207
aaaF0.6
a(lp915
F2.8439204692840576
aF-1.4566177129745483
aF1.1967194080352783
aF-1.4084241390228271
aF1.3055003881454468
aF-3.748300313949585
aF0.09819458425045013
aF2.5521535873413086
aag9
(g13
S'\xd6\x064\x819;\xc7\xbf'
p916
tp917
Rp918
aa(lp919
F13.663602113723755
a(lp920
F-0.7682774702655237
aF-1.6008675734149378
aF-2.2866554895984095
aF-0.808883015309469
aF1.4544272422790527
aF0.7996796369552612
aa(lp921
F0.03935289845068478
aF0.12730616043938064
aF0.01019418925244147
aF0.07048666714756581
aF-5.662194232879461e-05
aF-0.023258937536677564
aa(lp922
(lp923
F0.020794609812865288
aF-0.012923583991271186
aF0.012030781065393462
aF0.003993867067661182
aF-0.0020925450106045783
aF0.01864280346956907
aaaF0.6
a(lp924
F2.841287136077881
aF-1.4556978940963745
aF1.1952881813049316
aF-1.4065581560134888
aF1.3048436641693115
aF-3.7457001209259033
aF0.09827113151550293
aF2.5509111881256104
aag9
(g13
S'#\x7fz_\xd2\xc9\xc5\xbf'
p925
tp926
Rp927
aa(lp928
F13.788090944290161
a(lp929
F-0.7555044333087366
aF-1.5949228445636194
aF-2.2956679503070276
aF-0.8073008696185511
aF1.454200029373169
aF0.8125604391098022
aa(lp930
F-0.10585193681943017
aF0.05094824023938902
aF-0.023527527531836928
aF-0.016737213852440643
aF0.0009515470439860896
aF0.01578850756234216
aa(lp931
(lp932
F0.020921063222436125
aF-0.012849915732868061
aF0.011914880582282667
aF0.004026555147099863
aF-0.002119542387900198
aF0.01877361271644464
aaaF0.6
a(lp933
F2.8412885665893555
aF-1.455653190612793
aF1.19516122341156
aF-1.4063987731933594
aF1.304843783378601
aF-3.7455105781555176
aF0.09828351438045502
aF2.5508482456207275
aag9
(g13
S']\x9e\x16\xd7\xd2d\xc4\xbf'
p934
tp935
Rp936
aa(lp937
F13.924628019332886
a(lp938
F-0.7425754706012171
aF-1.588510815297262
aF-2.3049917856799524
aF-0.8063295523272913
aF1.4540561437606812
aF0.8256217241287231
aa(lp939
F-0.13928525169808148
aF-0.21099703317708154
aF0.3
aF-0.08084781714657333
aF0.04763725371606156
aF-0.2514182928624172
aa(lp940
(lp941
F0.02128182787392348
aF-0.012985125102353732
aF0.011945588617064235
aF0.004090165208768238
aF-0.002179132341585697
aF0.019145888589843753
aaaF0.6
a(lp942
F2.8427891731262207
aF-1.4561140537261963
aF1.1957892179489136
aF-1.4072304964065552
aF1.3052195310592651
aF-3.7467222213745117
aF0.09826040267944336
aF2.5514700412750244
aag9
(g13
S'9\xb7p%\x80\xbb\xf0\xbf'
p943
tp944
Rp945
aa(lp946
F14.142904996871948
a(lp947
F-0.7231033484088343
aF-1.578287426625387
aF-2.317667071019308
aF-0.8060539404498499
aF1.4538168907165527
aF0.8453152179718018
aa(lp948
F-0.2179119903932265
aF-0.21183880137000122
aF0.3
aF-0.07429694311544519
aF-0.07361923406032578
aF-0.11466344300238625
aa(lp949
(lp950
F0.02136478964746556
aF-0.013241564574634171
aF0.012003599735409128
aF0.004247326183679455
aF-0.002272644829866678
aF0.01924324591560471
aaaF0.6
a(lp951
F2.84208607673645
aF-1.4558156728744507
aF1.195267915725708
aF-1.4065519571304321
aF1.305039405822754
aF-3.745802402496338
aF0.09828735888004303
aF2.551056146621704
aag9
(g13
S'\x81\xb2\xa3\xab\xa31\xf1\xbf'
p952
tp953
Rp954
aa(lp955
F14.254228115081787
a(lp956
F-0.7132890860186976
aF-1.5729659239398401
aF-2.323878590260641
aF-0.8059819380389612
aF1.4536850452423096
aF0.8552942872047424
aa(lp957
F-0.12510174850705383
aF-0.2946053427561065
aF0.3
aF-0.10953807319485726
aF0.08436104109543296
aF-0.13668786649986936
aa(lp958
(lp959
F0.02125476294145397
aF-0.013260962542450324
aF0.01195657406262865
aF0.004309967559789038
aF-0.002293598101150927
aF0.019139371311897975
aaaF0.6
a(lp960
F2.8408889770507812
aF-1.4553784132003784
aF1.1945931911468506
aF-1.405659556388855
aF1.3047354221343994
aF-3.7445549964904785
aF0.09831453859806061
aF2.5504589080810547
aag9
(g13
S'\x0c\x96D|^m\xf1\xbf'
p961
tp962
Rp963
aa(lp964
F14.380973100662231
a(lp965
F-0.7022164503680628
aF-1.5669730345355433
aF-2.330963913594381
aF-0.8061259428607386
aF1.4535771608352661
aF0.8663284182548523
aa(lp966
F-0.2809396887189507
aF-0.21044850789091185
aF0.3
aF-0.05398728748845691
aF0.03619905292970084
aF-0.22790686450895453
aa(lp967
(lp968
F0.021325183117612716
aF-0.01339370332175562
aF0.011990425180300827
aF0.0043839306129122586
aF-0.002340634251291298
aF0.01921481202194305
aaaF0.6
a(lp969
F2.839099884033203
aF-1.4547522068023682
aF1.1936057806015015
aF-1.404379963874817
aF1.304291009902954
aF-3.74277925491333
aF0.09837019443511963
aF2.5496163368225098
aag9
(g13
S'\xc3\xad\x1dY\xad\xb0\xf1\xbf'
p970
tp971
Rp972
aa(lp973
F14.509274959564209
a(lp974
F-0.6915023962603968
aF-1.5611603895770472
aF-2.3373191992389124
aF-0.8067253271685999
aF1.4534573554992676
aF0.8770748972892761
aa(lp975
F-0.2468056909947765
aF-0.23898515327648606
aF0.3
aF0.01745272083950189
aF0.10276386494655476
aF-0.2194616973422429
aa(lp976
(lp977
F0.02136140072043727
aF-0.013523371603491114
aF0.01201934357938086
aF0.004460142385364484
aF-0.0023772293055742506
aF0.01925972613352917
aaaF0.6
a(lp978
F2.8377599716186523
aF-1.4542757272720337
aF1.192847728729248
aF-1.403396487236023
aF1.3039556741714478
aF-3.7414135932922363
aF0.09841091930866241
aF2.5489697456359863
aag9
(g13
S'{\x0e\xd2\xce\x98\xf0\xf1\xbf'
p979
tp980
Rp981
aa(lp982
F14.62130093574524
a(lp983
F-0.6824668089496058
aF-1.5564020315753382
aF-2.342633072529928
aF-0.8075884024249476
aF1.4534213542938232
aF0.8860817551612854
aa(lp984
F-0.24814157181570615
aF-0.22892602038645193
aF0.3
aF-0.06550568274423495
aF0.05444211082240335
aF-0.23663208980069836
aa(lp985
(lp986
F0.02170142009313508
aF-0.013612247268637148
aF0.012042948671905345
aF0.004489214186452557
aF-0.0024249302903711738
aF0.01960917234741681
aaaF0.6
a(lp987
F2.8380961418151855
aF-1.4543747901916504
aF1.192935824394226
aF-1.4035344123840332
aF1.3040423393249512
aF-3.741633415222168
aF0.09841740131378174
aF2.549100399017334
aag9
(g13
S'\x8a\xabr=\x01&\xf2\xbf'
p988
tp989
Rp990
aa(lp991
F14.747808933258057
a(lp992
F-0.672591511403219
aF-1.5509007612811487
aF-2.347875181828634
aF-0.8087032477008265
aF1.4533613920211792
aF0.8960848450660706
aa(lp993
F-0.16074343573446037
aF-0.22804676806736962
aF0.3
aF-0.06741974196680303
aF0.051882652976823374
aF-0.20058423049241939
aa(lp994
(lp995
F0.021545853984033712
aF-0.013765243693437049
aF0.012076353415174006
aF0.004595318117178128
aF-0.0024619615548869458
aF0.019461934137360994
aaaF0.6
a(lp996
F2.8364429473876953
aF-1.4537893533706665
aF1.1920326948165894
aF-1.4023493528366089
aF1.303623914718628
aF-3.7399697303771973
aF0.09845808148384094
aF2.5483009815216064
aag9
(g13
S'\xd4\xfa\x87\x1b\xd2_\xf2\xbf'
p997
tp998
Rp999
aa(lp1000
F14.893839120864868
a(lp1001
F-0.6620929876910608
aF-1.5451720396624964
aF-2.35356051126589
aF-0.8102853933917444
aF1.4532655477523804
aF0.9067950248718262
aa(lp1002
F-0.2717169749758315
aF-0.26400027167232176
aF0.3
aF-0.039431233216917716
aF0.12167748814739895
aF-0.3
aa(lp1003
(lp1004
F0.021948263368843177
aF-0.013765978371061211
aF0.012022539473661376
aF0.0046113508443952015
aF-0.0025057315686653195
aF0.019882123004865995
aaaF0.6
a(lp1005
F2.838449001312256
aF-1.454438328742981
aF1.1929582357406616
aF-1.4035677909851074
aF1.3041200637817383
aF-3.741698741912842
aF0.09841124713420868
aF2.549159288406372
aag9
(g13
S'92\xeb\xab\x88\x9d\xf2\xbf'
p1006
tp1007
Rp1008
aa(lp1009
F15.011348962783813
a(lp1010
F-0.6536076704608362
aF-1.5405576864825647
aF-2.357689444218771
aF-0.8115323225604456
aF1.4533015489578247
aF0.9152506589889526
aa(lp1011
F-0.3
aF-0.15537717588641237
aF0.3
aF-0.01499893268571173
aF-0.0026749419139136706
aF-0.19229368835687416
aa(lp1012
(lp1013
F0.021758675296742195
aF-0.013980434243579
aF0.01210817802720774
aF0.004727044683988103
aF-0.0025451503874372155
aF0.019696314519766726
aaaF0.6
a(lp1014
F2.835787773132324
aF-1.4535256624221802
aF1.191554307937622
aF-1.401739478111267
aF1.3034543991088867
aF-3.739133596420288
aF0.09848473966121674
aF2.547924757003784
aag9
(g13
S'}\xc1\xbad\xf8\xcd\xf2\xbf'
p1015
tp1016
Rp1017
aa(lp1018
F15.211910963058472
a(lp1019
F-0.6401603857623499
aF-1.5338099638568323
aF-2.364068333302633
aF-0.8137143293963831
aF1.453277587890625
aF0.928754985332489
aa(lp1020
F-0.3
aF-0.3
aF0.3
aF-0.06683930949520701
aF0.11823753079778579
aF-0.2629308821823052
aa(lp1021
(lp1022
F0.022064270400530644
aF-0.014037748802746886
aF0.012094563384885019
aF0.004758398225616747
aF-0.0025920138569272373
aF0.020017945264951282
aaaF0.6
a(lp1023
F2.8358991146087646
aF-1.4535411596298218
aF1.191494107246399
aF-1.401687502861023
aF1.3034802675247192
aF-3.7390823364257812
aF0.09849734604358673
aF2.5479278564453125
aag9
(g13
S'3Oc\xf8\xa5\x19\xf3\xbf'
p1024
tp1025
Rp1026
aa(lp1027
F15.331220149993896
a(lp1028
F-0.6322744528399866
aF-1.530118767415182
aF-2.3673954645739954
aF-0.8151524702655237
aF1.4532419443130493
aF0.9364792108535767
aa(lp1029
F-0.28058153493351656
aF-0.2994315030879496
aF0.3
aF-0.0705359570710293
aF0.0054230796929663795
aF-0.2356772594038957
aa(lp1030
(lp1031
F0.02225944600038268
aF-0.01408855057331053
aF0.012111660698864365
aF0.004765963089732285
aF-0.0026266682388318436
aF0.020218520846859506
aaaF0.6
a(lp1032
F2.8348374366760254
aF-1.4531826972961426
aF1.1908823251724243
aF-1.4009233713150024
aF1.3032194375991821
aF-3.738027572631836
aF0.09854443371295929
aF2.5474395751953125
aag9
(g13
S'\xae\x7f\xc9\xc08D\xf3\xbf'
p1033
tp1034
Rp1035
aa(lp1036
F15.469910144805908
a(lp1037
F-0.6242564360248011
aF-1.5263431707965296
aF-2.3707225958453577
aF-0.8163755575763147
aF1.4532536268234253
aF0.944826602935791
aa(lp1038
F-0.17490267698794365
aF-0.2448543228557991
aF0.3
aF-0.08500440266390472
aF-0.056870948001582905
aF-0.2031687682731739
aa(lp1039
(lp1040
F0.022134449933539763
aF-0.014173171894582386
aF0.012104103007869167
aF0.004849754334471735
aF-0.0026608839625381847
aF0.020104257667613486
aaaF0.6
a(lp1041
F2.835592746734619
aF-1.4534062147140503
aF1.1912012100219727
aF-1.4013270139694214
aF1.3033961057662964
aF-3.7385878562927246
aF0.09851716458797455
aF2.547714948654175
aag9
(g13
S'C\x88;R\x84p\xf3\xbf'
p1042
tp1043
Rp1044
aa(lp1045
F15.647148132324219
a(lp1046
F-0.6142123381244105
aF-1.5224364439593714
aF-2.3744328657733362
aF-0.8178017775165003
aF1.4532536268234253
aF0.9548771977424622
aa(lp1047
F-0.266775610176913
aF-0.2731457770508193
aF0.3
aF0.0021691061121902333
aF0.018958654164234333
aF-0.24979868153209261
aa(lp1048
(lp1049
F0.02214314616418301
aF-0.014341996718790002
aF0.012182456773389017
aF0.0049166610250159365
aF-0.0027119802092557153
aF0.020121034765114922
aaaF0.6
a(lp1050
F2.8352210521698
aF-1.4532681703567505
aF1.1909128427505493
aF-1.4009792804718018
aF1.3033013343811035
aF-3.738112688064575
aF0.09854306280612946
aF2.547508716583252
aag9
(g13
S'3_\xa9\x87\xce\xa4\xf3\xbf'
p1051
tp1052
Rp1053
aa(lp1054
F15.765206098556519
a(lp1055
F-0.6075242201434534
aF-1.5200989882098597
aF-2.3766470591174524
aF-0.8187125364886683
aF1.4532536268234253
aF0.9615576863288879
aa(lp1056
F-0.2840655140431708
aF-0.20831060831744777
aF0.3
aF-0.04537713577904053
aF-0.02368804082071025
aF-0.29802963360463913
aa(lp1057
(lp1058
F0.02215082922794025
aF-0.014377300865799345
aF0.012179991461067588
aF0.004943292522947823
aF-0.002737765334271075
aF0.020132531964317933
aaaF0.6
a(lp1059
F2.834841728210449
aF-1.4531327486038208
aF1.190650463104248
aF-1.4006582498550415
aF1.3032052516937256
aF-3.7376701831817627
aF0.09856514632701874
aF2.5473110675811768
aag9
(g13
S'\xeag\t\xdb\x98\xc6\xf3\xbf'
p1060
tp1061
Rp1062
aa(lp1063
F15.885746002197266
a(lp1064
F-0.6013873259173792
aF-1.5177982489215296
aF-2.378669325505392
aF-0.8197196165667933
aF1.4532419443130493
aF0.9678782224655151
aa(lp1065
F-0.20504311356051563
aF-0.2767001207040588
aF0.3
aF-0.030260404832524533
aF0.032589473567285566
aF-0.3
aa(lp1066
(lp1067
F0.02217242650762816
aF-0.014384489917529664
aF0.01215569167156638
aF0.004964723636045647
aF-0.002764439178286543
aF0.020162025991611418
aaaF0.6
a(lp1068
F2.835937738418579
aF-1.453486680984497
aF1.1911439895629883
aF-1.4013091325759888
aF1.3034718036651611
aF-3.7385852336883545
aF0.0985388457775116
aF2.547764539718628
aag9
(g13
S'p(E\x82>\xe6\xf3\xbf'
p1069
tp1070
Rp1071
aa(lp1072
F15.997075080871582
a(lp1073
F-0.5955379644977015
aF-1.5159285704242151
aF-2.3802970091449183
aF-0.8206070105182093
aF1.4532179832458496
aF0.973575234413147
aa(lp1074
F-0.29466473498792123
aF-0.25271686758261563
aF0.3
aF-0.03432906242425704
aF-0.011004113177868334
aF-0.24989404399808063
aa(lp1075
(lp1076
F0.022179393720653185
aF-0.01436613104985857
aF0.012131127720315238
aF0.004965198107913615
aF-0.0027826008692859467
aF0.02016828034129882
aaaF0.6
a(lp1077
F2.834519863128662
aF-1.4530105590820312
aF1.1903612613677979
aF-1.4003185033798218
aF1.3031203746795654
aF-3.73720383644104
aF0.09859330952167511
aF2.5471138954162598
aag9
(g13
S'\xab8\x1c\xeb\x8f\x02\xf4\xbf'
p1078
tp1079
Rp1080
aa(lp1081
F16.140464067459106
a(lp1082
F-0.5886934439288538
aF-1.513986889516012
aF-2.3820443789111536
aF-0.8214939276324671
aF1.4532419443130493
aF0.9806994795799255
aa(lp1083
F-0.3
aF-0.3
aF0.3
aF-0.1015517252312492
aF0.007756110054408218
aF-0.28055537741973513
aa(lp1084
(lp1085
F0.0220517435616205
aF-0.014353963163448486
aF0.012076820771044015
aF0.005008491993249412
aF-0.002807517818587245
aF0.020047049871979666
aaaF0.6
a(lp1086
F2.835744619369507
aF-1.4534019231796265
aF1.1909066438674927
aF-1.4010330438613892
aF1.3034148216247559
aF-3.7382023334503174
aF0.09856152534484863
aF2.547606945037842
aag9
(g13
S'{\x8a\xe2\x18\xd7#\xf4\xbf'
p1087
tp1088
Rp1089
aa(lp1090
F16.271489143371582
a(lp1091
F-0.5826886335956019
aF-1.5128238836871546
aF-2.383181397114889
aF-0.8222373167621058
aF1.4532179832458496
aF0.9864440560340881
aa(lp1092
F-0.2673498623477463
aF-0.2855739660284269
aF0.3
aF0.002790515616700899
aF-0.02649687234809231
aF-0.3
aa(lp1093
(lp1094
F0.022022523093460325
aF-0.014392351642286237
aF0.01211272973363471
aF0.0050037136437833096
aF-0.00283267965307568
aF0.020015333671815995
aaaF0.6
a(lp1095
F2.834084987640381
aF-1.45285165309906
aF1.1899842023849487
aF-1.3998768329620361
aF1.3030056953430176
aF-3.7365942001342773
aF0.09863214194774628
aF2.546854257583618
aag9
(g13
S'B \x1f\x02:>\xf4\xbf'
p1096
tp1097
Rp1098
aa(lp1099
F16.39968204498291
a(lp1100
F-0.5775101820575159
aF-1.5122011343585413
aF-2.3838158289538782
aF-0.8227766195880335
aF1.453277587890625
aF0.9918650388717651
aa(lp1101
F-0.3
aF-0.20327324216552634
aF0.3
aF-0.08359184496351602
aF0.05977957806642508
aF-0.2534587713044972
aa(lp1102
(lp1103
F0.021869447701718125
aF-0.014357977011319665
aF0.01206090304012895
aF0.0050286461599480916
aF-0.0028508272016551763
aF0.019865940103006966
aaaF0.6
a(lp1104
F2.835505962371826
aF-1.4533156156539917
aF1.190631628036499
aF-1.4007303714752197
aF1.3033499717712402
aF-3.7377877235412598
aF0.09859859943389893
aF2.547443151473999
aag9
(g13
S'\n\xe8o\xa3aT\xf4\xbf'
p1105
tp1106
Rp1107
aa(lp1108
F16.524372100830078
a(lp1109
F-0.5724752585040491
aF-1.5120332876788538
aF-2.384150568638937
aF-0.8233040014850062
aF1.453277587890625
aF0.9967107772827148
aa(lp1110
F-0.2563453746611064
aF-0.3
aF0.3
aF-0.07647037854521183
aF0.004423086789148049
aF-0.3
aa(lp1111
(lp1112
F0.021885281935243774
aF-0.014331562207850151
aF0.01206018940395709
aF0.004999138502858739
aF-0.0028736635279247944
aF0.01987949462014842
aaaF0.6
a(lp1113
F2.8350210189819336
aF-1.4531620740890503
aF1.1902999877929688
aF-1.4003468751907349
aF1.303231954574585
aF-3.7372636795043945
aF0.09863857924938202
aF2.5472164154052734
aag9
(g13
S'Z\xfdC.\xb6g\xf4\xbf'
p1114
tp1115
Rp1116
aa(lp1117
F16.66342806816101
a(lp1118
F-0.5678485075580042
aF-1.5122011343585413
aF-2.3840907255755823
aF-0.8237593809710901
aF1.4533374309539795
aF1.0014599561691284
aa(lp1119
F-0.2654788687631876
aF-0.3
aF0.3
aF0.06347149405989841
aF-0.003647188924664365
aF-0.3
aa(lp1120
(lp1121
F0.02176163880032559
aF-0.01428189513977281
aF0.012020731015895911
aF0.0049979596630554055
aF-0.0028938301939375613
aF0.01975659244409761
aaaF0.6
a(lp1122
F2.836216449737549
aF-1.4535595178604126
aF1.1908246278762817
aF-1.4010562896728516
aF1.303523302078247
aF-3.738259792327881
aF0.09861986339092255
aF2.547715902328491
aag9
(g13
S'\xb3lEj\x99x\xf4\xbf'
p1123
tp1124
Rp1125
aa(lp1126
F16.819504022598267
a(lp1127
F-0.5630777517901819
aF-1.513183895741598
aF-2.3833487669574183
aF-0.8241308371173304
aF1.4534213542938232
aF1.0065213441848755
aa(lp1128
F-0.3
aF-0.3
aF0.3
aF-0.1012380366466225
aF0.00740482916079524
aF-0.288603089367948
aa(lp1129
(lp1130
F0.021620094065246176
aF-0.014152291109614424
aF0.011918917340154574
aF0.0049858612986866625
aF-0.002914785386431061
aF0.019616746536507596
aaaF0.6
a(lp1131
F2.838995933532715
aF-1.454485535621643
aF1.1921355724334717
aF-1.402790904045105
aF1.3042036294937134
aF-3.740689754486084
aF0.09855766594409943
aF2.548910617828369
aag9
(g13
S'\xf4\xe2\xccSF\x87\xf4\xbf'
p1132
tp1133
Rp1134
aa(lp1135
F16.991039991378784
a(lp1136
F-0.5582712332354944
aF-1.5151012579547327
aF-2.3816736380206507
aF-0.8244188467608851
aF1.4534213542938232
aF1.0110667943954468
aa(lp1137
F-0.2253816709244575
aF-0.3
aF0.3
aF-0.0754218197307537
aF0.077477255047701
aF-0.16971248954588472
aa(lp1138
(lp1139
F0.021329148265154967
aF-0.014094748161161444
aF0.011931555431306638
aF0.004936899655686875
aF-0.0029393602824144853
aF0.019315887000297526
aaaF0.6
a(lp1140
F2.838059902191162
aF-1.4541887044906616
aF1.1915374994277954
aF-1.4020828008651733
aF1.303971290588379
aF-3.739706039428711
aF0.09862187504768372
aF2.5484704971313477
aag9
(g13
S'\xd7I\x0e\xae0\x91\xf4\xbf'
p1141
tp1142
Rp1143
aa(lp1144
F17.103724002838135
a(lp1145
F-0.5556939283954065
aF-1.5166476408587855
aF-2.3803568522082728
aF-0.8245270887957972
aF1.4534813165664673
aF1.0138493776321411
aa(lp1146
F-0.3
aF-0.2705861639846712
aF0.3
aF-0.1128877162328168
aF-0.06215929174679155
aF-0.2730608150049249
aa(lp1147
(lp1148
F0.02117937817305908
aF-0.013979221297638384
aF0.011853808068552596
aF0.00491662869864123
aF-0.0029527287107089196
aF0.019165212851207716
aaaF0.6
a(lp1149
F2.8402507305145264
aF-1.4549219608306885
aF1.1925759315490723
aF-1.4034589529037476
aF1.3045079708099365
aF-3.7416322231292725
aF0.09857383370399475
aF2.54941725730896
aag9
(g13
S'A\x07\xc1\xf0A\x95\xf4\xbf'
p1150
tp1151
Rp1152
aa(lp1153
F17.227895975112915
a(lp1154
F-0.5530803839312952
aF-1.5185769240008753
aF-2.378693167363302
aF-0.8245747725116175
aF1.453505277633667
aF1.0166435241699219
aa(lp1155
F-0.3
aF-0.29741206744714943
aF0.3
aF-0.04464625260339935
aF-0.003528002515547468
aF-0.3
aa(lp1156
(lp1157
F0.021056670749608045
aF-0.013827830043184948
aF0.011726422098644588
aF0.004909933921817069
aF-0.002960802615857502
aF0.019040315196427664
aaaF0.6
a(lp1158
F2.8423938751220703
aF-1.4556418657302856
aF1.1935832500457764
aF-1.4048008918762207
aF1.3050328493118286
aF-3.7435102462768555
aF0.09852991998195648
aF2.5503427982330322
aag9
(g13
S'z\x9aY\x1b\xf4\x97\xf4\xbf'
p1159
tp1160
Rp1161
aa(lp1162
F17.35880708694458
a(lp1163
F-0.5501917044269007
aF-1.5212257544146937
aF-2.3764551321612757
aF-0.8246110121356409
aF1.453517198562622
aF1.0194624662399292
aa(lp1164
F-0.24463454071345542
aF-0.269673527368466
aF0.3
aF-0.14953719257110124
aF0.09013084626939037
aF-0.27094539102806003
aa(lp1165
(lp1166
F0.020936632127316925
aF-0.013685189604281334
aF0.011661633054502138
aF0.004851319889952157
aF-0.002976773019475012
aF0.018913853825926422
aaaF0.6
a(lp1167
F2.843600273132324
aF-1.4560617208480835
aF1.194091796875
aF-1.4055224657058716
aF1.3053308725357056
aF-3.744528293609619
aF0.09852802753448486
aF2.5508651733398438
aag9
(g13
S'\xd6\x10P\xf5\x97\x98\xf4\xbf'
p1168
tp1169
Rp1170
aa(lp1171
F17.500617027282715
a(lp1172
F-0.547638241444723
aF-1.524341885243551
aF-2.37346321741213
aF-0.824622933064596
aF1.4535531997680664
aF1.0217289924621582
aa(lp1173
F-0.3
aF-0.3
aF0.3
aF0.027303974040919082
aF0.006444625448175301
aF-0.3
aa(lp1174
(lp1175
F0.020527479920265115
aF-0.01358745173583774
aF0.011609632935612922
aF0.004840292704419053
aF-0.0029890624842939285
aF0.018487996366687257
aaaF0.6
a(lp1176
F2.8419389724731445
aF-1.4555240869522095
aF1.193138599395752
aF-1.4043467044830322
aF1.3049170970916748
aF-3.7428808212280273
aF0.0986095517873764
aF2.5500986576080322
aag9
(g13
S'5\x87ut\xef\x94\xf4\xbf'
p1177
tp1178
Rp1179
aa(lp1180
F17.660426139831543
a(lp1181
F-0.5456364790545862
aF-1.5284050146686
aF-2.369633499776022
aF-0.8246348539935511
aF1.453565239906311
aF1.0238040685653687
aa(lp1182
F-0.2162342984627812
aF-0.19720916184384235
aF0.3
aF0.022625035599890958
aF0.06889161949135582
aF-0.3
aa(lp1183
(lp1184
F0.020243870644069288
aF-0.013373741488752117
aF0.011480882482301325
aF0.004792165130368605
aF-0.003000702428860999
aF0.018195018371745517
aaaF0.6
a(lp1185
F2.8441202640533447
aF-1.45626962184906
aF1.194129228591919
aF-1.4056966304779053
aF1.3054512739181519
aF-3.7447690963745117
aF0.09857971966266632
aF2.5510413646698
aag9
(g13
S'\xe0\x93\xd6>5\x8c\xf4\xbf'
p1186
tp1187
Rp1188
aa(lp1189
F17.8105890750885
a(lp1190
F-0.5443657080279749
aF-1.5328992048846644
aF-2.365504566823141
aF-0.8247063795672815
aF1.4536250829696655
aF1.0251351594924927
aa(lp1191
F-0.3
aF-0.3
aF0.3
aF0.0011262871449580214
aF0.04226119436565799
aF-0.3
aa(lp1192
(lp1193
F0.020209472851210226
aF-0.013122203126789382
aF0.01133431507552961
aF0.004710971034642586
aF-0.0030068845486555954
aF0.01815576621183507
aaaF0.6
a(lp1194
F2.847506523132324
aF-1.4574252367019653
aF1.1957330703735352
aF-1.407854676246643
aF1.3062880039215088
aF-3.747797966003418
aF0.09852184355258942
aF2.5525403022766113
aag9
(g13
S'2\x83_<4\x7f\xf4\xbf'
p1195
tp1196
Rp1197
aa(lp1198
F17.961575031280518
a(lp1199
F-0.5436943213092249
aF-1.5373814741717737
aF-2.360872809086935
aF-0.8248027006732386
aF1.4536371231079102
aF1.0258429050445557
aa(lp1200
F-0.3
aF-0.23145151802445088
aF0.3
aF-0.05260979758969306
aF0.0742133667297525
aF-0.28223885948192795
aa(lp1201
(lp1202
F0.019782415204236674
aF-0.012929427349358003
aF0.011200415746150907
aF0.00469886623423379
aF-0.0030152835166889075
aF0.01771424736613059
aaaF0.6
a(lp1203
F2.8487491607666016
aF-1.457856297492981
aF1.1962603330612183
aF-1.4085956811904907
aF1.3065879344940186
aF-3.7488248348236084
aF0.09851472079753876
aF2.5530617237091064
aag9
(g13
S'\xf6\x8d\xaf\x14\xb4n\xf4\xbf'
p1204
tp1205
Rp1206
aa(lp1207
F18.078938007354736
a(lp1208
F-0.5433467070208948
aF-1.5413487593280237
aF-2.3568275610553187
aF-0.824862305318014
aF1.4536131620407104
aF1.0262624025344849
aa(lp1209
F-0.208886698574464
aF-0.3
aF0.3
aF-0.18566365694387846
aF-0.0143056698211717
aF-0.2895211865895789
aa(lp1210
(lp1211
F0.019453932421628045
aF-0.012731210785078646
aF0.01109149615314476
aF0.00465088078426871
aF-0.003018904714732427
aF0.017375244891364255
aaaF0.6
a(lp1212
F2.8505234718322754
aF-1.4584635496139526
aF1.1970752477645874
aF-1.4097038507461548
aF1.3070212602615356
aF-3.750369071960449
aF0.09848849475383759
aF2.5538294315338135
aag9
(g13
S'\xa5\xa7E\xecl_\xf4\xbf'
p1213
tp1214
Rp1215
aa(lp1216
F18.18820595741272
a(lp1217
F-0.5433347860919397
aF-1.5450881163226526
aF-2.35309344926943
aF-0.8248985449420374
aF1.4536131620407104
aF1.02627432346344
aa(lp1218
F-0.2940431715349204
aF-0.2701844782841491
aF0.3
aF-0.05455824701053951
aF-0.0024700685366012866
aF-0.2721822016272062
aa(lp1219
(lp1220
F0.019239532852571427
aF-0.012559366685202961
aF0.010999281699308014
aF0.004603532359230273
aF-0.0030247678095140875
aF0.017151165432999615
aaaF0.6
a(lp1221
F2.8520822525024414
aF-1.4590011835098267
aF1.1977897882461548
aF-1.4106823205947876
aF1.3074042797088623
aF-3.751736640930176
aF0.09846945106983185
aF2.5545122623443604
aag9
(g13
S'\xfdH\x8d\x0c\xe6O\xf4\xbf'
p1222
tp1223
Rp1224
aa(lp1225
F18.323694944381714
a(lp1226
F-0.5433943907367151
aF-1.5498459974872034
aF-2.348078791295187
aF-0.8250182310687464
aF1.4536250829696655
aF1.0262264013290405
aa(lp1227
F-0.2787916380833825
aF-0.21002771633665407
aF0.3
aF-0.005218294162782411
aF0.06102209480230508
aF-0.24582130401933694
aa(lp1228
(lp1229
F0.018834210671256076
aF-0.01236954054259064
aF0.010849867088024458
aF0.004609709503503772
aF-0.0030269593379650987
aF0.016729821062836152
aaaF0.6
a(lp1230
F2.8532004356384277
aF-1.4593924283981323
aF1.1982606649398804
aF-1.4113496541976929
aF1.3076739311218262
aF-3.752659797668457
aF0.09846547245979309
aF2.5549821853637695
aag9
(g13
S'\x00\x8a\xc5\xd5D;\xf4\xbf'
p1231
tp1232
Rp1233
aa(lp1234
F18.433073043823242
a(lp1235
F-0.5437305609332483
aF-1.5543645063983362
aF-2.3432794252978724
aF-0.8251140753375452
aF1.453673005104065
aF1.0258668661117554
aa(lp1236
F-0.2636854842577727
aF-0.3
aF0.3
aF-0.07479706328402286
aF-0.07835908631723601
aF-0.29023645392008796
aa(lp1237
(lp1238
F0.018431257617250993
aF-0.012212237979693036
aF0.010710006184116688
aF0.004634115355083451
aF-0.003019698622544202
aF0.0163115687302173
aaaF0.6
a(lp1239
F2.8537540435791016
aF-1.4595938920974731
aF1.1984530687332153
aF-1.4116500616073608
aF1.307803988456726
aF-3.753068685531616
aF0.0984753966331482
aF2.5552008152008057
aag9
(g13
S'\xe9\x1e%\xebz&\xf4\xbf'
p1240
tp1241
Rp1242
aa(lp1243
F18.606961011886597
a(lp1244
F-0.5448811689959925
aF-1.5616515318499964
aF-2.33582312265505
aF-0.8252819220172327
aF1.453673005104065
aF1.024763584136963
aa(lp1245
F-0.3
aF-0.2327112016695158
aF0.3
aF0.01965775329268024
aF0.0582175076988683
aF-0.2545996667936547
aa(lp1246
(lp1247
F0.018170683302089458
aF-0.011908961616175806
aF0.01048449048989793
aF0.004605652565610343
aF-0.003023407488462109
aF0.016034105285622827
aaaF0.6
a(lp1248
F2.85728120803833
aF-1.4608031511306763
aF1.200117588043213
aF-1.413901686668396
aF1.3086719512939453
aF-3.7562143802642822
aF0.09841914474964142
aF2.5567595958709717
aag9
(g13
S'\xa0`\xd7x\x82\x03\xf4\xbf'
p1249
tp1250
Rp1251
aa(lp1252
F18.723087072372437
a(lp1253
F-0.5461395422564905
aF-1.5668767134295862
aF-2.3305206934558313
aF-0.8253539244281214
aF1.4536610841751099
aF1.02340829372406
aa(lp1254
F-0.24526734836855352
aF-0.20205053123953365
aF0.3
aF-0.06213485353292543
aF-0.04334733132282258
aF-0.2582452313523297
aa(lp1255
(lp1256
F0.018010449628149468
aF-0.011691763065142356
aF0.01036582114165615
aF0.004542392356370918
aF-0.0030168082356873517
aF0.01586252022997073
aaaF0.6
a(lp1257
F2.8591504096984863
aF-1.461454153060913
aF1.200980305671692
aF-1.4150909185409546
aF1.3091344833374023
aF-3.7578797340393066
aF0.09840075671672821
aF2.55759334564209
aag9
(g13
S'G*\x1c\xc1\xa4\xe8\xf3\xbf'
p1258
tp1259
Rp1260
aa(lp1261
F18.844520092010498
a(lp1262
F-0.5478060881244105
aF-1.5726783911334437
aF-2.324883762990133
aF-0.825317684804098
aF1.453673005104065
aF1.0216929912567139
aa(lp1263
F-0.3
aF-0.1471133357516381
aF0.3
aF-0.10189841575657275
aF0.03690410993147435
aF-0.3
aa(lp1264
(lp1265
F0.017982497084377713
aF-0.011442303859476848
aF0.010227687962543383
aF0.004462685362983871
aF-0.0030182208695186583
aF0.01582434264092656
aaaF0.6
a(lp1266
F2.862273693084717
aF-1.4625247716903687
aF1.2024809122085571
aF-1.4171148538589478
aF1.3099091053009033
aF-3.7607173919677734
aF0.09834970533847809
aF2.558997392654419
aag9
(g13
S'3jK9\x8d\xca\xf3\xbf'
p1267
tp1268
Rp1269
aa(lp1270
F18.999431133270264
a(lp1271
F-0.5507071653949183
aF-1.5800254980670374
aF-2.3172598520862024
aF-0.8250063101397913
aF1.4536490440368652
aF1.0189703702926636
aa(lp1272
F-0.28993089836047126
aF-0.23914852262446532
aF0.3
aF-0.1083230714804137
aF-0.03227579609758085
aF-0.3
aa(lp1273
(lp1274
F0.01735247244361255
aF-0.0111642664582616
aF0.010017850461328397
aF0.004470910629955135
aF-0.0029997708168560365
aF0.01516999549682808
aaaF0.6
a(lp1275
F2.8647422790527344
aF-1.4633638858795166
aF1.2036463022232056
aF-1.4186803102493286
aF1.3105086088180542
aF-3.7628860473632812
aF0.09830456972122192
aF2.560065984725952
aag9
(g13
S'\x83Kl\xa4\xc6\xa0\xf3\xbf'
p1276
tp1277
Rp1278
aa(lp1279
F19.103229999542236
a(lp1280
F-0.5528653303729456
aF-1.5855024496661585
aF-2.3117781321154993
aF-0.8247306982623499
aF1.4536011219024658
aF1.0168596506118774
aa(lp1281
F-0.3
aF-0.19615288555946472
aF0.21822955613239148
aF0.02730345186122969
aF0.0010088426675382706
aF-0.3
aa(lp1282
(lp1283
F0.017062856973055623
aF-0.010965792648328072
aF0.009878586720618674
aF0.004457046381738985
aF-0.002991184829619238
aF0.014864971300586121
aaaF0.6
a(lp1284
F2.8668670654296875
aF-1.4640893936157227
aF1.204660177230835
aF-1.4200458526611328
aF1.3110305070877075
aF-3.764788866043091
aF0.09826801717281342
aF2.5610058307647705
aag9
(g13
S' \x1cso\x08\x82\xf3\xbf'
p1285
tp1286
Rp1287
aa(lp1288
F19.22721815109253
a(lp1289
F-0.5554540793048304
aF-1.5919745604144495
aF-2.305422846470968
aF-0.8242147604571741
aF1.4536250829696655
aF1.0141489505767822
aa(lp1290
F-0.2571972774678322
aF-0.3
aF0.3
aF0.019103936724439163
aF0.012341916828493326
aF-0.3
aa(lp1291
(lp1292
F0.016666412502823975
aF-0.010827487158566606
aF0.009748039506398668
aF0.00449371398410588
aF-0.0029764483177691318
aF0.014447972423117423
aaaF0.6
a(lp1293
F2.867591619491577
aF-1.4643548727035522
aF1.2049447298049927
aF-1.420474886894226
aF1.311206579208374
aF-3.7653818130493164
aF0.09827864170074463
aF2.56131649017334
aag9
(g13
S'\xe3\xffC\xd2\x98]\xf3\xbf'
p1294
tp1295
Rp1296
aa(lp1297
F19.36496901512146
a(lp1298
F-0.5587623755084437
aF-1.6002443472491663
aF-2.297511402760641
aF-0.8236754576312464
aF1.453517198562622
aF1.0105271339416504
aa(lp1299
F-0.3
aF-0.2720541126281041
aF0.3
aF-0.11448977154824215
aF-0.010125370275551035
aF-0.29137038706837504
aa(lp1300
(lp1301
F0.016508127313829456
aF-0.010578359951359539
aF0.009609450196452407
aF0.004426070962149688
aF-0.002967028851822209
aF0.014270117772748128
aaaF0.6
a(lp1302
F2.8695616722106934
aF-1.465053915977478
aF1.2058395147323608
aF-1.4217363595962524
aF1.311699390411377
aF-3.767155408859253
aF0.09827372431755066
aF2.5622153282165527
aag9
(g13
S'\xa7\xa9\xc5\x81F/\xf3\xbf'
p1303
tp1304
Rp1305
aa(lp1306
F19.511120080947876
a(lp1307
F-0.5630062262164515
aF-1.6086943785296839
aF-2.2893245855914515
aF-0.8230646292315882
aF1.4535292387008667
aF1.0063655376434326
aa(lp1308
F-0.2732260316790899
aF-0.21049157573993155
aF0.3
aF-0.14625071015626712
aF-0.011507861067370305
aF-0.3
aa(lp1309
(lp1310
F0.016217186607213382
aF-0.010299677134527663
aF0.009414174524641055
aF0.0044017644614771975
aF-0.0029474711966184803
aF0.013959130196867186
aaaF0.6
a(lp1311
F2.8733584880828857
aF-1.4663408994674683
aF1.20769202709198
aF-1.424208402633667
aF1.312636137008667
aF-3.7706077098846436
aF0.09819985926151276
aF2.563912868499756
aag9
(g13
S'\xabzh\x19\x1b\xfd\xf2\xbf'
p1312
tp1313
Rp1314
aa(lp1315
F19.686833143234253
a(lp1316
F-0.568819824849264
aF-1.6194217840777796
aF-2.2785523573504847
aF-0.8222249189959925
aF1.4534813165664673
aF1.000644564628601
aa(lp1317
F-0.24524310398949686
aF-0.23277030709180613
aF0.3
aF-0.09516105285835924
aF0.09673623488320161
aF-0.3
aa(lp1318
(lp1319
F0.015528428140661308
aF-0.009979658336588537
aF0.009179246254926167
aF0.00441185207132348
aF-0.0029100284051698758
aF0.013236050419031871
aaaF0.6
a(lp1320
F2.8765056133270264
aF-1.4674129486083984
aF1.2091987133026123
aF-1.4262346029281616
aF1.3134068250656128
aF-3.7734222412109375
aF0.09814579784870148
aF2.5653016567230225
aag9
(g13
S'\x117\xd3\xfb\xe8\xba\xf2\xbf'
p1321
tp1322
Rp1323
aa(lp1324
F19.80417799949646
a(lp1325
F-0.5728710333453577
aF-1.627199951802389
aF-2.2708562056170862
aF-0.8215773741351526
aF1.453445315361023
aF0.9963748455047607
aa(lp1326
F-0.22195857868627095
aF-0.3
aF0.3
aF-0.15731599081012662
aF-0.029801221174843733
aF-0.3
aa(lp1327
(lp1328
F0.015130235703449332
aF-0.009810683741456458
aF0.009051797894509913
aF0.004423362667831953
aF-0.002881082538197779
aF0.012814273034736815
aaaF0.6
a(lp1329
F2.8772494792938232
aF-1.4676905870437622
aF1.2094963788986206
aF-1.426688313484192
aF1.3135906457901
aF-3.7740530967712402
aF0.09816011786460876
aF2.5656328201293945
aag9
(g13
S'~\x1b\xf8v^\x8b\xf2\xbf'
p1330
tp1331
Rp1332
aa(lp1333
F19.919245958328247
a(lp1334
F-0.5772460142718714
aF-1.634679142628805
aF-2.263830010090963
aF-0.8209665457354944
aF1.4534094333648682
aF0.9922129511833191
aa(lp1335
F-0.3
aF-0.22869876969171257
aF0.2969740085760834
aF-0.10504982093476802
aF-0.017449460083862715
aF-0.2840428074292497
aa(lp1336
(lp1337
F0.015099111151997075
aF-0.00956208944073078
aF0.008882244224813153
aF0.004382869374559577
aF-0.0028699384994174356
aF0.01277194859256679
aaaF0.6
a(lp1338
F2.8825440406799316
aF-1.4694617986679077
aF1.212151050567627
aF-1.430184245109558
aF1.3149008750915527
aF-3.778942346572876
aF0.09803512692451477
aF2.568021535873413
aag9
(g13
S'*V\x85\xdf\x7f]\xf2\xbf'
p1339
tp1340
Rp1341
aa(lp1342
F20.03044605255127
a(lp1343
F-0.5814779440509241
aF-1.6418588797198694
aF-2.2563732306109827
aF-0.8204510847674769
aF1.45328950881958
aF0.9879196286201477
aa(lp1344
F-0.20723485303614186
aF-0.17433118200760386
aF0.26784363714313103
aF-0.04946213233564383
aF-0.02191029347541778
aF-0.2439039498648897
aa(lp1345
(lp1346
F0.014610119883980538
aF-0.009432596080367124
aF0.008752613431615505
aF0.004438554361078997
aF-0.0028456979025259857
aF0.012257769181390932
aaaF0.6
a(lp1347
F2.883495330810547
aF-1.469797968864441
aF1.2125756740570068
aF-1.4307821989059448
aF1.3151319026947021
aF-3.7797646522521973
aF0.09803149104118347
aF2.5684359073638916
aag9
(g13
S'\x06\x96\x8c\x18&/\xf2\xbf'
p1348
tp1349
Rp1350
aa(lp1351
F20.14408302307129
a(lp1352
F-0.5858410040484827
aF-1.6493733564959925
aF-2.248737160359518
aF-0.8198517004596155
aF1.4533015489578247
aF0.9833618402481079
aa(lp1353
F-0.3
aF-0.2471566578922234
aF0.3
aF-0.048109208361396524
aF0.001946755912598186
aF-0.23446119977784338
aa(lp1354
(lp1355
F0.014115245961704496
aF-0.009305159153512255
aF0.008640631982294983
aF0.00448026234557306
aF-0.00281430247366005
aF0.011735780232033272
aaaF0.6
a(lp1356
F2.88362193107605
aF-1.4698657989501953
aF1.2125707864761353
aF-1.430829644203186
aF1.3151612281799316
aF-3.779822826385498
aF0.09805698692798615
aF2.56848406791687
aag9
(g13
S'\xf0\xe1\x96\x18\x1a\xff\xf1\xbf'
p1357
tp1358
Rp1359
aa(lp1360
F20.263370990753174
a(lp1361
F-0.5910070578204554
aF-1.6572487990008753
aF-2.2403343359576624
aF-0.8197796980487269
aF1.45328950881958
aF0.9783247113227844
aa(lp1362
F-0.2667019375661184
aF-0.20423802068571306
aF0.3
aF-0.07238997276966586
aF-0.014867252381222988
aF-0.2954041839916873
aa(lp1363
(lp1364
F0.013785184129903292
aF-0.009111006297929056
aF0.008476798276247694
aF0.004504449400068636
aF-0.0027834795861486497
aF0.011386098044191158
aaaF0.6
a(lp1365
F2.8868937492370605
aF-1.4709657430648804
aF1.2141920328140259
aF-1.4329780340194702
aF1.3159663677215576
aF-3.7828140258789062
aF0.09798654913902283
aF2.5699493885040283
aag9
(g13
S'4D\xa6\x81\xde\xc9\xf1\xbf'
p1366
tp1367
Rp1368
aa(lp1369
F20.380093097686768
a(lp1370
F-0.5960653463946741
aF-1.665278736745016
aF-2.2316563765155237
aF-0.8198755423175257
aF1.4532655477523804
aF0.9731074571609497
aa(lp1371
F-0.26754174799043257
aF-0.2023217803087295
aF0.3
aF-0.1720815388915248
aF-0.004038993510726459
aF-0.2053729069371741
aa(lp1372
(lp1373
F0.013500508071714247
aF-0.008935580715463897
aF0.008345338727578352
aF0.0045099922580158856
aF-0.0027545358506498785
aF0.011080359354106862
aaaF0.6
a(lp1374
F2.8886561393737793
aF-1.4715782403945923
aF1.2150278091430664
aF-1.4341262578964233
aF1.3164032697677612
aF-3.784414768218994
aF0.09796951711177826
aF2.570748805999756
aag9
(g13
S'e\x1c\\*\x96\x93\xf1\xbf'
p1375
tp1376
Rp1377
aa(lp1378
F20.504837036132812
a(lp1379
F-0.601602856312887
aF-1.6732614676104944
aF-2.222762409840719
aF-0.8200791517840784
aF1.453277587890625
aF0.9676385521888733
aa(lp1380
F-0.207318010210008
aF-0.18463120346413298
aF0.2828767685280558
aF-0.0994648579992124
aF0.002083657625459173
aF-0.2619112339228035
aa(lp1381
(lp1382
F0.013127192686094937
aF-0.008774543282031593
aF0.00819091139022993
aF0.004557391646721663
aF-0.0027226151749765734
aF0.0106847059929614
aaaF0.6
a(lp1383
F2.8912205696105957
aF-1.47244393825531
aF1.2162903547286987
aF-1.4358080625534058
aF1.317033052444458
aF-3.7867512702941895
aF0.09791922569274902
aF2.5718963146209717
aag9
(g13
S'\xe7f\xcf\x10\\[\xf1\xbf'
p1384
tp1385
Rp1386
aa(lp1387
F20.626873016357422
a(lp1388
F-0.6073201338397425
aF-1.681136433278219
aF-2.2137253920184534
aF-0.8203671614276331
aF1.4532536268234253
aF0.961929202079773
aa(lp1389
F-0.2787638587480194
aF-0.27694533535162047
aF0.24409733013415005
aF-0.030931379124636185
aF0.04113545185452726
aF-0.20667318542816698
aa(lp1390
(lp1391
F0.012676369279352721
aF-0.008644648773875229
aF0.008058279557883428
aF0.0046155779333039
aF-0.002684424570798873
aF0.01021017506106851
aaaF0.6
a(lp1392
F2.8929195404052734
aF-1.473024845123291
aF1.21711266040802
aF-1.4369165897369385
aF1.3174484968185425
aF-3.7882838249206543
aF0.09789231419563293
aF2.572652578353882
aag9
(g13
S'\xf8\x90t\xcf\x1c"\xf1\xbf'
p1393
tp1394
Rp1395
aa(lp1396
F20.740845918655396
a(lp1397
F-0.6130254904376429
aF-1.6894186178790491
aF-2.2043889204608362
aF-0.8208468596087855
aF1.453277587890625
aF0.9559925198554993
aa(lp1398
F-0.23683618483158184
aF-0.2226133946305232
aF0.29580902726308916
aF-0.14611337438103894
aF0.0347296378192363
aF-0.25226234137999376
aa(lp1399
(lp1400
F0.012423439094645864
aF-0.008493162008618495
aF0.007951983288225443
aF0.004614494218199024
aF-0.002650357968826845
aF0.00993778534724763
aaaF0.6
a(lp1401
F2.894381523132324
aF-1.4735394716262817
aF1.2178009748458862
aF-1.4378741979599
aF1.3178129196166992
aF-3.7896199226379395
aF0.09788517653942108
aF2.57332444190979
aag9
(g13
S'fD\xcds\x04iJ\xc0'
p1402
tp1403
Rp1404
aasS'model'
p1405
S'open2_open1_scoop2_scoop1_cut2_cut1_push2_push1'
p1406
sS'task'
p1407
S'push2'
p1408
sS'run'
p1409
I94
s.