(dp0
S'demo_num'
p1
S'1'
p2
sS'model'
p3
S'push12_open12_scoop12_cut12'
p4
sS'task'
p5
S'cut1'
p6
sS'data'
p7
(lp8
(lp9
F0.40038609504699707
a(F-1.573608700429098
F-1.190911595021383
F-2.0137813727008265
F-1.4103191534625452
F1.5577219724655151
F-0.0837786833392542
tp10
a(lp11
F-0.04201099061319366
aF0.027396606794654506
aF-0.021724476696366415
aF0.008495372916386613
aF0.09044305486661242
aF-0.3
aa(lp12
(lp13
F0.02384784892275729
aF-0.004277341604358881
aF-0.03989959024365686
aF0.07212664636218802
aF0.07404494134203492
aF-0.4662961441110933
aaaF0.6000000238418579
a(lp14
F1.3736318349838257
aF-0.9256196618080139
aacnumpy.core.multiarray
scalar
p15
(cnumpy
dtype
p16
(S'f8'
p17
I0
I1
tp18
Rp19
(I3
S'<'
p20
NNNI-1
I-1
I0
tp21
bS'\x98\xd9\xdbj\xfe\xba\xf5\xbf'
p22
tp23
Rp24
aa(lp25
F0.8020620346069336
a(F-1.5811227003680628
F-1.1946385542498987
F-2.009639088307516
F-1.4190834204303187
F1.5792425870895386
F-0.20408565202821904
tp26
a(lp27
F-0.041408099323844275
aF-0.11014856402027473
aF0.03664651633704518
aF0.03446456485605501
aF-0.011215678180192631
aF-0.3
aa(lp28
(lp29
F-0.016883040071821415
aF-0.0033867547513455392
aF0.004664254580707218
aF-0.00635262806093955
aF0.06912936520018807
aF-0.627598077852741
aaaF0.6000000238418579
a(lp30
F2.1781504154205322
aF-1.928560733795166
aag15
(g19
S'\x0c\xaaz8\xf5\xc6\xf3\xbf'
p31
tp32
Rp33
aas.