(lp0
(lp1
F0.16694910120781326
aF0.4680689212226018
aF0.5788705088397833
aF-3.0349279722630613
aF-0.030057609001849808
aF-0.003419652895979862
aF0.11813463229145398
aF0.542285175881787
aF0.5944139002128678
aF-3.0883952064746243
aF-0.033981560747525986
aF-0.0015756578681171282
aa(lp2
F0.16694910120781326
aF0.4680689212226018
aF0.5788705088397833
aF-3.0349279722630613
aF-0.030057609001849808
aF-0.003419652895979862
aF0.06499184037558087
aF0.6088519473072672
aF0.6132987996816195
aF-3.1176683384210966
aF-0.04290402150835867
aF-0.0006629807083950942
aa(lp3
F0.16694910120781326
aF0.4680689212226018
aF0.5788705088397833
aF-3.0349279722630613
aF-0.030057609001849808
aF-0.003419652895979862
aF0.01344331464444588
aF0.6621500283196696
aF0.6390469841012292
aF-3.1188968424883203
aF-0.048465125299730134
aF-0.00028870435750147675
aa(lp4
F0.16694910120781326
aF0.4680689212226018
aF0.5788705088397833
aF-3.0349279722630613
aF-0.030057609001849808
aF-0.003419652895979862
aF-0.033786238959410395
aF0.7034420476486309
aF0.6679391737957114
aF-3.1037775012601085
aF-0.048696276364946056
aF-0.0010854492803245412
aa(lp5
F0.16694910120781326
aF0.4680689212226018
aF0.5788705088397833
aF-3.0349279722630613
aF-0.030057609001849808
aF-0.003419652895979862
aF-0.07548479811254741
aF0.7340050155855314
aF0.6896576594809782
aF-3.0910554572505293
aF-0.04759524257886139
aF-0.0015438919342600243
aa(lp6
F0.16694910120781326
aF0.4680689212226018
aF0.5788705088397833
aF-3.0349279722630613
aF-0.030057609001849808
aF-0.003419652895979862
aF-0.11138099513911977
aF0.7566847868198232
aF0.7056603171169871
aF-3.0810666640542954
aF-0.045978012059701694
aF-0.0019052916423406444
aa(lp7
F0.16694910120781326
aF0.4680689212226018
aF0.5788705088397833
aF-3.0349279722630613
aF-0.030057609001849808
aF-0.003419652895979862
aF-0.14163969513265878
aF0.7735540795196557
aF0.7180715501518601
aF-3.0724125488523053
aF-0.04408080484513724
aF-0.0022653678356523506
aa(lp8
F0.16694910120781326
aF0.4680689212226018
aF0.5788705088397833
aF-3.0349279722630613
aF-0.030057609001849808
aF-0.003419652895979862
aF-0.1670402441958442
aF0.786108359462619
aF0.7275624084987793
aF-3.0653213086458373
aF-0.042155845679805064
aF-0.002458478485281933
aa(lp9
F0.16694910120781326
aF0.4680689212226018
aF0.5788705088397833
aF-3.0349279722630613
aF-0.030057609001849808
aF-0.003419652895979862
aF-0.18824024714806475
aF0.7955738383700016
aF0.7347122616596847
aF-3.059836057427148
aF-0.04049234869605144
aF-0.002609459779659367
aa(lp10
F0.16694910120781326
aF0.4680689212226018
aF0.5788705088397833
aF-3.0349279722630613
aF-0.030057609001849808
aF-0.003419652895979862
aF-0.20561395166684987
aF0.8026015850998307
aF0.7406241724248399
aF-3.0548511836564023
aF-0.03876712240790139
aF-0.00286754872711563
aa(lp11
F0.16694910120781326
aF0.4680689212226018
aF0.5788705088397833
aF-3.0349279722630613
aF-0.030057609001849808
aF-0.003419652895979862
aF-0.2203143333181018
aF0.8083155143941325
aF0.7449234859170072
aF-3.0512911479258378
aF-0.037439213492651474
aF-0.0030513968893876066
aa(lp12
F0.16694910120781326
aF0.4680689212226018
aF0.5788705088397833
aF-3.0349279722630613
aF-0.030057609001849808
aF-0.003419652895979862
aF-0.2322925555849536
aF0.8124877108513495
aF0.7484577196328824
aF-3.0481162598348024
aF-0.03614400115276096
aF-0.0029706882604149222
aa(lp13
F0.16694910120781326
aF0.4680689212226018
aF0.5788705088397833
aF-3.0349279722630613
aF-0.030057609001849808
aF-0.003419652895979862
aF-0.24210630884831127
aF0.8157990811508352
aF0.7510160988905029
aF-3.045948217772033
aF-0.03524218362597508
aF-0.003058922039383525
aa(lp14
F0.16694910120781326
aF0.4680689212226018
aF0.5788705088397833
aF-3.0349279722630613
aF-0.030057609001849808
aF-0.003419652895979862
aF-0.24996726247468704
aF0.818294277346688
aF0.753451781254156
aF-3.0435637312937813
aF-0.03414045575858359
aF-0.003171808250673324
aa(lp15
F0.16694910120781326
aF0.4680689212226018
aF0.5788705088397833
aF-3.0349279722630613
aF-0.030057609001849808
aF-0.003419652895979862
aF-0.2565777309599395
aF0.8203023476875181
aF0.755157892581463
aF-3.041998347988073
aF-0.0334999249706718
aF-0.003160745529558084
aa(lp16
F0.16694910120781326
aF0.4680689212226018
aF0.5788705088397833
aF-3.0349279722630613
aF-0.030057609001849808
aF-0.003419652895979862
aF-0.26192108519247437
aF0.8219783394495547
aF0.7564727176541273
aF-3.0407261304693876
aF-0.03288482085097415
aF-0.0032863074994173487
aa(lp17
F0.16694910120781326
aF0.4680689212226018
aF0.5788705088397833
aF-3.0349279722630613
aF-0.030057609001849808
aF-0.003419652895979862
aF-0.26644774161077833
aF0.8231939016078526
aF0.7574961022564379
aF-3.0398093765545067
aF-0.03243454170030412
aF-0.0031565668549389477
aa(lp18
F0.16694910120781326
aF0.4680689212226018
aF0.5788705088397833
aF-3.0349279722630613
aF-0.030057609001849808
aF-0.003419652895979862
aF-0.2699562567264214
aF0.8241876717043917
aF0.7585510193889852
aF-3.038731568239739
aF-0.03188629209593622
aF-0.0031392584926233525
aa(lp19
F0.16694910120781326
aF0.4680689212226018
aF0.5788705088397833
aF-3.0349279722630613
aF-0.030057609001849808
aF-0.003419652895979862
aF-0.2728374130808712
aF0.8251045416581485
aF0.7590557144558924
aF-3.0382366930675397
aF-0.03171493837373854
aF-0.003296900332227038
aa(lp20
F0.16694910120781326
aF0.4680689212226018
aF0.5788705088397833
aF-3.0349279722630613
aF-0.030057609001849808
aF-0.003419652895979862
aF-0.27525301937943714
aF0.8256683033941634
aF0.7598669914604929
aF-3.037437919002813
aF-0.031322305363833874
aF-0.003292931929136955
aa(lp21
F0.16694910120781326
aF0.4680689212226018
aF0.5788705088397833
aF-3.0349279722630613
aF-0.030057609001849808
aF-0.003419652895979862
aF-0.2772538929684876
aF0.8261971609278698
aF0.7602708107634962
aF-3.0370803560042208
aF-0.03108971896168649
aF-0.003304524659641765
aa(lp22
F0.16694910120781326
aF0.4680689212226018
aF0.5788705088397833
aF-3.0349279722630613
aF-0.030057609001849808
aF-0.003419652895979862
aF-0.2793183348398746
aF0.8272270585235321
aF0.7538590069004024
aF-3.0370271748835354
aF-0.031133055734197338
aF-0.003180683223454529
aa(lp23
F0.16694910120781326
aF0.4680689212226018
aF0.5788705088397833
aF-3.0349279722630613
aF-0.030057609001849808
aF-0.003419652895979862
aF-0.28101824860776936
aF0.8282923743041415
aF0.7377130317096231
aF-3.036398158120822
aF-0.03072373458341105
aF-0.0032350844606736854
aa(lp24
F0.16694910120781326
aF0.4680689212226018
aF0.5788705088397833
aF-3.0349279722630613
aF-0.030057609001849808
aF-0.003419652895979862
aF-0.2822218875552588
aF0.8289046843867733
aF0.7242441414980457
aF-3.036368443880998
aF-0.03081863254678958
aF-0.003303686263082957
aa(lp25
F0.16694910120781326
aF0.4680689212226018
aF0.5788705088397833
aF-3.0349279722630613
aF-0.030057609001849808
aF-0.003419652895979862
aF-0.283198605717251
aF0.8291762378273314
aF0.713093750332527
aF-3.0360566204627633
aF-0.030579095612738142
aF-0.0032981683036600157
aa(lp26
F0.16694910120781326
aF0.4680689212226018
aF0.5788705088397833
aF-3.0349279722630613
aF-0.030057609001849808
aF-0.003419652895979862
aF-0.2838627921679536
aF0.8293015210189283
aF0.7043317029273016
aF-3.0356659549397556
aF-0.030336364039224045
aF-0.003345616920279539
aa(lp27
F0.16694910120781326
aF0.4680689212226018
aF0.5788705088397833
aF-3.0349279722630613
aF-0.030057609001849808
aF-0.003419652895979862
aF-0.28434615928777696
aF0.8292819887098299
aF0.6969299550491523
aF-3.0355941283519003
aF-0.030304243232808288
aF-0.0033614334168358953
aa(lp28
F0.16694910120781326
aF0.4680689212226018
aF0.5788705088397833
aF-3.0349279722630613
aF-0.030057609001849808
aF-0.003419652895979862
aF-0.2846839457821888
aF0.8292172528799217
aF0.6909524111229925
aF-3.0355082002278047
aF-0.030416672766727864
aF-0.0033273069270648194
aa(lp29
F0.16694910120781326
aF0.4680689212226018
aF0.5788705088397833
aF-3.0349279722630613
aF-0.030057609001849808
aF-0.003419652895979862
aF-0.28500252343151833
aF0.8290751071205312
aF0.6860620349746126
aF-3.0353640007347398
aF-0.030340872333428744
aF-0.003296825130911135
aa(lp30
F0.16694910120781326
aF0.4680689212226018
aF0.5788705088397833
aF-3.0349279722630613
aF-0.030057609001849808
aF-0.003419652895979862
aF-0.28519428319475504
aF0.8289525083310335
aF0.6820070605977786
aF-3.035329691937541
aF-0.030282453565871968
aF-0.0033076626877118175
aa(lp31
F0.16694910120781326
aF0.4680689212226018
aF0.5788705088397833
aF-3.0349279722630613
aF-0.030057609001849808
aF-0.003419652895979862
aF-0.28538876568456856
aF0.8288316212144947
aF0.6787912754761883
aF-3.035208794379834
aF-0.030161403526544818
aF-0.0032963220230610444
aa(lp32
F0.16694910120781326
aF0.4680689212226018
aF0.5788705088397833
aF-3.0349279722630613
aF-0.030057609001849808
aF-0.003419652895979862
aF-0.285453975854095
aF0.8287232794825301
aF0.6760544950971951
aF-3.035295159992216
aF-0.03022716451182493
aF-0.0033068893726444625
aa(lp33
F0.16694910120781326
aF0.4680689212226018
aF0.5788705088397833
aF-3.0349279722630613
aF-0.030057609001849808
aF-0.003419652895979862
aF-0.2855848157999931
aF0.828606827797317
aF0.6739795712008644
aF-3.035138062339053
aF-0.03016578981206172
aF-0.0032302667998057952
aa(lp34
F0.16694910120781326
aF0.4680689212226018
aF0.5788705088397833
aF-3.0349279722630613
aF-0.030057609001849808
aF-0.003419652895979862
aF-0.2856031192627419
aF0.8285300291428136
aF0.6721682122183357
aF-3.0351412766124075
aF-0.030113290392383207
aF-0.003310694589005148
aa(lp35
F0.16694910120781326
aF0.4680689212226018
aF0.5788705088397833
aF-3.0349279722630613
aF-0.030057609001849808
aF-0.003419652895979862
aF-0.26544480766305295
aF0.8303880645055192
aF0.6707501832826065
aF-3.035377116950134
aF-0.030253052648651885
aF-0.003416915277780135
aa(lp36
F0.16694910120781326
aF0.4680689212226018
aF0.5788705088397833
aF-3.0349279722630613
aF-0.030057609001849808
aF-0.003419652895979862
aF-0.23536069415358662
aF0.832403429657328
aF0.6697914757249758
aF-3.0355206151608396
aF-0.029994028474282095
aF-0.003187676842345269
aa(lp37
F0.16694910120781326
aF0.4680689212226018
aF0.5788705088397833
aF-3.0349279722630613
aF-0.030057609001849808
aF-0.003419652895979862
aF-0.21077119993392418
aF0.8331654900336057
aF0.6689303920979958
aF-3.035579624496607
aF-0.02995686837352431
aF-0.003290024691001792
aa(lp38
F0.16694910120781326
aF0.4680689212226018
aF0.5788705088397833
aF-3.0349279722630613
aF-0.030057609001849808
aF-0.003419652895979862
aF-0.19090507978069232
aF0.8333000449881857
aF0.6681610268139709
aF-3.0355324206266108
aF-0.029921475827558684
aF-0.0032723556595605752
aa(lp39
F0.16694910120781326
aF0.4680689212226018
aF0.5788705088397833
aF-3.0349279722630613
aF-0.030057609001849808
aF-0.003419652895979862
aF-0.17457522737157632
aF0.8330281068884245
aF0.667367869251302
aF-3.035683709271189
aF-0.02997833169524555
aF-0.003312510309038352
aa(lp40
F0.16694910120781326
aF0.4680689212226018
aF0.5788705088397833
aF-3.0349279722630613
aF-0.030057609001849808
aF-0.003419652895979862
aF-0.16132068063282484
aF0.8325612611980907
aF0.6668655992859119
aF-3.035549881625833
aF-0.029910781945093185
aF-0.003343574576956656
aa(lp41
F0.16694910120781326
aF0.4680689212226018
aF0.5788705088397833
aF-3.0349279722630613
aF-0.030057609001849808
aF-0.003419652895979862
aF-0.15042284148840468
aF0.8319385988951196
aF0.6665436493142192
aF-3.0352577354339103
aF-0.02979002791180053
aF-0.0033619020746657423
aa(lp42
F0.16694910120781326
aF0.4680689212226018
aF0.5788705088397833
aF-3.0349279722630613
aF-0.030057609001849808
aF-0.003419652895979862
aF-0.14165312074836853
aF0.8314659113668079
aF0.666025091887467
aF-3.0352866437998434
aF-0.029898825143653884
aF-0.00346814421723257
aa(lp43
F0.16694910120781326
aF0.4680689212226018
aF0.5788705088397833
aF-3.0349279722630613
aF-0.030057609001849808
aF-0.003419652895979862
aF-0.1347351729445107
aF0.8309003526404279
aF0.6656512518615543
aF-3.0353285652351394
aF-0.02994724875811846
aF-0.0031786388883676955
aa(lp44
F0.16694910120781326
aF0.4680689212226018
aF0.5788705088397833
aF-3.0349279722630613
aF-0.030057609001849808
aF-0.003419652895979862
aF-0.12879658688803314
aF0.8304528620093377
aF0.6654731968362354
aF-3.0352171568878563
aF-0.029879289922424633
aF-0.0033242418359061923
aa(lp45
F0.16694910120781326
aF0.4680689212226018
aF0.5788705088397833
aF-3.0349279722630613
aF-0.030057609001849808
aF-0.003419652895979862
aF-0.12418262125471671
aF0.8299910985699409
aF0.6652303950683757
aF-3.0351481038718404
aF-0.02990613308357841
aF-0.003192198543824645
aa(lp46
F0.16694910120781326
aF0.4680689212226018
aF0.5788705088397833
aF-3.0349279722630613
aF-0.030057609001849808
aF-0.003419652895979862
aF-0.12021675710234869
aF0.8296507439295197
aF0.6650474625921308
aF-3.035082113390677
aF-0.029943930087644715
aF-0.00336314089857679
aa(lp47
F0.16694910120781326
aF0.4680689212226018
aF0.5788705088397833
aF-3.0349279722630613
aF-0.030057609001849808
aF-0.003419652895979862
aF-0.11712119265730737
aF0.8293538950265896
aF0.664869026503212
aF-3.035052064457062
aF-0.029953566911229478
aF-0.003280249699354334
aa(lp48
F0.16694910120781326
aF0.4680689212226018
aF0.5788705088397833
aF-3.0349279722630613
aF-0.030057609001849808
aF-0.003419652895979862
aF-0.1146521365606424
aF0.8290736317460715
aF0.6647401096297001
aF-3.0350402549258964
aF-0.029909613109933845
aF-0.003254282991660127
aa(lp49
F0.16694910120781326
aF0.4680689212226018
aF0.5788705088397833
aF-3.0349279722630613
aF-0.030057609001849808
aF-0.003419652895979862
aF-0.11250031840379604
aF0.8288809948988458
aF0.6646017372096898
aF-3.0350397952828265
aF-0.02993653865245376
aF-0.0032722533484493585
aa(lp50
F0.16694910120781326
aF0.4680689212226018
aF0.5788705088397833
aF-3.0349279722630613
aF-0.030057609001849808
aF-0.003419652895979862
aF-0.1107226278252962
aF0.8286920612717011
aF0.6645568595193897
aF-3.0350313280280514
aF-0.029964195234124476
aF-0.003351641017725846
aa(lp51
F0.16694910120781326
aF0.4680689212226018
aF0.5788705088397833
aF-3.0349279722630613
aF-0.030057609001849808
aF-0.003419652895979862
aF-0.10933982745412404
aF0.8285458440915772
aF0.664475074869886
aF-3.0350358361086136
aF-0.029925299136187626
aF-0.0033416109896283017
aa(lp52
F0.16694910120781326
aF0.4680689212226018
aF0.5788705088397833
aF-3.0349279722630613
aF-0.030057609001849808
aF-0.003419652895979862
aF-0.10823269601871244
aF0.8284110531577524
aF0.6644321044971058
aF-3.0350005305501178
aF-0.029952319832472835
aF-0.003244982415771097
aa(lp53
F0.16694910120781326
aF0.4680689212226018
aF0.5788705088397833
aF-3.0349279722630613
aF-0.030057609001849808
aF-0.003419652895979862
aF-0.10732667328464196
aF0.8282990735863329
aF0.6643857729115082
aF-3.0349409197966075
aF-0.029992539743109517
aF-0.0032240811706736546
aa(lp54
F0.16694910120781326
aF0.4680689212226018
aF0.5788705088397833
aF-3.0349279722630613
aF-0.030057609001849808
aF-0.003419652895979862
aF-0.10656891764224898
aF0.8281872804188507
aF0.6643567184577147
aF-3.0349642531087127
aF-0.03002149879095597
aF-0.0031855124445485487
aa(lp55
F0.16694910120781326
aF0.4680689212226018
aF0.5788705088397833
aF-3.0349279722630613
aF-0.030057609001849808
aF-0.003419652895979862
aF-0.10590790410053175
aF0.8281318619260527
aF0.6643313720711659
aF-3.034918948772194
aF-0.029959873956562095
aF-0.003228311621915177
aa.