(lp0
(lp1
F0.16683630767956714
aF0.46840506944457777
aF0.5789178863491748
aF-3.0349716032368326
aF-0.029965879576333405
aF-0.0033742346445737627
aF0.12366907449820969
aF0.5348584518270938
aF0.5876964049185647
aF3.134580520764449
aF0.010714854235048858
aF0.012082785922405604
aa(lp2
F0.16683630767956714
aF0.46840506944457777
aF0.5789178863491748
aF-3.0349716032368326
aF-0.029965879576333405
aF-0.0033742346445737627
aF0.07864701448688853
aF0.5928166998847895
aF0.5967588538010964
aF3.027625113433541
aF0.03362328707075184
aF0.017844747676635173
aa(lp3
F0.16683630767956714
aF0.46840506944457777
aF0.5789178863491748
aF-3.0349716032368326
aF-0.029965879576333405
aF-0.0033742346445737627
aF0.036586341198449585
aF0.6374723089919039
aF0.6009935193030989
aF2.9389268471759182
aF0.04306695423292974
aF0.019259387479907963
aa(lp4
F0.16683630767956714
aF0.46840506944457777
aF0.5789178863491748
aF-3.0349716032368326
aF-0.029965879576333405
aF-0.0033742346445737627
aF-0.0010354158552217333
aF0.6716168216817925
aF0.6021277177794095
aF2.866108156178911
aF0.04421499929271884
aF0.018799412817821864
aa(lp5
F0.16683630767956714
aF0.46840506944457777
aF0.5789178863491748
aF-3.0349716032368326
aF-0.029965879576333405
aF-0.0033742346445737627
aF-0.0338824638594462
aF0.697653744645468
aF0.601126999804982
aF2.8062475476804396
aF0.04071605870654762
aF0.017966533779442708
aa(lp6
F0.16683630767956714
aF0.46840506944457777
aF0.5789178863491748
aF-3.0349716032368326
aF-0.029965879576333405
aF-0.0033742346445737627
aF-0.06180323768814446
aF0.7176351501570685
aF0.5989695363107524
aF2.757092310979872
aF0.03475473769797817
aF0.016952870355896762
aa(lp7
F0.16683630767956714
aF0.46840506944457777
aF0.5789178863491748
aF-3.0349716032368326
aF-0.029965879576333405
aF-0.0033742346445737627
aF-0.08554398558919268
aF0.7329926607232399
aF0.5965521567235533
aF2.717220364483378
aF0.027781533726341127
aF0.016222620577662283
aa(lp8
F0.16683630767956714
aF0.46840506944457777
aF0.5789178863491748
aF-3.0349716032368326
aF-0.029965879576333405
aF-0.0033742346445737627
aF-0.10550133076441347
aF0.7447898373058658
aF0.5942410071758533
aF2.685095576701448
aF0.020841303393892095
aF0.016037497171365336
aa(lp9
F0.16683630767956714
aF0.46840506944457777
aF0.5789178863491748
aF-3.0349716032368326
aF-0.029965879576333405
aF-0.0033742346445737627
aF-0.12197011776350071
aF0.7539461060340795
aF0.5919159125372897
aF2.658708924602932
aF0.014133638538859964
aF0.01572075380201784
aa(lp10
F0.16683630767956714
aF0.46840506944457777
aF0.5789178863491748
aF-3.0349716032368326
aF-0.029965879576333405
aF-0.0033742346445737627
aF-0.13589859503586518
aF0.7611988979961103
aF0.5898406955933733
aF2.6372042870719983
aF0.008116078233391569
aF0.01569904882015739
aa(lp11
F0.16683630767956714
aF0.46840506944457777
aF0.5789178863491748
aF-3.0349716032368326
aF-0.029965879576333405
aF-0.0033742346445737627
aF-0.14727981752152006
aF0.7669018984401146
aF0.5879405089174041
aF2.619757294402506
aF0.0027853692737239435
aF0.015790255375336994
aa(lp12
F0.16683630767956714
aF0.46840506944457777
aF0.5789178863491748
aF-3.0349716032368326
aF-0.029965879576333405
aF-0.0033742346445737627
aF-0.1566041031029323
aF0.7712924763016504
aF0.5863650137846408
aF2.605743475926934
aF-0.0017590007192022957
aF0.015931727066879373
aa(lp13
F0.16683630767956714
aF0.46840506944457777
aF0.5789178863491748
aF-3.0349716032368326
aF-0.029965879576333405
aF-0.0033742346445737627
aF-0.1641366798768836
aF0.7749037772418319
aF0.5849178634250204
aF2.594266119315565
aF-0.0057348358855923605
aF0.015833133812263134
aa(lp14
F0.16683630767956714
aF0.46840506944457777
aF0.5789178863491748
aF-3.0349716032368326
aF-0.029965879576333405
aF-0.0033742346445737627
aF-0.17059343550633477
aF0.7776021218105559
aF0.5838442766557123
aF2.5850324864847702
aF-0.008990502269907937
aF0.016304567185027295
aa(lp15
F0.16683630767956714
aF0.46840506944457777
aF0.5789178863491748
aF-3.0349716032368326
aF-0.029965879576333405
aF-0.0033742346445737627
aF-0.17558994672425743
aF0.7799197042080247
aF0.5829173221727211
aF2.5774675969583507
aF-0.011729924797325753
aF0.01625457809950137
aa(lp16
F0.16683630767956714
aF0.46840506944457777
aF0.5789178863491748
aF-3.0349716032368326
aF-0.029965879576333405
aF-0.0033742346445737627
aF-0.1798122171188118
aF0.7817117609080007
aF0.5820227595900958
aF2.5711418739170546
aF-0.014074543840249433
aF0.016446302854778272
aa(lp17
F0.16683630767956714
aF0.46840506944457777
aF0.5789178863491748
aF-3.0349716032368326
aF-0.029965879576333405
aF-0.0033742346445737627
aF-0.1834306302905626
aF0.783183209823365
aF0.5812844935673658
aF2.566038415301529
aF-0.016031592749779777
aF0.0166413588235603
aa(lp18
F0.16683630767956714
aF0.46840506944457777
aF0.5789178863491748
aF-3.0349716032368326
aF-0.029965879576333405
aF-0.0033742346445737627
aF-0.1862339967407625
aF0.7843164864687577
aF0.5807378778391319
aF2.561866343216227
aF-0.017633274387979708
aF0.016669598340077113
aa(lp19
F0.16683630767956714
aF0.46840506944457777
aF0.5789178863491748
aF-3.0349716032368326
aF-0.029965879576333405
aF-0.0033742346445737627
aF-0.18845343806962714
aF0.7853407362588125
aF0.5802152205907853
aF2.55854219449074
aF-0.018901751398996417
aF0.016587448408139124
aa(lp20
F0.16683630767956714
aF0.46840506944457777
aF0.5789178863491748
aF-3.0349716032368326
aF-0.029965879576333405
aF-0.0033742346445737627
aF-0.19034892118034605
aF0.7861141147654782
aF0.5799102312874035
aF2.555929526023849
aF-0.019954017243364913
aF0.016571300948565907
aa(lp21
F0.16683630767956714
aF0.46840506944457777
aF0.5789178863491748
aF-3.0349716032368326
aF-0.029965879576333405
aF-0.0033742346445737627
aF-0.19196923543696254
aF0.7866948260316657
aF0.579583495924228
aF2.553679840433991
aF-0.0209066264383472
aF0.01681406155754186
aa(lp22
F0.16683630767956714
aF0.46840506944457777
aF0.5789178863491748
aF-3.0349716032368326
aF-0.029965879576333405
aF-0.0033742346445737627
aF-0.19622944454992147
aF0.7941600466951517
aF0.5376904526565707
aF2.5518253878984014
aF-0.021652518360728883
aF0.016701582513808187
aa(lp23
F0.16683630767956714
aF0.46840506944457777
aF0.5789178863491748
aF-3.0349716032368326
aF-0.029965879576333405
aF-0.0033742346445737627
aF-0.19938792685607143
aF0.7991364372062106
aF0.4933827298205754
aF2.5504927532863286
aF-0.02208357205410895
aF0.016788306600266107
aa(lp24
F0.16683630767956714
aF0.46840506944457777
aF0.5789178863491748
aF-3.0349716032368326
aF-0.029965879576333405
aF-0.0033742346445737627
aF-0.20110113705562113
aF0.801173136777235
aF0.4568678275487151
aF2.548699808981206
aF-0.022798895712739884
aF0.01696859882965663
aa(lp25
F0.16683630767956714
aF0.46840506944457777
aF0.5789178863491748
aF-3.0349716032368326
aF-0.029965879576333405
aF-0.0033742346445737627
aF-0.20181266932158187
aF0.8015011526916563
aF0.4275810733092317
aF2.547870714560788
aF-0.02319911451571995
aF0.01695961489870617
aa(lp26
F0.16683630767956714
aF0.46840506944457777
aF0.5789178863491748
aF-3.0349716032368326
aF-0.029965879576333405
aF-0.0033742346445737627
aF-0.20195457600677014
aF0.8008122700180252
aF0.40383035878980184
aF2.5470979909589193
aF-0.023558897907133745
aF0.016945723029396044
aa(lp27
F0.16683630767956714
aF0.46840506944457777
aF0.5789178863491748
aF-3.0349716032368326
aF-0.029965879576333405
aF-0.0033742346445737627
aF-0.2018883903466295
aF0.799736379798996
aF0.3841611227945434
aF2.5463415285020097
aF-0.023810109787951044
aF0.01704331321646812
aa(lp28
F0.16683630767956714
aF0.46840506944457777
aF0.5789178863491748
aF-3.0349716032368326
aF-0.029965879576333405
aF-0.0033742346445737627
aF-0.20166533318804306
aF0.7985444137438248
aF0.3687349191009614
aF2.546039522682354
aF-0.023943186448318655
aF0.017068691660191666
aa(lp29
F0.16683630767956714
aF0.46840506944457777
aF0.5789178863491748
aF-3.0349716032368326
aF-0.029965879576333405
aF-0.0033742346445737627
aF-0.20129338770294045
aF0.7971180642452026
aF0.35592510845694975
aF2.5452701285554484
aF-0.02426708040337512
aF0.0170498545524
aa(lp30
F0.16683630767956714
aF0.46840506944457777
aF0.5789178863491748
aF-3.0349716032368326
aF-0.029965879576333405
aF-0.0033742346445737627
aF-0.2009041759191671
aF0.795934450535923
aF0.34584843848292385
aF2.5451772151625303
aF-0.02430514077856062
aF0.0170536453411763
aa(lp31
F0.16683630767956714
aF0.46840506944457777
aF0.5789178863491748
aF-3.0349716032368326
aF-0.029965879576333405
aF-0.0033742346445737627
aF-0.2005916024640113
aF0.7947851979836638
aF0.33742203631435264
aF2.5448262946999765
aF-0.024425703400595116
aF0.017009276833096797
aa(lp32
F0.16683630767956714
aF0.46840506944457777
aF0.5789178863491748
aF-3.0349716032368326
aF-0.029965879576333405
aF-0.0033742346445737627
aF-0.20028651909710546
aF0.7938249024936481
aF0.3306711954218246
aF2.5447153955287765
aF-0.024486133003583554
aF0.017093804418563147
aa(lp33
F0.16683630767956714
aF0.46840506944457777
aF0.5789178863491748
aF-3.0349716032368326
aF-0.029965879576333405
aF-0.0033742346445737627
aF-0.19998216256034618
aF0.7929656468234882
aF0.325216285557165
aF2.5444340512903603
aF-0.02457009799733372
aF0.01703770162814304
aa(lp34
F0.16683630767956714
aF0.46840506944457777
aF0.5789178863491748
aF-3.0349716032368326
aF-0.029965879576333405
aF-0.0033742346445737627
aF-0.19978820155768345
aF0.7922369014498696
aF0.3206852485646813
aF2.5443201837760014
aF-0.024572231484334066
aF0.017073255374266825
aa(lp35
F0.16683630767956714
aF0.46840506944457777
aF0.5789178863491748
aF-3.0349716032368326
aF-0.029965879576333405
aF-0.0033742346445737627
aF-0.19953338946373886
aF0.7916050733586573
aF0.31694528850812087
aF2.544084499570526
aF-0.02474267932652005
aF0.017015778610232936
aa(lp36
F0.16683630767956714
aF0.46840506944457777
aF0.5789178863491748
aF-3.0349716032368326
aF-0.029965879576333405
aF-0.0033742346445737627
aF-0.1993645138679226
aF0.7910977097435452
aF0.31403235282108516
aF2.544150757631695
aF-0.02473605200399897
aF0.017098978671528625
aa(lp37
F0.16683630767956714
aF0.46840506944457777
aF0.5789178863491748
aF-3.0349716032368326
aF-0.029965879576333405
aF-0.0033742346445737627
aF-0.19925340240507686
aF0.7906388955183625
aF0.3115510091477795
aF2.5439918164175346
aF-0.024810400470478812
aF0.017157439580052863
aa(lp38
F0.16683630767956714
aF0.46840506944457777
aF0.5789178863491748
aF-3.0349716032368326
aF-0.029965879576333405
aF-0.0033742346445737627
aF-0.19921347479522358
aF0.7894601802654725
aF0.30985292602408304
aF2.543778027381818
aF-0.024860097852459215
aF0.016957635711091767
aa(lp39
F0.16683630767956714
aF0.46840506944457777
aF0.5789178863491748
aF-3.0349716032368326
aF-0.029965879576333405
aF-0.0033742346445737627
aF-0.2005639105262568
aF0.7666096791232432
aF0.32069104773213186
aF2.543886481847372
aF-0.024925802634476454
aF0.0170731663489197
aa(lp40
F0.16683630767956714
aF0.46840506944457777
aF0.5789178863491748
aF-3.0349716032368326
aF-0.029965879576333405
aF-0.0033742346445737627
aF-0.20106422222473397
aF0.7484990950155457
aF0.328544063972023
aF2.5439269772988555
aF-0.02486816173402437
aF0.017055703062228523
aa(lp41
F0.16683630767956714
aF0.46840506944457777
aF0.5789178863491748
aF-3.0349716032368326
aF-0.029965879576333405
aF-0.0033742346445737627
aF-0.20108020741621832
aF0.7336339344677337
aF0.334542852435049
aF2.543931940031535
aF-0.02484195972434598
aF0.016829689713548746
aa(lp42
F0.16683630767956714
aF0.46840506944457777
aF0.5789178863491748
aF-3.0349716032368326
aF-0.029965879576333405
aF-0.0033742346445737627
aF-0.20112618019314696
aF0.7214705392678573
aF0.3391865301985659
aF2.544059716348944
aF-0.02491975214244344
aF0.017011447647527263
aa(lp43
F0.16683630767956714
aF0.46840506944457777
aF0.5789178863491748
aF-3.0349716032368326
aF-0.029965879576333405
aF-0.0033742346445737627
aF-0.20070915768340872
aF0.7115138021799149
aF0.34272164730087007
aF2.5440105117940575
aF-0.024957797228796232
aF0.016739657453881746
aa(lp44
F0.16683630767956714
aF0.46840506944457777
aF0.5789178863491748
aF-3.0349716032368326
aF-0.029965879576333405
aF-0.0033742346445737627
aF-0.2006161532507934
aF0.7033224264027353
aF0.34554767761083827
aF2.5440667431150623
aF-0.024809066764611424
aF0.01720316697750113
aa(lp45
F0.16683630767956714
aF0.46840506944457777
aF0.5789178863491748
aF-3.0349716032368326
aF-0.029965879576333405
aF-0.0033742346445737627
aF-0.20025125957147966
aF0.6966128997865546
aF0.3475837743411034
aF2.5438392360075297
aF-0.02494578850346233
aF0.017034677038829254
aa(lp46
F0.16683630767956714
aF0.46840506944457777
aF0.5789178863491748
aF-3.0349716032368326
aF-0.029965879576333405
aF-0.0033742346445737627
aF-0.19990780535464672
aF0.6911741407754217
aF0.34929165153112596
aF2.543758134615788
aF-0.0248567251946603
aF0.016896796971103224
aa(lp47
F0.16683630767956714
aF0.46840506944457777
aF0.5789178863491748
aF-3.0349716032368326
aF-0.029965879576333405
aF-0.0033742346445737627
aF-0.19968167994815195
aF0.6867704029490487
aF0.3506269257188588
aF2.5437267853203114
aF-0.02488450910599052
aF0.016903880109945202
aa(lp48
F0.16683630767956714
aF0.46840506944457777
aF0.5789178863491748
aF-3.0349716032368326
aF-0.029965879576333405
aF-0.0033742346445737627
aF-0.19952111688412233
aF0.6830714402907564
aF0.3517580729071502
aF2.543731285293583
aF-0.024864446797069364
aF0.016956117261262886
aa(lp49
F0.16683630767956714
aF0.46840506944457777
aF0.5789178863491748
aF-3.0349716032368326
aF-0.029965879576333405
aF-0.0033742346445737627
aF-0.19932656320053932
aF0.6801147382991345
aF0.35256143987982524
aF2.5436512092458554
aF-0.024905897216661893
aF0.016970187695113954
aa(lp50
F0.16683630767956714
aF0.46840506944457777
aF0.5789178863491748
aF-3.0349716032368326
aF-0.029965879576333405
aF-0.0033742346445737627
aF-0.19911700845170827
aF0.6776762204907161
aF0.35327523813087547
aF2.5436622611141297
aF-0.024950523283479627
aF0.016893534505054965
aa(lp51
F0.16683630767956714
aF0.46840506944457777
aF0.5789178863491748
aF-3.0349716032368326
aF-0.029965879576333405
aF-0.0033742346445737627
aF-0.19890976562161575
aF0.675687414280104
aF0.3538402463088186
aF2.543593139581217
aF-0.024961945731442444
aF0.016751467343269103
aa(lp52
F0.16683630767956714
aF0.46840506944457777
aF0.5789178863491748
aF-3.0349716032368326
aF-0.029965879576333405
aF-0.0033742346445737627
aF-0.19886548818551542
aF0.6740947298109379
aF0.3543136835063431
aF2.5435990150142027
aF-0.024904835042116467
aF0.01691067916384313
aa(lp53
F0.16683630767956714
aF0.46840506944457777
aF0.5789178863491748
aF-3.0349716032368326
aF-0.029965879576333405
aF-0.0033742346445737627
aF-0.19873352184150309
aF0.6727615991741757
aF0.35465489807833506
aF2.543550796074077
aF-0.024927788689132205
aF0.01687968887195663
aa(lp54
F0.16683630767956714
aF0.46840506944457777
aF0.5789178863491748
aF-3.0349716032368326
aF-0.029965879576333405
aF-0.0033742346445737627
aF-0.19863878358276904
aF0.6716622224878205
aF0.3549717609604711
aF2.5435623347822527
aF-0.024887990429198217
aF0.016831857329673093
aa(lp55
F0.16683630767956714
aF0.46840506944457777
aF0.5789178863491748
aF-3.0349716032368326
aF-0.029965879576333405
aF-0.0033742346445737627
aF-0.19859502408443272
aF0.6707679871718368
aF0.35519085277416657
aF2.5435487284912064
aF-0.024901777743787386
aF0.016870080126241322
aa.