(dp0
S'push1'
p1
(lp2
F-46.93599441821315
asS'push1_push2_cut1_cut2'
p3
(lp4
F-47.511992665045184
aF-69.60982446939951
aF-103.16597776019057
aF-120.34818178322571
asS'push1_push2_cut1_cut2_scoop1_scoop2_open1_open2'
p5
(lp6
F-80.15397943131998
aF-84.77584457601698
aF-103.24676316012787
aF-128.35606728131128
aF-105.91804976839799
aF-64.35579914073136
aF-265.05514276874976
aF-95.10805568675335
asS'push1_push2_cut1_cut2_scoop1_scoop2'
p7
(lp8
F-56.77133259832042
aF-91.45181730488092
aF-100.03721897111626
aF-119.08624283237175
aF-80.85442304669328
aF-52.27667940791481
asS'open2_open1_scoop2_scoop1_cut2'
p9
(lp10
F-65.84870948556417
aF-261.9235209172386
aF-120.98508206821512
aF-74.92817947943792
aF-118.03712561145956
asS'open2_open1_scoop2_scoop1_cut2_cut1'
p11
(lp12
F-58.694889815427494
aF-269.272617955147
aF-130.87139850426198
aF-77.09512183662073
aF-125.46398791026556
aF-131.19984511225644
asS'open2_open1'
p13
(lp14
F-38.24774282336686
aF-258.3261034692925
asS'push1_push2_cut1'
p15
(lp16
F-47.9222207331404
aF-66.42715409681901
aF-106.87213224414276
asS'open2_open1_scoop2_scoop1_cut2_cut1_push2_push1'
p17
(lp18
F-66.19644650224605
aF-259.338259348478
aF-57.6701605860011
aF-61.14862690146282
aF-122.66491238095037
aF-104.5480087057164
aF-79.7141871963669
aF-140.4111870073968
asS'push1_push2_cut1_cut2_scoop1'
p19
(lp20
F-61.28559755397092
aF-95.98548616068585
aF-103.02591132242556
aF-119.41320969887053
aF-76.20043027652933
asS'open2_open1_scoop2_scoop1'
p21
(lp22
F-57.50692567328768
aF-263.07826048211234
aF-51.74145802759102
aF-52.732494443065335
asS'push1_push2_cut1_cut2_scoop1_scoop2_open1'
p23
(lp24
F-62.690833902896465
aF-87.38689042134129
aF-101.0730810824439
aF-118.16899216598958
aF-50.73495663308047
aF-55.92482262682188
aF-256.4292343444141
asS'open2_open1_scoop2_scoop1_cut2_cut1_push2'
p25
(lp26
F-57.43576737114986
aF-258.6047830912254
aF-67.2642522353398
aF-59.386112822671315
aF-121.95616977927489
aF-99.45091563877934
aF-80.2981422393411
asS'open2_open1_scoop2'
p27
(lp28
F-53.66651472713787
aF-258.5929439435598
aF-59.6088663604569
asS'push1_push2'
p29
(lp30
F-47.6337114026185
aF-67.04596465737636
asS'open2'
p31
(lp32
F-38.63981491894189
as.