(dp0
S'push1'
p1
(lp2
F-46.9991249946828
asS'push1_push2_cut1_cut2'
p3
(lp4
F-53.021657901873986
aF-116.75095694617295
aF-94.84371805141575
aF-115.26480318498302
asS'push1_push2_cut1_cut2_scoop1_scoop2_open1_open2'
p5
(lp6
F-57.858827155536666
aF-112.04194478579477
aF-108.12604686786047
aF-128.1082700773411
aF-57.952175299938034
aF-300.283981616503
aF-347.4764397641937
aF-67.8101343672895
asS'push1_push2_cut1_cut2_scoop1_scoop2'
p7
(lp8
F-60.636432688472176
aF-168.2004259825688
aF-125.83296299271763
aF-120.36801407118821
aF-81.0093383301503
aF-60.8754654896347
asS'open2_open1_scoop2_scoop1_cut2'
p9
(lp10
F-87.31732413928768
aF-262.27122087877797
aF-165.625430833028
aF-67.00081571843398
aF-143.82144026759966
asS'open2_open1_scoop2_scoop1_cut2_cut1'
p11
(lp12
F-89.45415980544759
aF-258.6485607003353
aF-74.8211785398422
aF-58.44481845555825
aF-161.3073563504913
aF-111.54737255783215
asS'open2_open1'
p13
(lp14
F-69.0731078398593
aF-270.4845419840323
asS'push1_push2_cut1'
p15
(lp16
F-50.04973365646082
aF-115.36362269723682
aF-111.66550495549271
asS'open2_open1_scoop2_scoop1_cut2_cut1_push2_push1'
p17
(lp18
F-83.86044108708964
aF-253.5540733660221
aF-125.86141662517826
aF-137.69894249784505
aF-122.54132104711225
aF-170.84577729087627
aF-148.077376879406
aF-100.93847575313936
asS'push1_push2_cut1_cut2_scoop1'
p19
(lp20
F-88.00739616935884
aF-116.2619758031073
aF-160.40225053745425
aF-152.51877774161272
aF-92.29574048617289
asS'open2_open1_scoop2_scoop1'
p21
(lp22
F-66.75078148080169
aF-274.2365184448927
aF-189.2744296480845
aF-73.12779685320555
asS'push1_push2_cut1_cut2_scoop1_scoop2_open1'
p23
(lp24
F-182.40805202816398
aF-160.08489529175716
aF-190.04264900000692
aF-198.85045855258113
aF-116.54342274212136
aF-108.49148905990762
aF-436.13801096032046
asS'open2_open1_scoop2_scoop1_cut2_cut1_push2'
p25
(lp26
F-87.28729111633774
aF-259.40893267682816
aF-244.7828971104168
aF-74.21223380611542
aF-129.87410814569893
aF-256.73199500015454
aF-102.94659367424893
asS'open2_open1_scoop2'
p27
(lp28
F-66.05601056229126
aF-260.38654220186834
aF-60.41176493510095
asS'push1_push2'
p29
(lp30
F-45.056699681192136
aF-111.38684195836242
asS'open2'
p31
(lp32
F-66.05323536755527
as.