(dp0
S'push1'
p1
F-34.747839077427
sS'push2'
p2
F-48.051522639736376
sS'scoop2'
p3
F-34.32542713550914
sS'scoop1'
p4
F-43.92445761369861
sS'cut1'
p5
F-68.45746217919941
sS'cut2'
p6
F-77.92991222725479
sS'open1'
p7
F-118.71712025273473
sS'open2'
p8
F-38.646928003500456
s.