(dp0
S'demo_num'
p1
S'1'
p2
sS'model'
p3
S'push1_open1'
p4
sS'task'
p5
S'push2'
p6
sS'data'
p7
(lp8
(lp9
F0.40080809593200684
a(F-1.4630439917193812
F-1.2900131384478968
F-2.0150626341449183
F-1.3087595144854944
F1.529458999633789
F0.1079939752817154
tp10
a(lp11
F0.3
aF-0.24122581456016165
aF0.008397838861947358
aF0.21785738579575475
aF-0.020649179267937683
aF0.3
aa(lp12
(lp13
F0.5454468041495208
aF-0.1438170898944748
aF-0.16268444079743838
aF0.2809329079157256
aF-0.05238749431524524
aF0.5434058666597442
aaaF0.6000000238418579
a(lp14
F0.19553327560424805
aF-0.7086530327796936
aacnumpy.core.multiarray
scalar
p15
(cnumpy
dtype
p16
(S'f8'
p17
I0
I1
tp18
Rp19
(I3
S'<'
p20
NNNI-1
I-1
I0
tp21
bS'w\x1c\x86\xd1dq\xf2\xbf'
p22
tp23
Rp24
aa(lp25
F0.8017499446868896
a(F-1.3448975721942347
F-1.3822291533099573
F-2.0134103933917444
F-1.2262876669513147
F1.5188121795654297
F0.2256712019443512
tp26
a(lp27
F0.2744929275926257
aF-0.20686470277981944
aF-0.00017361172582816727
aF0.19102819173680724
aF-0.01587367825119225
aF0.28239833290393934
aa(lp28
(lp29
F0.41930304519880457
aF-0.15467658478304772
aF-0.10639486620355225
aF0.24259057942968854
aF-0.0399923161789615
aF0.41734146440240794
aaaF0.6000000238418579
a(lp30
F0.515949010848999
aF-0.45364707708358765
aag15
(g19
S's[s\x85\xe5;\xee\xbf'
p31
tp32
Rp33
aa(lp34
F1.2032620906829834
a(F-1.2433684507953089
F-1.458557430897848
F-2.0127161184894007
F-1.1577118078814905
F1.51075279712677
F0.32776331901550293
tp35
a(lp36
F0.21036561731844555
aF-0.18397197929910863
aF-0.007243245986514711
aF0.1464076881750561
aF-0.03025006335817211
aF0.21007482154262286
aa(lp37
(lp38
F0.3275411331319399
aF-0.13683188185606987
aF-0.08419045671758488
aF0.20947086467518183
aF-0.03057871271944421
aF0.32526264501320556
aaaF0.6000000238418579
a(lp39
F0.6276242733001709
aF-0.2112489491701126
aag15
(g19
S'm)P/\t\x92\xe8\xbf'
p40
tp41
Rp42
aa(lp43
F1.6056499481201172
a(F-1.159936253224508
F-1.521153752003805
F-2.011399571095602
F-1.101353947316305
F1.5041536092758179
F0.41116228699684143
tp44
a(lp45
F0.17184669856713983
aF-0.12544939823204315
aF0.01172070030230634
aF0.1182213386675065
aF-0.005477899062623148
aF0.18447136859282617
aa(lp46
(lp47
F0.259822557943717
aF-0.12716274720344445
aF-0.052278282157285506
aF0.16619035197061344
aF-0.023289393027531892
aF0.25800171554903045
aaaF0.6000000238418579
a(lp48
F0.6573617458343506
aF-0.15250857174396515
aag15
(g19
S'^C\x87HU\xed\xe3\xbf'
p49
tp50
Rp51
aa(lp52
F2.0065081119537354
a(F-1.094189469014303
F-1.5710719267474573
F-2.0104649702655237
F-1.0570209662066858
F1.4985846281051636
F0.47719648480415344
tp53
a(lp54
F0.13217067964095813
aF-0.10718743076813549
aF0.007432298841342038
aF0.08708446009296739
aF0.00354294511486666
aF0.15228911357063973
aa(lp55
(lp56
F0.2064388147680595
aF-0.11532208137555916
aF-0.03041593813612249
aF0.13236970443847193
aF-0.016366502828687533
aF0.2049739407586613
aaaF0.6000000238418579
a(lp57
F0.6368837356567383
aF-0.1305578500032425
aag15
(g19
S'vr`\xf4)A\xe0\xbf'
p58
tp59
Rp60
aa(lp61
F2.4066860675811768
a(F-1.040278736745016
F-1.6111753622638147
F-2.009555164967672
F-1.0214751402484339
F1.4944766759872437
F0.5307468771934509
tp62
a(lp63
F0.1255038572044185
aF-0.08672888505056078
aF0.015283238154241563
aF0.08192231533745054
aF-0.011721125579810966
aF0.11986475919639401
aa(lp64
(lp65
F0.162867649642117
aF-0.09884257181984918
aF-0.019186557124513875
aF0.10633196582458403
aF-0.011572044035278003
aF0.16213524841332114
aaaF0.25006502866744995
a(lp66
F0.6026378870010376
aF-0.1190464049577713
aag15
(g19
S'D\xf6\x08\x8cY\x8d\xda\xbf'
p67
tp68
Rp69
aa(lp70
F2.8067541122436523
a(F-0.9966023604022425
F-1.6438844839679163
F-2.008082691823141
F-0.9927037397967737
F1.4908720254898071
F0.5743911862373352
tp71
a(lp72
F0.09637379903031164
aF-0.07638956919430877
aF0.00943928638367461
aF0.07029910985035442
aF-0.013961688752117198
aF0.1166670362833706
aa(lp73
(lp74
F0.12914251864929538
aF-0.08096470340246932
aF-0.014060750955629558
aF0.08567752754590824
aF-0.008779297507560995
aF0.1285058603351413
aaaF0.01855422928929329
a(lp75
F0.5659463405609131
aF-0.10957445204257965
aag15
(g19
S'^M,\x88\xbb\xb5\xd5\xbf'
p76
tp77
Rp78
aa(lp79
F3.2072489261627197
a(F-0.9599645773517054
F-1.6709840933429163
F-2.0078910032855433
F-0.9685118834124964
F1.487794041633606
F0.61098313331604
tp80
a(lp81
F0.08423778476845165
aF-0.05870704816597408
aF-0.00812637128408662
aF0.05420859590351131
aF0.013844355726285406
aF0.0575444789774744
aa(lp82
(lp83
F0.10315724963106251
aF-0.062940045660199
aF-0.011789071966460946
aF0.06780999100300125
aF-0.00717765544775088
aF0.10232106597192978
aaaF0.6000000238418579
a(lp84
F0.5316438674926758
aF-0.10088534653186798
aag15
(g19
S'z\xff\xdb\xfe/\xa8\xd1\xbf'
p85
tp86
Rp87
aa(lp88
F3.6072700023651123
a(F-0.9303200880633753
F-1.6921756903277796
F-2.0076993147479456
F-0.9482043425189417
F1.4854705333709717
F0.6403797268867493
tp89
a(lp90
F0.07561371647984702
aF-0.04843728092253228
aF0.03110238085726531
aF0.05282730857018832
aF-0.012822268228375292
aF0.07251572691997063
aa(lp91
(lp92
F0.08515827487650474
aF-0.046690742332248264
aF-0.012168082109007237
aF0.05302665036929297
aF-0.00758600851903605
aF0.08416495309893429
aaaF0.0002595029363874346
a(lp93
F0.5047242641448975
aF-0.09647877514362335
aag15
(g19
S'\xf9.\xc2-\xbd\xc6\xcc\xbf'
p94
tp95
Rp96
aa(lp97
F4.008224964141846
a(F-0.9063990751849573
F-1.7099030653582972
F-2.0075553099261683
F-0.932751480733053
F1.483506679534912
F0.664211094379425
tp98
a(lp99
F0.051006965523859506
aF-0.028253322570269912
aF0.010570112592075385
aF0.03561676998402819
aF-0.012122135747296179
aF0.06428124360935317
aa(lp100
(lp101
F0.07259175451432948
aF-0.03278799402800877
aF-0.01362571804869319
aF0.04183658136887714
aF-0.007632479520216821
aF0.07131483775695445
aaaF0.0001753874821588397
a(lp102
F0.481289267539978
aF-0.09109552204608917
aag15
(g19
S'+\x0f(\r\xee\x80\xc7\xbf'
p103
tp104
Rp105
aa(lp106
F4.410470962524414
a(F-0.886789623891012
F-1.7244661490069788
F-2.0073283354388636
F-0.9194334189044397
F1.48197340965271
F0.6835446357727051
tp107
a(lp108
F0.049075132614309486
aF-0.02574507278282598
aF0.01649459706447508
aF0.043750469980151786
aF-0.02372418951881551
aF0.04681777672792571
aa(lp109
(lp110
F0.06389219746894635
aF-0.021836186720297347
aF-0.015962929752814263
aF0.03361937439719529
aF-0.008316857581736377
aF0.06261404180592813
aaaF6.51213777018711e-05
a(lp111
F0.462756872177124
aF-0.08745791018009186
aag15
(g19
S'\xea\xc0$\x1a\xb8)\xc3\xbf'
p112
tp113
Rp114
aa(lp115
F4.8107640743255615
a(F-0.870857063923971
F-1.7360809485064905
F-2.006909195576803
F-0.908919636403219
F1.4807041883468628
F0.6994240880012512
tp116
a(lp117
F0.03734743581075875
aF-0.015445637748919413
aF-0.0058947497134055026
aF0.005673012314501208
aF0.0067733799559964135
aF0.02602307701401797
aa(lp118
(lp119
F0.05639537860900252
aF-0.015997372690579076
aF-0.016228896666087324
aF0.02816288470069367
aF-0.008826693779272086
aF0.05502102190286025
aaaF0.0005463428678922355
a(lp120
F0.4481515884399414
aF-0.08524806797504425
aag15
(g19
S'"\xb2\xcc\x1e\xeaL\xbf\xbf'
p121
tp122
Rp123
aa(lp124
F5.212317943572998
a(F-0.8574278990374964
F-1.746209446583883
F-2.0065138975726526
F-0.8999164740191858
F1.4797338247299194
F0.7123052477836609
tp125
a(lp126
F-0.1006455214235757
aF-0.2773732273959134
aF0.3
aF-0.09870015687113295
aF-0.002209369430055898
aF-0.1114793838633098
aa(lp127
(lp128
F0.04615649866018965
aF-0.01801674058005294
aF-0.008686747405042492
aF0.02257953486549766
aF-0.008710442503473264
aF0.045327771872264985
aaaF0.10035409033298492
a(lp129
F0.4357790946960449
aF-0.08311660587787628
aag15
(g19
S'\xad\x15\xec\xa1\xf1\x96\xf0\xbf'
p130
tp131
Rp132
aa(lp133
F5.613685131072998
a(F-0.8661492506610315
F-1.7961691061602991
F-1.9554360548602503
F-0.9140623251544397
F1.479206919670105
F0.7032500505447388
tp134
a(lp135
F-0.10341024036015242
aF-0.25419265379450995
aF0.3
aF-0.11606595130637676
aF-0.004474543424988124
aF-0.10927337486754682
aa(lp136
(lp137
F0.025956329642688344
aF-0.022859771690698232
aF0.014087970455115017
aF0.015763627223257665
aF-0.0023274113776497254
aF0.026240076810446114
aaaF0.6000000238418579
a(lp138
F0.38798242807388306
aF-0.02539469301700592
aag15
(g19
S'/\x96\xf5\xb9\xc8\xdc\xee\xbf'
p139
tp140
Rp141
aa(lp142
F6.014080047607422
a(F-0.8797338644610804
F-1.844452206288473
F-1.8970864454852503
F-0.9282200972186487
F1.4801169633865356
F0.6900449395179749
tp143
a(lp144
F-0.10238389765379884
aF-0.22736358844986168
aF0.3
aF-0.08679586297100189
aF-0.012402075299033394
aF-0.08275550874402736
aa(lp145
(lp146
F-0.017205945417621292
aF-0.06776670247347194
aF0.08833701459840279
aF-0.007978744643321291
aF0.0015477011840181335
aF-0.017275569634485104
aaaF0.6000000238418579
a(lp147
F0.3539317846298218
aF0.01630304753780365
aag15
(g19
S'\xa1\x1f\xc8i\xf8V\xec\xbf'
p148
tp149
Rp150
aa(lp151
F6.415290117263794
a(F-0.9020627180682581
F-1.90074330965151
F-1.8192952314959925
F-0.9480484167682093
F1.481554388999939
F0.6675213575363159
tp152
a(lp153
F-0.06934430862779027
aF-0.1949940029706921
aF0.2958600456184558
aF-0.07878227844523909
aF0.00312790566830276
aF-0.09334589895032727
aa(lp154
(lp155
F-0.051444455552447366
aF-0.10739654978304682
aF0.1553990911560711
aF-0.032267302688538044
aF0.002663256755092013
aF-0.05139830614524385
aaaF0.6000000238418579
a(lp156
F0.3245002031326294
aF0.05378924310207367
aag15
(g19
S'\xb3e\x12\xba\xa1\x0b\xe9\xbf'
p157
tp158
Rp159
aa(lp160
F6.81641697883606
a(F-0.9286907354937952
F-1.9629815260516565
F-1.7253497282611292
F-0.9733670393573206
F1.4825003147125244
F0.6402478814125061
tp161
a(lp162
F-0.062129642045901316
aF-0.18442998199862526
aF0.25847949899090794
aF-0.07964655672903065
aF0.02399319096668646
aF-0.06585714163724872
aa(lp163
(lp164
F-0.0610437040478926
aF-0.11769124898089539
aF0.1745525606384554
aF-0.039603630113557185
aF0.0014837825662287157
aF-0.060226201680908496
aaaF0.6000000238418579
a(lp165
F0.298786997795105
aF0.08388219773769379
aag15
(g19
S"v\x9c\xb0O\xa1'\xe5\xbf"
p166
tp167
Rp168
aa(lp169
F7.2176830768585205
a(F-0.953353230153219
F-2.024874512349264
F-1.6323140303241175
F-0.9995129744159144
F1.4841893911361694
F0.6156367659568787
tp170
a(lp171
F-0.05351843990264529
aF-0.13663481819891793
aF0.20598299843261336
aF-0.05616178138027813
aF-0.0027942409673729993
aF-0.05780930145540071
aa(lp172
(lp173
F-0.06155055264596663
aF-0.11786451247049666
aF0.17745172179242336
aF-0.04246641145897595
aF0.000870429779233651
aF-0.06056157948226996
aaaF8.139620331348851e-05
a(lp174
F0.27543342113494873
aF0.10757903754711151
aag15
(g19
S'I]\x0b\x82\x0eQ\xe1\xbf'
p175
tp176
Rp177
aa(lp178
F7.61951208114624
a(F-0.9730680624591272
F-2.0765069166766565
F-1.5547917524920862
F-1.0216906706439417
F1.4857102632522583
F0.5952841639518738
tp179
a(lp180
F-0.041974254162202754
aF-0.1184980821992695
aF0.19044470708855368
aF-0.0356954372258949
aF0.0139302087997465
aF-0.06628566206780745
aa(lp181
(lp182
F-0.056203064306392186
aF-0.10901954857931019
aF0.16504495166985964
aF-0.04016260196078459
aF0.0006472759065090073
aF-0.05435783285080751
aaaF9.53394192038104e-05
a(lp183
F0.25459909439086914
aF0.12553058564662933
aag15
(g19
S'{bb\xc5\xff=\xdc\xbf'
p184
tp185
Rp186
aa(lp187
F8.020226955413818
a(F-0.9904940764056605
F-2.1184542814837855
F-1.4895780722247522
F-1.0402491728412073
F1.4869558811187744
F0.5780972838401794
tp188
a(lp189
F-0.03932723024298928
aF-0.09543934987659666
aF0.13436295870023973
aF-0.032413295436556536
aF-0.0011076555728660557
aF-0.043497019731571156
aa(lp190
(lp191
F-0.047150719774592106
aF-0.09270986122974581
aF0.13863064604606612
aF-0.032246589195738445
aF-1.988593884642278e-05
aF-0.04553836053202112
aaaF4.7625930164940655e-05
a(lp192
F0.2345026731491089
aF0.1415422409772873
aag15
(g19
S'v\xac\x183\x88\xe7\xd6\xbf'
p193
tp194
Rp195
aa(lp196
F8.42082691192627
a(F-1.0038960615741175
F-2.152381245289938
F-1.4389522711383265
F-1.0547907988177698
F1.488033652305603
F0.5647483468055725
tp197
a(lp198
F-0.021030201823066995
aF-0.07137356989455665
aF0.09842509047798323
aF-0.03581235215002131
aF0.0014800898671535128
aF-0.05034389546911348
aa(lp199
(lp200
F-0.04040395616577322
aF-0.07876142141067378
aF0.1178534691208413
aF-0.02723958352086439
aF0.0001146374408287857
aF-0.03892387921003174
aaaF4.679678022512235e-05
a(lp201
F0.21249151229858398
aF0.15743301808834076
aag15
(g19
S'\xeeM\x06\xcf!\xb7\xd2\xbf'
p202
tp203
Rp204
aa(lp205
F8.821533918380737
a(F-1.0146268049823206
F-2.180423084889547
F-1.3971307913409632
F-1.0671270529376429
F1.4888957738876343
F0.5538944005966187
tp206
a(lp207
F-0.031976625673478594
aF-0.06201192761745754
aF0.09697351632611881
aF-0.016252138032108884
aF0.009932089432765185
aF-0.02816437960767014
aa(lp208
(lp209
F-0.03430185314453931
aF-0.06546577901615284
aF0.09813729132048311
aF-0.022529868083527606
aF0.00037565474340972766
aF-0.03282396010147625
aaaF5.096087625133805e-05
a(lp210
F0.18945437669754028
aF0.17294959723949432
aag15
(g19
S':8\tiQ\x83\xce\xbf'
p211
tp212
Rp213
aa(lp214
F9.221946001052856
a(F-1.0231893698321741
F-2.2028654257403772
F-1.3630483786212366
F-1.0765979925738733
F1.4894590377807617
F0.5451152324676514
tp215
a(lp216
F-0.021416705765476152
aF-0.032592474164470905
aF0.08399010016087341
aF-0.009875071249882832
aF0.00586839319319993
aF-0.03431181867122815
aa(lp217
(lp218
F-0.028883499671865428
aF-0.05380491122653945
aF0.08053088848222387
aF-0.018437798097697966
aF0.0003378199155230168
aF-0.027364025612984354
aaaF4.5766217226628214e-05
a(lp219
F0.16735899448394775
aF0.18732278048992157
aag15
(g19
S'\xf3\xed\xdf\x9b\xec\xec\xc8\xbf'
p220
tp221
Rp222
aa(lp223
F9.622092962265015
a(F-1.0306618849383753
F-2.2210643927203577
F-1.335423771535055
F-1.0844863096820276
F1.4902013540267944
F0.538314938545227
tp224
a(lp225
F-0.009466140299192648
aF-0.05284523218400068
aF0.052361407626630815
aF-0.022100639975838523
aF0.006281241013228505
aF-0.009490319072728532
aa(lp226
(lp227
F-0.024060281368730833
aF-0.04316493855376998
aF0.06485863016106845
aF-0.01508907729880391
aF0.00025056410579712507
aF-0.023389422356611123
aaaF5.1194048864999786e-05
a(lp228
F0.14486587047576904
aF0.2019675225019455
aag15
(g19
S'\x96\x95\xc7#=b\xc4\xbf'
p229
tp230
Rp231
aa(lp232
F10.0278639793396
a(F-1.0370214621173304
F-2.235894505177633
F-1.3132041136371058
F-1.0910795370685022
F1.4909440279006958
F0.5329897999763489
tp233
a(lp234
F-0.011032763936655032
aF-0.03219275933625837
aF0.06343470751701549
aF-0.028269170289754838
aF-0.009205916969157369
aF-0.00992590797217517
aa(lp235
(lp236
F-0.019942933109478166
aF-0.03403503224832027
aF0.051973318165054794
aF-0.012698772516884525
aF0.0002807836639635103
aF-0.020439977264774905
aaaF4.231712955515832e-05
a(lp237
F0.12240481376647949
aF0.21648697555065155
aag15
(g19
S'A\x08(\x07\xad\xb4\xc0\xbf'
p238
tp239
Rp240
aa(lp241
F10.428648948669434
a(F-1.0415480772601526
F-2.2483513990985315
F-1.2938950697528284
F-1.096450153981344
F1.4911596775054932
F0.5278804302215576
tp242
a(lp243
F-0.009815586112308048
aF-0.059367366229395105
aF0.065245171905354
aF-0.0023074169639286848
aF0.007401635755918328
aF-0.003216746018650035
aa(lp244
(lp245
F-0.016848054965965177
aF-0.027939369743099796
aF0.0431688599819242
aF-0.011229898613235085
aF0.00026904844574511023
aF-0.01684894472063593
aaaF4.957057171850465e-05
a(lp246
F0.10441595315933228
aF0.22754155099391937
aag15
(g19
S'\x80\xc6H1\xc4\x1f\xbb\xbf'
p247
tp248
Rp249
aas.