(dp0
S'demo_num'
p1
S'1'
p2
sS'model'
p3
S'push1'
p4
sS'task'
p5
S'scoop1'
p6
sS'data'
p7
(lp8
(lp9
F0.4006810188293457
a(F-1.4975197950946253
F-1.3005707899676722
F-1.9050129095660608
F-1.5110886732684534
F1.581721544265747
F0.06133488938212395
tp10
a(lp11
F0.18862930753203305
aF-0.29298646135083084
aF0.3
aF-0.3
aF0.07557388831498764
aF0.14003449662741016
aa(lp12
(lp13
F0.1898126677416132
aF0.4432877818872433
aF-0.7501894136790458
aF0.3126680987432798
aF-0.007062645786722722
aF0.22439326375720658
aaaF0.800000011920929
a(lp14
F-0.07529012113809586
aF-0.010561861097812653
aacnumpy.core.multiarray
scalar
p15
(cnumpy
dtype
p16
(S'f8'
p17
I0
I1
tp18
Rp19
(I3
S'<'
p20
NNNI-1
I-1
I0
tp21
bS'\x9e8\r\x9d\xd1\xcc\xf2\xbf'
p22
tp23
Rp24
aa(lp25
F0.8009018898010254
a(F-1.433270279561178
F-1.404567066823141
F-1.7893312613116663
F-1.6259353796588343
F1.6174086332321167
F0.11546464264392853
tp26
a(lp27
F0.14805797446781876
aF-0.23501780470086459
aF0.2642471710455458
aF-0.2532071638098526
aF0.07950738661953609
aF0.12774837702698663
aa(lp28
(lp29
F0.1756039403979475
aF0.44758121010953184
aF-0.8074359815497979
aF0.3788205233334801
aF0.0027499561958972338
aF0.2103730717958765
aaaF0.800000011920929
a(lp30
F-0.07278350740671158
aF-0.010895190760493279
aag15
(g19
S'\xab7\x8d+\r\xc2\xee\xbf'
p31
tp32
Rp33
aa(lp34
F1.202497959136963
a(F-1.3804085890399378
F-1.4898608366595667
F-1.6934645811664026
F-1.7207592169391077
F1.646604061126709
F0.15921080112457275
tp35
a(lp36
F0.12129727456703521
aF-0.1778125501460626
aF0.2081734465858816
aF-0.20056946097944078
aF0.06730521376839334
aF0.12042113701680432
aa(lp37
(lp38
F0.1663331740779255
aF0.4576006995721879
aF-0.8590777034461664
aF0.42878322417842674
aF0.012937540134986823
aF0.20014204385980006
aaaF0.800000011920929
a(lp39
F-0.07171349972486496
aF-0.01101963222026825
aag15
(g19
S'\x9a\x1f\x877M\x1f\xe9\xbf'
p40
tp41
Rp42
aa(lp43
F1.6030049324035645
a(F-1.3375008741961878
F-1.559206787739889
F-1.6147163550006312
F-1.7987507025348108
F1.67073392868042
F0.19577467441558838
tp44
a(lp45
F0.1052131585620894
aF-0.1590812375769626
aF0.18280848039204856
aF-0.17882518876883266
aF0.04047514830875332
aF0.0711607713458164
aa(lp46
(lp47
F0.16029457707251119
aF0.4699207808132832
aF-0.9052502709821723
aF0.46807899034805023
aF0.022984102961224544
aF0.19178043250029264
aaaF0.800000011920929
a(lp48
F-0.07153230905532837
aF-0.011013182811439037
aag15
(g19
S'\xeaF*\nX\x80\xe4\xbf'
p49
tp50
Rp51
aa(lp52
F2.003124952316284
a(F-1.3020713965045374
F-1.6159094015704554
F-1.5507424513446253
F-1.8620784918414515
F1.6900495290756226
F0.22557495534420013
tp53
a(lp54
F0.07788164491521019
aF-0.10981885047954476
aF0.1350627097562906
aF-0.137221905862503
aF0.051821732824125964
aF0.07121950464503736
aa(lp55
(lp56
F0.15699124934362227
aF0.4820494092825902
aF-0.9454765916727081
aF0.49986509972686705
aF0.033200976920020255
aF0.18564942852277552
aaaF0.800000011920929
a(lp57
F-0.0720648318529129
aF-0.010913968086242676
aag15
(g19
S'm\x9aP\x1a\xcd\xbc\xe0\xbf'
p58
tp59
Rp60
aa(lp61
F2.4038429260253906
a(F-1.2736418882953089
F-1.662678066884176
F-1.4989355246173304
F-1.9136326948748987
F1.706215500831604
F0.2494879812002182
tp62
a(lp63
F0.06595537819416122
aF-0.1204293494838482
aF0.10409397875888801
aF-0.1371484584026694
aF0.040514380790738797
aF0.06629814074877657
aa(lp64
(lp65
F0.1551273203155848
aF0.4931234908578507
aF-0.9800354339483698
aF0.5257030442759909
aF0.0429719704219083
aF0.180473501828967
aaaF0.800000011920929
a(lp66
F-0.07306666672229767
aF-0.010753657668828964
aag15
(g19
S'\xaa\xe0/W\xaeX\xdb\xbf'
p67
tp68
Rp69
aa(lp70
F2.8048079013824463
a(F-1.2500961462603968
F-1.7004216353045862
F-1.4559319655047815
F-1.9556792418109339
F1.7192082405090332
F0.2696473002433777
tp71
a(lp72
F0.049478299541946213
aF-0.07858093166846193
aF0.09084978933687861
aF-0.10934249779500099
aF0.02036500523387034
aF0.038610370027420945
aa(lp73
(lp74
F0.15389478868358852
aF0.5033972424416513
aF-1.0099899496023652
aF0.5473673173464618
aF0.05133628013410181
aF0.1759249474876974
aaaF0.800000011920929
a(lp75
F-0.0739578977227211
aF-0.010610455647110939
aag15
(g19
S'\xd8\\\x83\xab\xa1Q\xd6\xbf'
p76
tp77
Rp78
aa(lp79
F3.2054808139801025
a(F-1.2169836203204554
F-1.6706846396075647
F-1.4832032362567347
F-1.928403679524557
F1.7327152490615845
F0.3035982549190521
tp80
a(lp81
F0.03975402916087008
aF-0.10901962507451804
aF0.12326498207182779
aF-0.1070416547809934
aF0.029365337004082007
aF0.00921748177597135
aa(lp82
(lp83
F0.15456491969835856
aF0.4960095655480667
aF-0.9876430422042802
aF0.5367079760384265
aF0.03909164309724797
aF0.17951995002010807
aaaF0.800000011920929
a(lp84
F-0.07058417052030563
aF-0.01106022484600544
aag15
(g19
S'`\x06\x1b\xba\x0c+\xd8\xbf'
p85
tp86
Rp87
aa(lp88
F3.6061229705810547
a(F-1.1821215788470667
F-1.6146276632892054
F-1.5396364370929163
F-1.8730128447162073
F1.7422951459884644
F0.3422028124332428
tp89
a(lp90
F0.024858571887465458
aF-0.15531379004704235
aF0.13187926831107963
aF-0.10888311141693788
aF0.018664114204394976
aF0.011173002206268899
aa(lp91
(lp92
F0.15768387778990772
aF0.4813459499144712
aF-0.9441689224731267
aF0.5098105066650076
aF0.02050327210284416
aF0.1863994736366823
aaaF0.800000011920929
a(lp93
F-0.06632628291845322
aF-0.01163292583078146
aag15
(g19
S'>>\x15C\x99\xb3\xdd\xbf'
p94
tp95
Rp96
aa(lp97
F4.006237030029297
a(F-1.1688559691058558
F-1.634810749684469
F-1.5184295813189905
F-1.8963683287249964
F1.7483901977539062
F0.35293617844581604
tp98
a(lp99
F0.02289302590877106
aF-0.10789655383615021
aF0.14222899670029926
aF-0.121441630224192
aF-0.001503695848570269
aF0.01852924547042202
aa(lp100
(lp101
F0.157173076568962
aF0.4860403069389211
aF-0.958803827768188
aF0.5215276374898734
aF0.026789405789600335
aF0.18455555419820963
aaaF0.800000011920929
a(lp102
F-0.06700582802295685
aF-0.011523477733135223
aag15
(g19
S'\xd0f\x17\xbd_8\xdb\xbf'
p103
tp104
Rp105
aa(lp106
F4.406689882278442
a(F-1.1628935972796839
F-1.6704924742328089
F-1.4800284544574183
F-1.9352133909808558
F1.75422203540802
F0.3561985194683075
tp107
a(lp108
F0.002524273042642697
aF-0.09846764694575492
aF0.10966282409523724
aF-0.09721523213626862
aF0.033978618591316755
aF-0.0026024658026671662
aa(lp109
(lp110
F0.15545995236770233
aF0.49575172492367015
aF-0.9872076459593995
aF0.5418213452572163
aF0.03711224914264953
aF0.17999270625664193
aaaF3.595954694901593e-05
a(lp111
F-0.06856775283813477
aF-0.011291377246379852
aag15
(g19
S'z\xe0*\xf8\xa8\x03\xd7\xbf'
p112
tp113
Rp114
aa(lp115
F4.807294845581055
a(F-1.1592891852008265
F-1.706618611012594
F-1.4412053267108362
F-1.9731953779803675
F1.7585090398788452
F0.3558625876903534
tp116
a(lp117
F0.010997239814818316
aF-0.09151476927921584
aF0.08985879401914611
aF-0.06913908306416697
aF-0.001225427038250005
aF-0.005331763610719461
aa(lp118
(lp119
F0.15427457377552045
aF0.5058567615028647
aF-1.0161348227994351
aF0.5616573616938474
aF0.04764044206875227
aF0.175873258437566
aaaF3.5936925996793434e-05
a(lp120
F-0.07042728364467621
aF-0.011029917746782303
aag15
(g19
S'|\xa0\x1fm\x06\xd3\xd2\xbf'
p121
tp122
Rp123
aa(lp124
F5.208279848098755
a(F-1.1563084761248987
F-1.7371600309955042
F-1.4087069670306605
F-2.0048473517047327
F1.7625080347061157
F0.356006383895874
tp125
a(lp126
F-0.01397973194016433
aF-0.052471294588516966
aF0.06492140478004471
aF-0.060600959624364195
aF0.01334302565892641
aF0.012671201936590933
aa(lp127
(lp128
F0.1534949274348341
aF0.5146429451301417
aF-1.0406985467197947
aF0.5776719123151411
aF0.05658843786038015
aF0.17197173481059846
aaaF3.591260247048922e-05
a(lp129
F-0.07219909131526947
aF-0.010781373828649521
aag15
(g19
S'\xc2Q\xc6\x1e\xc8\x9e\xce\xbf'
p130
tp131
Rp132
aa(lp133
F5.608989000320435
a(F-1.1538179556476038
F-1.7609999815570276
F-1.3831575552569788
F-2.0303242842303675
F1.7651302814483643
F0.3565700352191925
tp134
a(lp135
F0.019774764824312403
aF-0.05104759900211302
aF0.06795142076978053
aF-0.05959640856534631
aF0.01945314744329902
aF0.01072505637888911
aa(lp136
(lp137
F0.15302867682855548
aF0.5218963923133731
aF-1.0607573460698745
aF0.5904289217200791
aF0.06416463256980552
aF0.16854420011978927
aaaF3.604861558414996e-05
a(lp138
F-0.07370859384536743
aF-0.010568260215222836
aag15
(g19
S'\xea\x87\x10Y\xeb\x10\xc9\xbf'
p139
tp140
Rp141
aa(lp142
F6.008996963500977
a(F-1.1520941893206995
F-1.7804907003985804
F-1.3617060820208948
F-2.05099326768984
F1.7672619819641113
F0.3566299378871918
tp143
a(lp144
F-0.004521381722271912
aF-0.035483163227061465
aF0.04758521530042191
aF-0.01938510625130316
aF-0.004802046297581691
aF0.01323927754055571
aa(lp145
(lp146
F0.15259320695737075
aF0.5282456600113274
aF-1.077912914225548
aF0.6010586816726302
aF0.07001280446712704
aF0.16564995659684228
aaaF3.5912431485485286e-05
a(lp147
F-0.07489880174398422
aF-0.010401029139757156
aag15
(g19
S'-\x8b\xa5\x95\xfe~\xc4\xbf'
p148
tp149
Rp150
aa(lp151
F6.409986972808838
a(F-1.1505134741412562
F-1.7969844977008265
F-1.3445566336261194
F-2.0683415571795862
F1.7686870098114014
F0.35625842213630676
tp152
a(lp153
F0.0006935502503897057
aF-0.030393874083642775
aF0.02856381820573233
aF-0.03871080046352815
aF0.0015000828250948694
aF-0.006539765743288358
aa(lp154
(lp155
F0.15252086201068332
aF0.5331559019957368
aF-1.0916779480302203
aF0.609460280964831
aF0.07569994950062917
aF0.16328166553844245
aaaF3.5910205042455345e-05
a(lp156
F-0.07615441083908081
aF-0.010227754712104797
aag15
(g19
S'"\x88\x93\xf2\xf4\xb7\xc0\xbf'
p157
tp158
Rp159
aa(lp160
F6.810597896575928
a(F-1.1492441336261194
F-1.809833828602926
F-1.3303425947772425
F-2.082093063985006
F1.7701120376586914
F0.3559105098247528
tp161
a(lp162
F0.000546524804712667
aF-0.039569066339295064
aF0.02954308784093116
aF-0.027331753955575293
aF-0.0033893661640182968
aF-0.0003805929415281608
aa(lp163
(lp164
F0.15228457010551194
aF0.5374784809556876
aF-1.1032743502340587
aF0.6164738392410446
aF0.07958940132051985
aF0.1613757434984753
aaaF3.591075073927641e-05
a(lp165
F-0.0769803375005722
aF-0.01011291891336441
aag15
(g19
S'\xf8\x93.\x86la\xbb\xbf'
p166
tp167
Rp168
aa(lp169
F7.211094856262207
a(F-1.1484301725970667
F-1.8319857756244105
F-1.3599684874164026
F-2.0404308477984827
F1.7713333368301392
F0.3559344708919525
tp170
a(lp171
F0.005509204507360825
aF-0.07714696361649052
aF-0.13072894561694492
aF0.17181701721737566
aF0.00906242474267336
aF-0.010164137742202133
aa(lp172
(lp173
F0.16232715800996386
aF0.5169597434809212
aF-1.0758688757532842
aF0.5932794497769939
aF0.1005780525854291
aF0.16251356435183248
aaaF3.590897176763974e-05
a(lp174
F-0.08791488409042358
aF-0.008755188435316086
aag15
(g19
S'\x9b\x8f\x19\x00w \xde\xbf'
p175
tp176
Rp177
aa(lp178
F7.611161947250366
a(F-1.148106877003805
F-1.8573020140277308
F-1.4096058050738733
F-1.9741547743426722
F1.7724350690841675
F0.35585060715675354
tp179
a(lp180
F0.009418693206963284
aF-0.06339737008964247
aF-0.08908630129674591
aF0.14628310490312824
aF-0.0036377905015128158
aF-0.015741358922883114
aa(lp181
(lp182
F0.1750432450445261
aF0.4857174476250434
aF-1.029965168132718
aF0.5539125996642061
aF0.12909972399691588
aF0.1636797368361933
aaaF3.5909040889237076e-05
a(lp183
F-0.10342493653297424
aF-0.006765455007553101
aag15
(g19
S'\xc1\xc4\xd0\xc2\xb7\x95\xd8\xbf'
p184
tp185
Rp186
aa(lp187
F8.012084007263184
a(F-1.1474364439593714
F-1.877284351979391
F-1.4495213667498987
F-1.920239273701803
F1.7736084461212158
F0.3555985391139984
tp188
a(lp189
F0.002153039053180354
aF-0.05539518659460205
aF-0.08000321524396387
aF0.1056944454578436
aF0.00034390194957097694
aF-0.002636882552677313
aa(lp190
(lp191
F0.18050523295712478
aF0.46479415900537435
aF-0.9987809279337957
aF0.526024744218906
aF0.14734295534275024
aF0.16262192017307084
aaaF3.5909106372855604e-05
a(lp192
F-0.1159113347530365
aF-0.005109865218400955
aag15
(g19
S';\xf1 \xbf\xbf\x1a\xd4\xbf'
p193
tp194
Rp195
aa(lp196
F8.412178039550781
a(F-1.1469815413104456
F-1.894402329121725
F-1.4829400221454065
F-1.8763459364520472
F1.7739559412002563
F0.3555985391139984
tp197
a(lp198
F0.0001137709380496936
aF-0.048698594339383235
aF-0.08952478799424021
aF0.10313255813957406
aF0.00020097406396977287
aF1.8148177940786674e-05
aa(lp199
(lp200
F0.17963725977834613
aF0.449905613359964
aF-0.9773831400032684
aF0.5073411510622433
aF0.15787694633893234
aF0.15834890809612173
aaaF3.590907363104634e-05
a(lp201
F-0.12661702930927277
aF-0.003645482240244746
aag15
(g19
S',\xba\xf5\x12eh\xd0\xbf'
p202
tp203
Rp204
aa(lp205
F8.812196969985962
a(F-1.1461194197284144
F-1.9083550612079065
F-1.5103781859027308
F-1.8403423468219202
F1.774566411972046
F0.3559105098247528
tp206
a(lp207
F-0.018100086131775182
aF-0.02159070039187736
aF-0.06222332786779739
aF0.10586236758733417
aF0.011460455543078325
aF0.013312356278206877
aa(lp208
(lp209
F0.16871133124571358
aF0.4176009316479092
aF-0.934417755098051
aF0.4842599198175397
aF0.16026140614625073
aF0.14612136293173428
aaaF3.5909040889237076e-05
a(lp210
F-0.13537243008613586
aF-0.0024218803737312555
aag15
(g19
S'\x0b(\x10"h\xc0\xca\xbf'
p211
tp212
Rp213
aa(lp214
F9.212229013442993
a(F-1.1456883589373987
F-1.9195516745196741
F-1.532447640095846
F-1.8104761282550257
F1.7751293182373047
F0.35623446106910706
tp215
a(lp216
F0.009988868340367522
aF-0.01673383576442267
aF-0.07726431835100568
aF0.05292364463005286
aF-0.0005082908039626141
aF-0.007677473145258917
aa(lp217
(lp218
F0.1265382888385629
aF0.28566653493943145
aF-0.7585860531916258
aF0.40786138375717834
aF0.14969817476460953
aF0.10270440838400983
aaaF3.5909106372855604e-05
a(lp219
F-0.14237448573112488
aF-0.001428248593583703
aag15
(g19
S'G\xed\xa4y>\xc9\xc5\xbf'
p220
tp221
Rp222
aa(lp223
F9.612751960754395
a(F-1.1456049124347132
F-1.9282901922809046
F-1.5499995390521448
F-1.7868331114398401
F1.775752067565918
F0.3563183546066284
tp224
a(lp225
F-0.0043373560818208345
aF-0.009009242060439578
aF-0.05394705389694854
aF0.045216113343745264
aF-0.012999613258407186
aF0.014616585672223783
aa(lp226
(lp227
F0.0712466008839054
aF0.1122309976491673
aF-0.5240779359082087
aF0.3057680566059969
aF0.13341357376634524
aF0.04591568889676577
aaaF3.590924461605027e-05
a(lp228
F-0.14786680042743683
aF-0.0006380670238286257
aag15
(g19
S'{\x0e\xd9\x95\xa0\xda\xc1\xbf'
p229
tp230
Rp231
aa(lp232
F10.012945890426636
a(F-1.145832363759176
F-1.9357340971576136
F-1.5647838751422327
F-1.7670868078814905
F1.7760512828826904
F0.35628241300582886
tp233
a(lp234
F-0.0063033234968849485
aF-0.028541385265895634
aF-0.039024489259247785
aF0.050257701548435604
aF-0.013730187973952828
aF-0.020686236636419966
aa(lp235
(lp236
F0.042835883879075526
aF0.03177956288476725
aF-0.41229116170560437
aF0.25449098423631666
aF0.12504995791969697
aF0.016608289086162208
aaaF3.5909004509449005e-05
a(lp237
F-0.15251928567886353
aF3.934139385819435e-05
aag15
(g19
S':\xd0\x12\xac\xaf\x1c\xbd\xbf'
p238
tp239
Rp240
aa(lp241
F10.414240837097168
a(F-1.141773525868551
F-1.9283502737628382
F-1.589259449635641
F-1.7521598974811
F1.7786736488342285
F0.3600480854511261
tp242
a(lp243
F0.024215370756580153
aF0.10146904827074246
aF-0.11818757927362664
aF0.015290052494935619
aF0.010304821557224897
aF0.052892002431459716
aa(lp244
(lp245
F0.03591689771692247
aF0.014164988709286196
aF-0.38594672230432964
aF0.24140429569827082
aF0.12409974118374546
aF0.008637984935847266
aaaF3.591102722566575e-05
a(lp246
F-0.15446005761623383
aF0.0003440873697400093
aag15
(g19
S'\x91\xe8da\xec\xde\xd3\xbf'
p247
tp248
Rp249
aa(lp250
F10.816228866577148
a(F-1.129021469746725
F-1.8945220152484339
F-1.6319192091571253
F-1.7415855566607874
F1.7851039171218872
F0.3703859746456146
tp251
a(lp252
F0.0523464229143855
aF0.07693683060898732
aF-0.10018701981453587
aF0.03351520422921446
aF0.021017558942891097
aF0.025649323301411578
aa(lp253
(lp254
F0.04746159958126575
aF0.037308943473979554
aF-0.4158793509446856
aF0.2556036252150875
aF0.13028034354991944
aF0.01955669715984242
aaaF3.592095890780911e-05
a(lp255
F-0.1518487185239792
aF4.431931301951408e-06
aag15
(g19
S'\xbbs\x0f\xad\x86%\xd0\xbf'
p256
tp257
Rp258
aa(lp259
F11.216867923736572
a(F-1.1189754644977015
F-1.8680065313922327
F-1.6659749189959925
F-1.733300511037008
F1.79026460647583
F0.378925085067749
tp260
a(lp261
F0.026345269990009607
aF0.07980464202433031
aF-0.07610924262674518
aF0.01877003597362587
aF0.012554250891088874
aF0.00965557155620486
aa(lp262
(lp263
F0.06331380714951969
aF0.07447121828026401
aF-0.4623320206827597
aF0.27541841364346553
aF0.13756068530547721
aF0.034643548994740786
aaaF3.590975757106207e-05
a(lp264
F-0.15006445348262787
aF-0.00021759653463959694
aag15
(g19
S'\xf6pR\x7f/b\xca\xbf'
p265
tp266
Rp267
aa(lp268
F11.618144989013672
a(F-1.1113484541522425
F-1.8464415709124964
F-1.694291893635885
F-1.7272213141070765
F1.7946950197219849
F0.38601264357566833
tp269
a(lp270
F0.002134133836538642
aF0.047458036478074055
aF-0.06368547318087978
aF0.025360731327338477
aF-0.006977467712884409
aF0.022216061524490287
aa(lp271
(lp272
F0.07982833176780134
aF0.1132606917148943
aF-0.5091728180142437
aF0.2941708625871255
aF0.14481635521316888
aF0.05001768879462691
aaaF3.5909415601054206e-05
a(lp273
F-0.1488284468650818
aF-0.0003588455729186535
aag15
(g19
S'\xa8\x14\xbc\x81\x87\x8a\xc5\xbf'
p274
tp275
Rp276
aa(lp277
F12.019217014312744
a(F-1.1046431700335901
F-1.8279097715960901
F-1.717217270527975
F-1.7218149344073694
F1.7983472347259521
F0.3910141885280609
tp278
a(lp279
F0.0077161681859871595
aF0.03210205784598596
aF-0.06868427911345959
aF0.02394321583535338
aF0.004830947853258603
aF0.011905133313615434
aa(lp280
(lp281
F0.10061843358965
aF0.16217421731825238
aF-0.5675253576684591
aF0.3169516634975249
aF0.15306861770983105
aF0.07069868903131472
aaaF3.590945198084228e-05
a(lp282
F-0.1475844532251358
aF-0.0005148753989487886
aag15
(g19
S'\x91DV\xf3K\x88\xc1\xbf'
p283
tp284
Rp285
aa(lp286
F12.419530868530273
a(F-1.099541966115133
F-1.8133223692523401
F-1.7361896673785608
F-1.7172225157367151
F1.8010298013687134
F0.3955595791339874
tp287
a(lp288
F-0.0004065506408673959
aF0.029663952138324737
aF-0.05025643958492552
aF0.005802378357261786
aF-0.00706267935182478
aF0.01906829628383934
aa(lp289
(lp290
F0.1152436949967584
aF0.19456160207531992
aF-0.6043519748785916
aF0.33047807243924676
aF0.15925147001849793
aF0.08473710429892192
aaaF3.590952110243961e-05
a(lp291
F-0.14683011174201965
aF-0.00060037593357265
aag15
(g19
S'\xa3\xe6sX\xcd\x8c\xbc\xbf'
p292
tp293
Rp294
aas.