(dp0
S'demo_num'
p1
S'1'
p2
sS'model'
p3
S'scoop1'
p4
sS'task'
p5
S'scoop1'
p6
sS'data'
p7
(lp8
(lp9
F0.4003560543060303
a(F-1.519238297139303
F-1.2647879759417933
F-1.9409716765033167
F-1.4759004751788538
F1.5684163570404053
F0.0440315417945385
tp10
a(lp11
F0.1514979441614348
aF-0.3
aF0.2392935758892004
aF-0.2611191549511033
aF0.25590072746411785
aF0.18365886405378612
aa(lp12
(lp13
F0.06533867467102399
aF0.6820322043286812
aF-0.41860279673046336
aF0.3331383362009034
aF-0.1026012078985537
aF0.13620029324597685
aaaF0.1548532247543335
a(lp14
F-1.1415947675704956
aF0.7593620419502258
aacnumpy.core.multiarray
scalar
p15
(cnumpy
dtype
p16
(S'f8'
p17
I0
I1
tp18
Rp19
(I3
S'<'
p20
NNNI-1
I-1
I0
tp21
bS'\x1db-d\xf1\xe6\xf3\xbf'
p22
tp23
Rp24
aa(lp25
F0.8003809452056885
a(F-1.4456561247455042
F-1.3725817839251917
F-1.8277862707721155
F-1.5882404486285608
F1.6060075759887695
F0.1039770096540451
tp26
a(lp27
F0.26032375294920046
aF-0.266976493433777
aF0.25661636179469877
aF-0.262978369497073
aF0.09963869468534209
aF0.09877976093714705
aa(lp28
(lp29
F-0.10109714441269985
aF-0.14661887373268778
aF0.1760740678800309
aF-0.3967121827232337
aF0.021082844721803516
aF-0.14609762326691247
aaaF0.16805678606033325
a(lp30
F0.31932833790779114
aF-0.20453040301799774
aag15
(g19
S'\xd9\xb4>\xf8#l\xf0\xbf'
p31
tp32
Rp33
aa(lp34
F1.2042710781097412
a(F-1.3843944708453577
F-1.4650047461139124
F-1.7248109022723597
F-1.691829029713766
F1.6351318359375
F0.15325090289115906
tp35
a(lp36
F0.11274413941702321
aF-0.20509990751743679
aF0.15344605025098396
aF-0.2569537867502461
aF0.03985302337998524
aF0.02555611049090291
aa(lp37
(lp38
F-0.1474269887349778
aF-0.09703835388861043
aF0.12755568135093273
aF-0.3447147143960842
aF0.0006822855745652161
aF-0.191607051028827
aaaF0.0028637838549911976
a(lp39
F0.30927518010139465
aF-0.20050425827503204
aag15
(g19
S'\x9a+H8\xa2\xb3\xea\xbf'
p40
tp41
Rp42
aa(lp43
F1.6050491333007812
a(F-1.3371418158160608
F-1.5438292662249964
F-1.6373932997332972
F-1.7778051535235804
F1.6612255573272705
F0.19223707914352417
tp44
a(lp45
F0.10515284604503258
aF-0.27168730788049944
aF0.23197880881138777
aF-0.2557026609997068
aF-0.05196360854505182
aF-0.01595502597474155
aa(lp46
(lp47
F-0.18134384666254322
aF-0.04924653997989875
aF0.07921289032039927
aF-0.2990031895104213
aF-0.025078128774566
aF-0.2259438935054643
aaaF0.0005926407757215202
a(lp48
F0.29768624901771545
aF-0.19505654275417328
aag15
(g19
S'\x89ii\xbc\x08\x93\xe5\xbf'
p49
tp50
Rp51
aa(lp52
F2.0055150985717773
a(F-1.3018081823932093
F-1.6053980032550257
F-1.569815460835592
F-1.845245663319723
F1.6833076477050781
F0.2218216359615326
tp53
a(lp54
F0.13052424743217356
aF-0.13713160104754232
aF0.19360606791392293
aF-0.24822299353536215
aF-0.03531806604669223
aF0.09645456735819548
aa(lp55
(lp56
F-0.20440632974886636
aF-0.009687261750870532
aF0.03866478561122775
aF-0.2630810459461204
aF-0.04891050490919977
aF-0.24966590037830233
aaaF0.00030980785959400237
a(lp57
F0.28607842326164246
aF-0.18903429806232452
aag15
(g19
S'\xb5\x08\x7fK\xc3\x96\xe1\xbf'
p58
tp59
Rp60
aa(lp61
F2.407150983810425
a(F-1.2459901014911097
F-1.6818555037127894
F-1.4870742003070276
F-1.9319527784930628
F1.708526611328125
F0.2651262581348419
tp62
a(lp63
F0.1302765990218784
aF-0.1870526524471894
aF0.05839598598004146
aF-0.026666720006405326
aF0.029534314431630296
aF0.025855703896817368
aa(lp64
(lp65
F-0.23367477740687775
aF0.04982626895766125
aF-0.02351418491525493
aF-0.21474726653786708
aF-0.07331626133150745
aF-0.2754768903346734
aaaF0.00016095676983240992
a(lp66
F0.27649423480033875
aF-0.1835808902978897
aag15
(g19
S'\x03\xa4$W=\xef\xd8\xbf'
p67
tp68
Rp69
aa(lp70
F2.8077290058135986
a(F-1.2083523909198206
F-1.747227970753805
F-1.4189170042621058
F-1.999319855366842
F1.7275664806365967
F0.3001445531845093
tp71
a(lp72
F0.05903200406056543
aF-0.03935244725591775
aF0.019694748318518772
aF-0.03960728324829363
aF0.053211304885380034
aF0.04583151845248004
aa(lp73
(lp74
F-0.24758485696967822
aF0.10097454917081712
aF-0.07253680232189175
aF-0.1815161888799221
aF-0.09111976839747787
aF-0.2915551091123502
aaaF0.0001457400940125808
a(lp75
F0.26338204741477966
aF-0.17604927718639374
aag15
(g19
S'\xe8pohb\xc2\xd0\xbf'
p76
tp77
Rp78
aa(lp79
F3.209195137023926
a(F-1.182037655507223
F-1.7916863600360315
F-1.365840260182516
F-2.048044029866354
F1.7454923391342163
F0.3234703540802002
tp80
a(lp81
F0.025162600127508195
aF0.006287179100051554
aF0.10415614912531307
aF-0.007117051441676223
aF0.1296502421023153
aF-0.015547473845123241
aa(lp82
(lp83
F-0.2533971158892999
aF0.1391524891888293
aF-0.10133526200671057
aF-0.1731096548592793
aF-0.10329121726284166
aF-0.29826646514287014
aaaF0.00013906124513596296
a(lp84
F0.2570613622665405
aF-0.1725304126739502
aag15
(g19
S'\xc5][Uz\x99\xc5\xbf'
p85
tp86
Rp87
aa(lp88
F3.609678030014038
a(F-1.1682928244220179
F-1.8175771872149866
F-1.3278492132769983
F-2.0872367064105433
F1.7614301443099976
F0.3425503671169281
tp89
a(lp90
F0.013328648852518563
aF-0.13484038017706412
aF-0.026624631334213347
aF-0.03964511372503553
aF0.08447780081340302
aF-0.00020434109536359227
aa(lp91
(lp92
F-0.2540333155971103
aF0.16180943679547216
aF-0.11068035458564598
aF-0.1799929305772965
aF-0.1133934849295575
aF-0.305344432178525
aaaF0.0001395131112076342
a(lp93
F0.24608300626277924
aF-0.16635040938854218
aag15
(g19
S'\xe9I\x85\x1b\x84W\xba\xbf'
p94
tp95
Rp96
aa(lp97
F4.016369104385376
a(F-1.1668203512774866
F-1.8349464575396937
F-1.303267780934469
F-2.1097758452044886
F1.7715129852294922
F0.3470841348171234
tp98
a(lp99
F0.05926020260021914
aF-0.03801724520756424
aF0.014415344365935678
aF0.06852216490227883
aF-0.10628702277300275
aF0.03746061849222921
aa(lp100
(lp101
F-0.2535687128818222
aF0.16591490425281083
aF-0.10931226890230854
aF-0.18352112366360845
aF-0.12205700813200077
aF-0.307694204095579
aaaF0.0001425897644367069
a(lp102
F0.2372385412454605
aF-0.1615571826696396
aag15
(g19
S"\xf5'\xb4\xc9\xf7\xb6\xb0\xbf"
p103
tp104
Rp105
aa(lp106
F4.417120933532715
a(F-1.1581404844867151
F-1.8414433638202112
F-1.283168141041891
F-2.1160338560687464
F1.7759435176849365
F0.34919485449790955
tp107
a(lp108
F0.0522078305495691
aF0.10291631527177636
aF-0.04464200586995175
aF0.03897786797214244
aF0.0012225157387445538
aF0.05690462620103709
aa(lp109
(lp110
F-0.2565716900024188
aF0.1698708358002008
aF-0.11631202766129532
aF-0.18452606274337674
aF-0.12219841076549504
aF-0.30728581670550953
aaaF0.00013754783140029758
a(lp111
F0.24967242777347565
aF-0.16935956478118896
aag15
(g19
S'\xbe\xd3\xe0\xe7\xd9\x04\xa7\xbf'
p112
tp113
Rp114
aa(lp115
F4.818602085113525
a(F-1.1518901030169886
F-1.8479159514056605
F-1.2731836477862757
F-2.126524273549215
F1.775991439819336
F0.34737175703048706
tp116
a(lp117
F-0.07358120381158463
aF-0.02102438232668665
aF0.14285154684841173
aF-0.11950740615131289
aF-0.014098650082910296
aF-0.04218675761926996
aa(lp118
(lp119
F-0.25944618463068553
aF0.17181277112358573
aF-0.12318513393296998
aF-0.17397249779947194
aF-0.12243169672467313
aF-0.30366825037811335
aaaF0.00013456326269079
a(lp120
F0.25445935130119324
aF-0.17191366851329803
aag15
(g19
S'\x1f\xb9\x1f\xf2T\xc5\x9e\xbf'
p121
tp122
Rp123
aa(lp124
F5.218655109405518
a(F-1.1499269644366663
F-1.8507450262652796
F-1.2710979620562952
F-2.1423257032977503
F1.7766741514205933
F0.3508857488632202
tp125
a(lp126
F0.016148331745063155
aF-0.046159651572059285
aF-0.11585008292956739
aF-0.09809904859123632
aF0.0843616734047843
aF0.07132428330820262
aa(lp127
(lp128
F-0.26206576769939494
aF0.16550024876609767
aF-0.12485206115859548
aF-0.15804214426097726
aF-0.1259231300161343
aF-0.3061410930359476
aaaF0.0001347294164588675
a(lp129
F0.24595646560192108
aF-0.16638602316379547
aag15
(g19
S'X\xc8\x1a\x02Q~\x94\xbf'
p130
tp131
Rp132
aa(lp133
F5.619241952896118
a(F-1.1473167578326624
F-1.8766849676715296
F-1.3402183691607874
F-2.0756309668170374
F1.7757161855697632
F0.35474729537963867
tp134
a(lp135
F0.0030633246565294316
aF0.06792704823136435
aF-0.26404185885437115
aF0.21310670672470067
aF-0.029547620605549517
aF-0.07658994627796613
aa(lp136
(lp137
F-0.2570434498334537
aF0.19581219985199202
aF-0.14470171204628507
aF-0.1516598484742866
aF-0.1242487577359826
aF-0.30104436205639895
aaaF0.00013477771426551044
a(lp138
F0.2207685261964798
aF-0.1494588702917099
aag15
(g19
S'\x834}\xfe$\xef\xdf\xbf'
p139
tp140
Rp141
aa(lp142
F6.02039909362793
a(F-1.1425755659686487
F-1.9085710684405726
F-1.4317267576800745
F-1.9674165884601038
F1.778781533241272
F0.35159358382225037
tp143
a(lp144
F-0.007986581434290152
aF0.021952936476426696
aF-0.12254904621761104
aF0.16895129164561484
aF-0.08931578787821587
aF0.029399401521540296
aa(lp145
(lp146
F-0.25838864267771566
aF0.21546443442031382
aF-0.17441753093233014
aF-0.13033564034031003
aF-0.12661370536253833
aF-0.29559687218943037
aaaF0.00013287457113619894
a(lp147
F0.19921056926250458
aF-0.13390472531318665
aag15
(g19
S'\xe12\x90e\xd7\xad\xd6\xbf'
p148
tp149
Rp150
aa(lp151
F6.420552968978882
a(F-1.1406834761248987
F-1.931934658681051
F-1.5015118757831019
F-1.8765857855426233
F1.7764225006103516
F0.34895479679107666
tp152
a(lp153
F-0.09921906407547532
aF0.0053896763527473655
aF-0.23706747602709252
aF0.07547796637925892
aF-0.006375062781086458
aF-0.02463503099835825
aa(lp154
(lp155
F-0.26457954390396765
aF0.2022591655628197
aF-0.18592877010519795
aF-0.09888723512488083
aF-0.12796614072057985
aF-0.29647337936508544
aaaF0.0001319133589277044
a(lp156
F0.18587514758110046
aF-0.12378780543804169
aag15
(g19
S'B\xdd\xbc7\xcfr\xce\xbf'
p157
tp158
Rp159
aa(lp160
F6.821453094482422
a(F-1.1419885794269007
F-1.9405530134784144
F-1.5495923201190394
F-1.8161113897906702
F1.7815715074539185
F0.35233697295188904
tp161
a(lp162
F-0.05917448829407103
aF-0.007180772522183733
aF0.0078105625783676455
aF0.07616339911696934
aF-0.10048573022901042
aF0.09509704281812498
aa(lp163
(lp164
F-0.26925085561587575
aF0.1851753826606878
aF-0.1775210639150553
aF-0.09545262607623008
aF-0.1340103820350508
aF-0.30458714124705294
aaaF0.0001323934702668339
a(lp165
F0.17082776129245758
aF-0.11362530291080475
aag15
(g19
S'\xf8\xadbN\x8e\x93\xc4\xbf'
p166
tp167
Rp168
aa(lp169
F7.223937034606934
a(F-1.1333797613727015
F-1.951318089162008
F-1.5781896750079554
F-1.7716663519488733
F1.7775002717971802
F0.35052624344825745
tp170
a(lp171
F-0.03514150305664546
aF-0.003519932437287992
aF-0.03604879400856031
aF-0.06930787191764952
aF0.020491436250946158
aF-0.06916180586788617
aa(lp172
(lp173
F-0.2753625506498061
aF0.17801462015262792
aF-0.18027002999765052
aF-0.08331910689928101
aF-0.1292473929653837
aF-0.30222008789688126
aaaF0.00013070533168502152
a(lp174
F0.17703603208065033
aF-0.11597776412963867
aag15
(g19
S'\xdb\xe7\xa3I\xd3\x87\xbb\xbf'
p175
tp176
Rp177
aa(lp178
F7.625174045562744
a(F-1.1346128622638147
F-1.9530561606036585
F-1.5978253523456019
F-1.7394989172564905
F1.7759793996810913
F0.35707372426986694
tp179
a(lp180
F0.05393500082702629
aF-0.1410632706751514
aF0.02852079365170744
aF0.06859250865562128
aF0.04861815124798591
aF-0.015957681269362117
aa(lp181
(lp182
F-0.2766829978194402
aF0.16845175192616804
aF-0.1711955079013162
aF-0.0896408953868067
aF-0.12700866158308124
aF-0.31007550319656985
aaaF0.00013116181071382016
a(lp183
F0.1740037202835083
aF-0.11406691372394562
aag15
(g19
S'm]T\xdc\x0e\xfd\xb1\xbf'
p184
tp185
Rp186
aa(lp187
F8.02602505683899
a(F-1.137019459401266
F-1.9692037741290491
F-1.6099966208087366
F-1.7190092245685022
F1.781044602394104
F0.35774558782577515
tp188
a(lp189
F0.0493451332032557
aF-0.08787135917886975
aF0.02972167271204605
aF0.14397597484062985
aF0.008941417793864277
aF-0.02521802341283265
aa(lp190
(lp191
F-0.2764527017319892
aF0.1683796539483674
aF-0.17219842945339944
aF-0.08680991857207643
aF-0.1331266665262178
aF-0.31177646517405355
aaaF0.00013168362784199417
a(lp192
F0.1602630764245987
aF-0.10535012185573578
aag15
(g19
S'\xf8h\xf5rX\xe9\xa6\xbf'
p193
tp194
Rp195
aa(lp196
F8.428493022918701
a(F-1.1361940542804163
F-1.9739025274859827
F-1.6145604292498987
F-1.7029073874102991
F1.785187840461731
F0.36278271675109863
tp197
a(lp198
F0.05807119374226835
aF0.03966938319558479
aF0.07485797212900407
aF0.030448607659725353
aF-0.01261492209840243
aF0.054223925518879494
aa(lp199
(lp200
F-0.27745120174919286
aF0.16570858790318682
aF-0.16926867857016137
aF-0.09386654068334677
aF-0.13508407485870597
aF-0.31729112293652634
aaaF0.00013206263247411698
a(lp201
F0.1587274819612503
aF-0.10461650788784027
aag15
(g19
S'\x0b\x01Hf\xfa\xd5\x9f\xbf'
p202
tp203
Rp204
aa(lp205
F8.82955002784729
a(F-1.1417134443866175
F-1.9718526045428675
F-1.6204302946673792
F-1.697991673146383
F1.7863614559173584
F0.3564262092113495
tp206
a(lp207
F-0.011340897336443665
aF0.011839459602551956
aF-0.05954406324502035
aF-0.04718368365532282
aF-0.07162323391438834
aF0.010069839840406243
aa(lp208
(lp209
F-0.27683888383489075
aF0.1614942294450482
aF-0.16289215277952324
aF-0.09793314144646044
aF-0.1383933123230114
aF-0.31561036694085554
aaaF0.0001325063785770908
a(lp210
F0.15535566210746765
aF-0.10259060561656952
aag15
(g19
S'\x1fh\xe5k\xb0S\x97\xbf'
p211
tp212
Rp213
aa(lp214
F9.230459928512573
a(F-1.1367805639850062
F-1.9471944014178675
F-1.645407501851217
F-1.6960375944720667
F1.7866606712341309
F0.3610435128211975
tp215
a(lp216
F-0.0007521150426801626
aF0.15435383535190578
aF-0.10060435183241707
aF0.09816300625070273
aF0.003059724569737658
aF0.07654137440009476
aa(lp217
(lp218
F-0.2809806676506447
aF0.15526332917829494
aF-0.15091604603464903
aF-0.10764491829373722
aF-0.13678816554856857
aF-0.3195364110808038
aaaF0.00013170824968256056
a(lp219
F0.154478520154953
aF-0.10106264054775238
aag15
(g19
S'\xcd;\x80\xcal\xb9\xd1\xbf'
p220
tp221
Rp222
aa(lp223
F9.631241083145142
a(F-1.1185091177569788
F-1.8836377302752894
F-1.7024486700641077
F-1.700209919606344
F1.796958565711975
F0.3783375024795532
tp224
a(lp225
F0.114509060916387
aF0.008834141849099919
aF-0.028897038312203305
aF-0.0026045304490317934
aF0.09824033891964493
aF-0.021137069085342422
aa(lp226
(lp227
F-0.292927856330735
aF0.14546504190202733
aF-0.1254863453362256
aF-0.13879229842486637
aF-0.13731432430001822
aF-0.3327601006391834
aaaF0.00013025656517129391
a(lp228
F0.15027309954166412
aF-0.09599438309669495
aag15
(g19
S'\xef\xd4\x05\x0c\x1e\xfc\xc7\xbf'
p229
tp230
Rp231
aa(lp232
F10.031646013259888
a(F-1.1075528303729456
F-1.837463680897848
F-1.7447055021869105
F-1.699789826069967
F1.8006463050842285
F0.3917575776576996
tp233
a(lp234
F-0.10871716796823676
aF-0.022525944216453986
aF-0.09212458981221289
aF0.19150527971114828
aF-0.04250993716041896
aF0.011613066233456556
aa(lp235
(lp236
F-0.30005166891482526
aF0.1369993731478376
aF-0.10597321798836676
aF-0.16185645482925465
aF-0.13386689067944899
aF-0.34304188428042937
aaaF0.00012979867460671812
a(lp237
F0.14646463096141815
aF-0.0919550359249115
aag15
(g19
S'rA\xc0\xe2\xe5a\xbf\xbf'
p238
tp239
Rp240
aa(lp241
F10.433202028274536
a(F-1.0997698942767542
F-1.8108647505389612
F-1.770036522542135
F-1.6995018164264124
F1.8007901906967163
F0.3954034149646759
tp242
a(lp243
F-0.05068573323075636
aF0.02304841286382809
aF0.011106540024891996
aF-0.02969788744992841
aF0.04451047559044521
aF0.05813242903797977
aa(lp244
(lp245
F-0.304823515529303
aF0.13266805082410976
aF-0.0966700459116051
aF-0.17138499828580248
aF-0.1301137573629193
aF-0.3449295796920524
aaaF0.00012940001033712178
a(lp246
F0.14759020507335663
aF-0.0913209468126297
aag15
(g19
S'\xf6\xa2\xd6l\xa9\xea\xb5\xbf'
p247
tp248
Rp249
aa(lp250
F10.836606979370117
a(F-1.0841429869281214
F-1.7886174360858362
F-1.7872946898089808
F-1.7039864698993128
F1.8033888339996338
F0.3911939561367035
tp251
a(lp252
F-0.1307836813382779
aF0.014390385124047837
aF-0.06252475607483975
aF0.028289214924417962
aF-0.0991169092649372
aF0.03433975742717491
aa(lp253
(lp254
F-0.31229173396561327
aF0.1335155151996599
aF-0.0964450081010359
aF-0.17383883226519917
aF-0.12678552005275012
aF-0.33796321772417404
aaaF0.00012879938003607094
a(lp255
F0.16011354327201843
aF-0.09717105329036713
aag15
(g19
S'\xf8\xe1\x95D\xb8\xbc\xad\xbf'
p256
tp257
Rp258
aa(lp259
F11.237730026245117
a(F-1.0769103209124964
F-1.7756121794330042
F-1.7990081946002405
F-1.6995261351214808
F1.8079267740249634
F0.3984975814819336
tp260
a(lp261
F0.09685746192401401
aF0.0032222713548502625
aF-0.09326664501477876
aF0.03705361771491435
aF0.009637773785111822
aF-0.1410072387403777
aa(lp262
(lp263
F-0.3155479834975181
aF0.13210400807365552
aF-0.09178983356780077
aF-0.18553834499463548
aF-0.12555900526195818
aF-0.34318056952482934
aaaF0.0001287243649130687
a(lp264
F0.16154663264751434
aF-0.09755952656269073
aag15
(g19
S'\xbf&\x84\x10\x92i\xa3\xbf'
p265
tp266
Rp267
aa(lp268
F11.639177083969116
a(F-1.0788143316852015
F-1.7637212912188929
F-1.8081095854388636
F-1.7021520773517054
F1.8082023859024048
F0.4066648483276367
tp269
a(lp270
F0.13397365484212376
aF-0.07237261566596678
aF-0.072951359314424
aF-0.037485271032742615
aF0.05855060479075002
aF0.03859006186516083
aa(lp271
(lp272
F-0.31534776079635385
aF0.12854362431749095
aF-0.08419232466440399
aF-0.19363543512336542
aF-0.125223450931793
aF-0.3508374172675077
aaaF0.0001288508647121489
a(lp273
F0.15351448953151703
aF-0.09267216920852661
aag15
(g19
S'\x1c\xbe\xea\xfb\xe19\x96\xbf'
p274
tp275
Rp276
aas.