(lp0
(lp1
F0.16690687319683245
aF0.46802195533330876
aF0.5789016274802105
aF-3.0356345256553947
aF-0.029836249553030745
aF-0.0034113386117570694
aF0.1668415778795005
aF0.47103981232162845
aF0.5780957661397179
aF-2.952493410604063
aF-0.029536337053720038
aF-0.005842328313827213
aa(lp2
F0.16690687319683245
aF0.46802195533330876
aF0.5789016274802105
aF-3.0356345256553947
aF-0.029836249553030745
aF-0.0034113386117570694
aF0.16682956131736046
aF0.4723289492903379
aF0.5775997507572427
aF-2.8816674679577687
aF-0.029050792578283118
aF-0.007914368032026484
aa(lp3
F0.16690687319683245
aF0.46802195533330876
aF0.5789016274802105
aF-3.0356345256553947
aF-0.029836249553030745
aF-0.0034113386117570694
aF0.16681599830566274
aF0.47291195419867177
aF0.577593818142206
aF-2.8234090153115656
aF-0.028532787154336364
aF-0.00956082680324641
aa(lp4
F0.16690687319683245
aF0.46802195533330876
aF0.5789016274802105
aF-3.0356345256553947
aF-0.029836249553030745
aF-0.0034113386117570694
aF0.1668238417687386
aF0.4729004020230799
aF0.5775429303361238
aF-2.7761147587571573
aF-0.028069248813635164
aF-0.010953463877623046
aa(lp5
F0.16690687319683245
aF0.46802195533330876
aF0.5789016274802105
aF-3.0356345256553947
aF-0.029836249553030745
aF-0.0034113386117570694
aF0.16679880291355575
aF0.47263350537396087
aF0.5777395309883082
aF-2.737269847334592
aF-0.02773451844470157
aF-0.011968177878075968
aa(lp6
F0.16690687319683245
aF0.46802195533330876
aF0.5789016274802105
aF-3.0356345256553947
aF-0.029836249553030745
aF-0.0034113386117570694
aF0.16681132515811695
aF0.4722072205085487
aF0.577951649963916
aF-2.705455168715926
aF-0.027351135376646983
aF-0.0128845176434705
aa(lp7
F0.16690687319683245
aF0.46802195533330876
aF0.5789016274802105
aF-3.0356345256553947
aF-0.029836249553030745
aF-0.0034113386117570694
aF0.1667997590077479
aF0.4717189020407604
aF0.5779133814254961
aF-2.679866032875343
aF-0.026990838493670993
aF-0.013609445452277005
aa(lp8
F0.16690687319683245
aF0.46802195533330876
aF0.5789016274802105
aF-3.0356345256553947
aF-0.029836249553030745
aF-0.0034113386117570694
aF0.16677951188942033
aF0.4712764378086674
aF0.5781080120164046
aF-2.6585739325874393
aF-0.026677754712164003
aF-0.014107493398283384
aa(lp9
F0.16690687319683245
aF0.46802195533330876
aF0.5789016274802105
aF-3.0356345256553947
aF-0.029836249553030745
aF-0.0034113386117570694
aF0.1667974056150325
aF0.4708538504692919
aF0.5782354873076035
aF-2.641265479885233
aF-0.026442515016551614
aF-0.014608610826356172
aa(lp10
F0.16690687319683245
aF0.46802195533330876
aF0.5789016274802105
aF-3.0356345256553947
aF-0.029836249553030745
aF-0.0034113386117570694
aF0.16676818999765408
aF0.4704882263997675
aF0.5783670559584946
aF-2.627111078266161
aF-0.026213376767009133
aF-0.014936510953946226
aa(lp11
F0.16690687319683245
aF0.46802195533330876
aF0.5789016274802105
aF-3.0356345256553947
aF-0.029836249553030745
aF-0.0034113386117570694
aF0.1667872626036914
aF0.47012745349927865
aF0.5784790422609929
aF-2.615523118037344
aF-0.025996772867394494
aF-0.01528962669773544
aa(lp12
F0.16690687319683245
aF0.46802195533330876
aF0.5789016274802105
aF-3.0356345256553947
aF-0.029836249553030745
aF-0.0034113386117570694
aF0.16679863939265174
aF0.46981242168283693
aF0.5785644518627334
aF-2.605904420266716
aF-0.025856157013879888
aF-0.01555296681916584
aa(lp13
F0.16690687319683245
aF0.46802195533330876
aF0.5789016274802105
aF-3.0356345256553947
aF-0.029836249553030745
aF-0.0034113386117570694
aF0.16677486752212475
aF0.46955050826630623
aF0.5785959232229658
aF-2.5982769947256323
aF-0.02575248285679448
aF-0.01565456656488479
aa(lp14
F0.16690687319683245
aF0.46802195533330876
aF0.5789016274802105
aF-3.0356345256553947
aF-0.029836249553030745
aF-0.0034113386117570694
aF0.16678381873568265
aF0.4693189515845576
aF0.578674160720412
aF-2.591931673189509
aF-0.025633057923693164
aF-0.01582897162471946
aa(lp15
F0.16690687319683245
aF0.46802195533330876
aF0.5789016274802105
aF-3.0356345256553947
aF-0.029836249553030745
aF-0.0034113386117570694
aF0.16677260691576623
aF0.46915380224645115
aF0.5786734250781085
aF-2.5869416889860815
aF-0.025535786719121566
aF-0.01596312543788136
aa(lp16
F0.16690687319683245
aF0.46802195533330876
aF0.5789016274802105
aF-3.0356345256553947
aF-0.029836249553030745
aF-0.0034113386117570694
aF0.1667940618965462
aF0.46897969338472695
aF0.5787631204511092
aF-2.582636621461737
aF-0.0254697787764239
aF-0.016094565290975877
aa(lp17
F0.16690687319683245
aF0.46802195533330876
aF0.5789016274802105
aF-3.0356345256553947
aF-0.029836249553030745
aF-0.0034113386117570694
aF0.16145919785623314
aF0.4778416270949619
aF0.5710354882901122
aF-2.5816225168205618
aF-0.02502492478840111
aF-0.015634905233220343
aa(lp18
F0.16690687319683245
aF0.46802195533330876
aF0.5789016274802105
aF-3.0356345256553947
aF-0.029836249553030745
aF-0.0034113386117570694
aF0.1297698011864048
aF0.5259189846304507
aF0.5320953502041703
aF-2.581317370797845
aF-0.025441414389040917
aF-0.016468198910822258
aa(lp19
F0.16690687319683245
aF0.46802195533330876
aF0.5789016274802105
aF-3.0356345256553947
aF-0.029836249553030745
aF-0.0034113386117570694
aF0.10030743793044791
aF0.5597440244939481
aF0.49740473568668736
aF-2.581139738384398
aF-0.025673249968498457
aF-0.01689265660545272
aa(lp20
F0.16690687319683245
aF0.46802195533330876
aF0.5789016274802105
aF-3.0356345256553947
aF-0.029836249553030745
aF-0.0034113386117570694
aF0.07419102987990814
aF0.5837773261250416
aF0.46773912269207585
aF-2.5801520240158777
aF-0.025903672635814966
aF-0.017146658892630236
aa(lp21
F0.16690687319683245
aF0.46802195533330876
aF0.5789016274802105
aF-3.0356345256553947
aF-0.029836249553030745
aF-0.0034113386117570694
aF0.05166408696875213
aF0.6009842130747107
aF0.4428771051136907
aF-2.5785140657099617
aF-0.02616283002031439
aF-0.01710836157724421
aa(lp22
F0.16690687319683245
aF0.46802195533330876
aF0.5789016274802105
aF-3.0356345256553947
aF-0.029836249553030745
aF-0.0034113386117570694
aF0.03268859573313583
aF0.6131965314049248
aF0.42242138597374584
aF-2.5762258506927016
aF-0.02603236124627689
aF-0.017085263794695122
aa(lp23
F0.16690687319683245
aF0.46802195533330876
aF0.5789016274802105
aF-3.0356345256553947
aF-0.029836249553030745
aF-0.0034113386117570694
aF0.016619123132331947
aF0.6222510946630289
aF0.4048552480833033
aF-2.574512876028178
aF-0.026148417842352726
aF-0.01702714564109527
aa(lp24
F0.16690687319683245
aF0.46802195533330876
aF0.5789016274802105
aF-3.0356345256553947
aF-0.029836249553030745
aF-0.0034113386117570694
aF0.0037956414319116516
aF0.6286870290713579
aF0.390736010340044
aF-2.572963868280484
aF-0.02611591501598485
aF-0.017275912588116477
aa(lp25
F0.16690687319683245
aF0.46802195533330876
aF0.5789016274802105
aF-3.0356345256553947
aF-0.029836249553030745
aF-0.0034113386117570694
aF-0.007120046633119936
aF0.6335366174299558
aF0.37909758316921105
aF-2.5713972349187086
aF-0.026052129929301223
aF-0.016988420124487064
aa(lp26
F0.16690687319683245
aF0.46802195533330876
aF0.5789016274802105
aF-3.0356345256553947
aF-0.029836249553030745
aF-0.0034113386117570694
aF-0.01589640263280049
aF0.637016207124198
aF0.3696501819016814
aF-2.570063291768379
aF-0.02601178738638066
aF-0.016859911387383054
aa(lp27
F0.16690687319683245
aF0.46802195533330876
aF0.5789016274802105
aF-3.0356345256553947
aF-0.029836249553030745
aF-0.0034113386117570694
aF-0.023100907396357832
aF0.6397148677027535
aF0.3617778062802518
aF-2.569009395904184
aF-0.025918110446459895
aF-0.01680950689761976
aa(lp28
F0.16690687319683245
aF0.46802195533330876
aF0.5789016274802105
aF-3.0356345256553947
aF-0.029836249553030745
aF-0.0034113386117570694
aF-0.028884517687397762
aF0.6417058799168652
aF0.35536257620397105
aF-2.568133935376917
aF-0.025807279784734377
aF-0.017002963517764563
aa(lp29
F0.16690687319683245
aF0.46802195533330876
aF0.5789016274802105
aF-3.0356345256553947
aF-0.029836249553030745
aF-0.0034113386117570694
aF-0.033841957181995785
aF0.6432421339201615
aF0.35009966700561235
aF-2.5672720701282863
aF-0.02569418015330874
aF-0.01661502550324952
aa(lp30
F0.16690687319683245
aF0.46802195533330876
aF0.5789016274802105
aF-3.0356345256553947
aF-0.029836249553030745
aF-0.0034113386117570694
aF-0.037657793084016976
aF0.6444783409497192
aF0.3458444765411869
aF-2.566622640843417
aF-0.02560389564685179
aF-0.0168744246546991
aa(lp31
F0.16690687319683245
aF0.46802195533330876
aF0.5789016274802105
aF-3.0356345256553947
aF-0.029836249553030745
aF-0.0034113386117570694
aF-0.04103882162612154
aF0.6453920267730792
aF0.342338707299562
aF-2.566050123821497
aF-0.025528272292356647
aF-0.01647544891764592
aa(lp32
F0.16690687319683245
aF0.46802195533330876
aF0.5789016274802105
aF-3.0356345256553947
aF-0.029836249553030745
aF-0.0034113386117570694
aF-0.04357055443169768
aF0.6461432380016859
aF0.3394766764009549
aF-2.565549919291346
aF-0.02553778318714749
aF-0.01668070566488133
aa(lp33
F0.16690687319683245
aF0.46802195533330876
aF0.5789016274802105
aF-3.0356345256553947
aF-0.029836249553030745
aF-0.0034113386117570694
aF-0.04569918218898779
aF0.6466967972653356
aF0.33714394563635725
aF-2.5651180949812034
aF-0.025525096164352366
aF-0.016667695994919216
aa(lp34
F0.16690687319683245
aF0.46802195533330876
aF0.5789016274802105
aF-3.0356345256553947
aF-0.029836249553030745
aF-0.0034113386117570694
aF-0.047538498643642096
aF0.6471530417691425
aF0.3351635728241206
aF-2.5648506616719
aF-0.025549940342171493
aF-0.01656210571627229
aa(lp35
F0.16690687319683245
aF0.46802195533330876
aF0.5789016274802105
aF-3.0356345256553947
aF-0.029836249553030745
aF-0.0034113386117570694
aF-0.04901044314734988
aF0.6475107978642664
aF0.3335815928570779
aF-2.564693371156103
aF-0.025495918549690105
aF-0.01654093647347852
aa(lp36
F0.16690687319683245
aF0.46802195533330876
aF0.5789016274802105
aF-3.0356345256553947
aF-0.029836249553030745
aF-0.0034113386117570694
aF-0.05039526861537148
aF0.6513831519638523
aF0.33432208630698035
aF-2.5644627123517005
aF-0.025455700905027513
aF-0.01674959647050227
aa(lp37
F0.16690687319683245
aF0.46802195533330876
aF0.5789016274802105
aF-3.0356345256553947
aF-0.029836249553030745
aF-0.0034113386117570694
aF-0.05262548151993464
aF0.6746679820220012
aF0.346616659841585
aF-2.564589480420217
aF-0.02550158842564274
aF-0.016608476842299515
aa(lp38
F0.16690687319683245
aF0.46802195533330876
aF0.5789016274802105
aF-3.0356345256553947
aF-0.029836249553030745
aF-0.0034113386117570694
aF-0.05386998187855717
aF0.6933175512064284
aF0.35683954349761937
aF-2.564167507161822
aF-0.025293206127977995
aF-0.016768914852131077
aa(lp39
F0.16690687319683245
aF0.46802195533330876
aF0.5789016274802105
aF-3.0356345256553947
aF-0.029836249553030745
aF-0.0034113386117570694
aF-0.05474488015721583
aF0.7083444496812272
aF0.36515838449627125
aF-2.5638563939348566
aF-0.025309133758297058
aF-0.0167096825581564
aa(lp40
F0.16690687319683245
aF0.46802195533330876
aF0.5789016274802105
aF-3.0356345256553947
aF-0.029836249553030745
aF-0.0034113386117570694
aF-0.05514131871095127
aF0.7204785828920507
aF0.37181522142331924
aF-2.5639749291767306
aF-0.025294835953174315
aF-0.01674212637133409
aa(lp41
F0.16690687319683245
aF0.46802195533330876
aF0.5789016274802105
aF-3.0356345256553947
aF-0.029836249553030745
aF-0.0034113386117570694
aF-0.05548109989648524
aF0.7302843331289813
aF0.37734973310491104
aF-2.563877984424832
aF-0.02519875762577361
aF-0.016705530746094703
aa(lp42
F0.16690687319683245
aF0.46802195533330876
aF0.5789016274802105
aF-3.0356345256553947
aF-0.029836249553030745
aF-0.0034113386117570694
aF-0.05544882034315959
aF0.7382522195042205
aF0.381848865981026
aF-2.563789139211376
aF-0.0251550969685284
aF-0.016848332938769934
aa(lp43
F0.16690687319683245
aF0.46802195533330876
aF0.5789016274802105
aF-3.0356345256553947
aF-0.029836249553030745
aF-0.0034113386117570694
aF-0.055520755235946774
aF0.7447566864543058
aF0.3856890605318605
aF-2.5635628120781813
aF-0.025086747034043535
aF-0.016710158983979994
aa(lp44
F0.16690687319683245
aF0.46802195533330876
aF0.5789016274802105
aF-3.0356345256553947
aF-0.029836249553030745
aF-0.0034113386117570694
aF-0.055546259254342575
aF0.7500644387773514
aF0.3887398459810029
aF-2.563417736218233
aF-0.025078553233255158
aF-0.016667738436033537
aa(lp45
F0.16690687319683245
aF0.46802195533330876
aF0.5789016274802105
aF-3.0356345256553947
aF-0.029836249553030745
aF-0.0034113386117570694
aF-0.05555411406225715
aF0.7543066200467001
aF0.39110723688604854
aF-2.5636415439747013
aF-0.025099226040711187
aF-0.016546252630884783
aa(lp46
F0.16690687319683245
aF0.46802195533330876
aF0.5789016274802105
aF-3.0356345256553947
aF-0.029836249553030745
aF-0.0034113386117570694
aF-0.055421036416772054
aF0.7577724130788016
aF0.39319494950384387
aF-2.563466607507357
aF-0.025110877421922258
aF-0.016607652672226074
aa(lp47
F0.16690687319683245
aF0.46802195533330876
aF0.5789016274802105
aF-3.0356345256553947
aF-0.029836249553030745
aF-0.0034113386117570694
aF-0.05535440438875175
aF0.7607044016959837
aF0.39492580491087326
aF-2.563335140164026
aF-0.025044084308922115
aF-0.01666373935950986
aa(lp48
F0.16690687319683245
aF0.46802195533330876
aF0.5789016274802105
aF-3.0356345256553947
aF-0.029836249553030745
aF-0.0034113386117570694
aF-0.05528807117778651
aF0.7629865535085734
aF0.396182714385561
aF-2.563493795687684
aF-0.0251401024489851
aF-0.016614851166122255
aa(lp49
F0.16690687319683245
aF0.46802195533330876
aF0.5789016274802105
aF-3.0356345256553947
aF-0.029836249553030745
aF-0.0034113386117570694
aF-0.05527048767682422
aF0.7649187632199999
aF0.39733719081085034
aF-2.563318251133547
aF-0.025055541609890188
aF-0.016680419643304436
aa(lp50
F0.16690687319683245
aF0.46802195533330876
aF0.5789016274802105
aF-3.0356345256553947
aF-0.029836249553030745
aF-0.0034113386117570694
aF-0.055237213960960214
aF0.7664175375049309
aF0.39819480202373664
aF-2.5633658493891516
aF-0.025103217088385733
aF-0.01657723588630496
aa(lp51
F0.16690687319683245
aF0.46802195533330876
aF0.5789016274802105
aF-3.0356345256553947
aF-0.029836249553030745
aF-0.0034113386117570694
aF-0.05516887026151843
aF0.7676554241704633
aF0.3989348245315423
aF-2.5633353320910017
aF-0.025056227796816294
aF-0.01662612227107157
aa(lp52
F0.16690687319683245
aF0.46802195533330876
aF0.5789016274802105
aF-3.0356345256553947
aF-0.029836249553030745
aF-0.0034113386117570694
aF-0.05517667222913912
aF0.768669045218996
aF0.3995291410370464
aF-2.5633865407597156
aF-0.02511421123647704
aF-0.016555739893993487
aa(lp53
F0.16690687319683245
aF0.46802195533330876
aF0.5789016274802105
aF-3.0356345256553947
aF-0.029836249553030745
aF-0.0034113386117570694
aF-0.05513062843474251
aF0.7695208461505925
aF0.4000614974719219
aF-2.5633418879641976
aF-0.025099038071027712
aF-0.01657476975873891
aa(lp54
F0.16690687319683245
aF0.46802195533330876
aF0.5789016274802105
aF-3.0356345256553947
aF-0.029836249553030745
aF-0.0034113386117570694
aF-0.05509582723752686
aF0.7702208832271237
aF0.4004603149310454
aF-2.563345557817508
aF-0.025108787786228114
aF-0.016609579010476522
aa(lp55
F0.16690687319683245
aF0.46802195533330876
aF0.5789016274802105
aF-3.0356345256553947
aF-0.029836249553030745
aF-0.0034113386117570694
aF-0.05507911275889149
aF0.7707765534542855
aF0.4007637227811558
aF-2.5633921149535515
aF-0.025111259757670933
aF-0.016616517900203184
aa(lp56
F0.16690687319683245
aF0.46802195533330876
aF0.5789016274802105
aF-3.0356345256553947
aF-0.029836249553030745
aF-0.0034113386117570694
aF-0.05506973815325599
aF0.7712206992256041
aF0.40103982196363247
aF-2.5633437342100422
aF-0.025125158280312993
aF-0.01659003723644375
aa(lp57
F0.16690687319683245
aF0.46802195533330876
aF0.5789016274802105
aF-3.0356345256553947
aF-0.029836249553030745
aF-0.0034113386117570694
aF-0.05509003372379881
aF0.7715933316996877
aF0.40122054564071385
aF-2.563363488798227
aF-0.02514257871439188
aF-0.01659009244017733
aa(lp58
F0.16690687319683245
aF0.46802195533330876
aF0.5789016274802105
aF-3.0356345256553947
aF-0.029836249553030745
aF-0.0034113386117570694
aF-0.05506564820639518
aF0.7719179929387292
aF0.4014610216094803
aF-2.5632934525020854
aF-0.025073430962145735
aF-0.016565743210725157
aa(lp59
F0.16690687319683245
aF0.46802195533330876
aF0.5789016274802105
aF-3.0356345256553947
aF-0.029836249553030745
aF-0.0034113386117570694
aF-0.055038000674783566
aF0.7721467234429851
aF0.40161002339276186
aF-2.563293945930387
aF-0.0250930102123397
aF-0.016598375905996186
aa(lp60
F0.16690687319683245
aF0.46802195533330876
aF0.5789016274802105
aF-3.0356345256553947
aF-0.029836249553030745
aF-0.0034113386117570694
aF-0.05503058638027879
aF0.7723529462159587
aF0.4017299997795546
aF-2.5632569452997984
aF-0.025104770129104413
aF-0.016611815131508296
aa.