(dp0
S'data'
p1
(lp2
(lp3
F0.10109782218933105
a(lp4
F-1.5690858999835413
aF-1.1907919088946741
aF-2.0158522764789026
aF-1.4006918112384241
aF1.5417821407318115
aF0.0012950453674420714
aa(lp5
F0.16670564576047628
aF-0.3
aF0.3
aF-0.3
aF0.17260388054717185
aF0.14891806520003842
aa(lp6
(lp7
F0.044596222800395685
aF0.09116666886906048
aF-0.2669729785510163
aF1.2469184757982932
aF-0.0018019023901292928
aF0.06875886308642037
aaaF0.43785426020622253
a(lp8
F-0.2598109841346741
aF0.09665980935096741
aF-0.45347267389297485
aF0.08744994550943375
aF-0.27024024724960327
aF-0.2632479667663574
aF-0.3945710062980652
aF-0.8499177694320679
aacnumpy.core.multiarray
scalar
p9
(cnumpy
dtype
p10
(S'f8'
p11
I0
I1
tp12
Rp13
(I3
S'<'
p14
NNNI-1
I-1
I0
tp15
bS'\xd2\x1e\xf5\x02\xbcA\xf6\xbf'
p16
tp17
Rp18
aa(lp19
F0.2012939453125
a(lp20
F-1.554739777241842
aF-1.2096293608294886
aF-1.9968274275409144
aF-1.4196704069720667
aF1.5495907068252563
aF0.013214106671512127
aa(lp21
F0.16296121707041578
aF-0.3
aF0.3
aF-0.3
aF0.12717046819174185
aF0.21701775197716255
aa(lp22
(lp23
F0.10802377386812544
aF0.357301429027553
aF-0.8668732017743439
aF3.5809661141662206
aF-0.026662943865780067
aF0.08489866309318919
aaaF0.4576035439968109
a(lp24
F-0.011927008628845215
aF-0.21062564849853516
aF-0.19373656809329987
aF-0.22320222854614258
aF-0.07583577930927277
aF0.18228307366371155
aF-0.006448319181799889
aF-0.23930400609970093
aag9
(g13
S'y\x97\xb0\xc8\xd9\xa4\xf5\xbf'
p25
tp26
Rp27
aa(lp28
F0.30165791511535645
a(lp29
F-1.5343025366412562
aF-1.2385323683368128
aF-1.967768971120016
aF-1.4493563810931605
aF1.5612670183181763
aF0.030229458585381508
aa(lp30
F0.18597982819819633
aF-0.2617544146432721
aF0.3
aF-0.3
aF0.1857613178823056
aF0.15332225197185168
aa(lp31
(lp32
F0.14217918130836352
aF0.7510345310833186
aF-1.7809016850937092
aF7.187743635664061
aF-0.21310404039138675
aF0.1258271313792847
aaaF0.4863438606262207
a(lp33
F0.3102748692035675
aF-0.6097244620323181
aF0.15852688252925873
aF-0.6112165451049805
aF0.17508606612682343
aF0.7788985371589661
aF0.523297905921936
aF0.5741497874259949
aag9
(g13
S'\x1d\x8f\x88\xfa\xc1\xb6\xf4\xbf'
p34
tp35
Rp36
aa(lp37
F0.40334582328796387
a(lp38
F-1.512991730366842
aF-1.268538777028219
aF-1.9366491476642054
aF-1.4806245009051722
aF1.572668194770813
aF0.047796834260225296
aa(lp39
F0.2149598410712123
aF-0.3
aF0.3
aF-0.3
aF0.05772693700827468
aF0.1864712610520205
aa(lp40
(lp41
F0.1578277631159694
aF0.7674071359740604
aF-1.7718892335913008
aF7.127329390828353
aF-0.3301880344964619
aF0.14310221754195965
aaaF0.5445840954780579
a(lp42
F0.5551011562347412
aF-0.9162803292274475
aF0.44374144077301025
aF-0.8894185423851013
aF0.3634815216064453
aF1.259704828262329
aF0.9611092209815979
aF1.2203006744384766
aag9
(g13
S'\xa5h\x08\xed\x07\xbd\xf3\xbf'
p43
tp44
Rp45
aa(lp46
F0.5040919780731201
a(lp47
F-1.492805306111471
aF-1.2979705969439905
aF-1.9056842962848108
aF-1.5115926901446741
aF1.5832903385162354
aF0.0645129606127739
aa(lp48
F0.21924758472700367
aF-0.23246640687041126
aF0.3
aF-0.2920113844487205
aF0.0973441677907988
aF0.14745649591978766
aa(lp49
(lp50
F0.11465359592990478
aF-0.08427351075626181
aF0.09420643773920317
aF-0.14491417159496572
aF0.005563122684991014
aF0.12444507032777281
aaaF0.4181375205516815
a(lp51
F-1.4437114000320435
aF2.0541117191314697
aF-1.8259528875350952
aF1.7842795848846436
aF-1.3031169176101685
aF-3.4753575325012207
aF-2.920963764190674
aF-4.378620147705078
aag9
(g13
S'g\xd4N\xfaI\xc8\xf2\xbf'
p52
tp53
Rp54
aa(lp55
F0.6049549579620361
a(lp56
F-1.4749391714679163
aF-1.3247655073748987
aF-1.8775671164142054
aF-1.5392878691302698
aF1.5927391052246094
aF0.07914232462644577
aa(lp57
F0.1554593002215834
aF-0.18001717583731333
aF0.3
aF-0.3
aF-0.0009554122394858366
aF0.11895397781551567
aa(lp58
(lp59
F0.10330604204803272
aF-0.09049003125446459
aF0.09851226217777923
aF-0.1400643606063003
aF0.01080583569137037
aF0.11041210009899302
aaaF0.42212170362472534
a(lp60
F-1.444720983505249
aF2.0534133911132812
aF-1.8262978792190552
aF1.7844748497009277
aF-1.3035385608673096
aF-3.4729666709899902
aF-2.9205005168914795
aF-4.379226207733154
aag9
(g13
S'\xdb\xc7S\x96%\xec\xf1\xbf'
p61
tp62
Rp63
aa(lp64
F0.705265998840332
a(lp65
F-1.4568212668048304
aF-1.3533232847796839
aF-1.8476532141314905
aF-1.5692256132708948
aF1.6023313999176025
aF0.09413159638643265
aa(lp66
F0.18038067947380892
aF-0.26500607995127123
aF0.3
aF-0.2382724893215014
aF0.12186675451182738
aF0.16595053985358119
aa(lp67
(lp68
F0.09302779444756323
aF-0.09513550435483069
aF0.10211480252510233
aF-0.1355933121761073
aF0.01552222849278988
aF0.09761538504151704
aaaF0.42216548323631287
a(lp69
F-1.4456548690795898
aF2.05277681350708
aF-1.82662034034729
aF1.7846646308898926
aF-1.3039146661758423
aF-3.4707674980163574
aF-2.9200525283813477
aF-4.3797688484191895
aag9
(g13
S'<lA\xba\xc9\x02\xf1\xbf'
p70
tp71
Rp72
aa(lp73
F0.8052699565887451
a(lp74
F-1.4411924521075647
aF-1.37846547762026
aF-1.8206122557269495
aF-1.5959017912494105
aF1.610905647277832
aF0.10680641233921051
aa(lp75
F0.07324321752352915
aF-0.19257538945726463
aF0.2525959350140974
aF-0.2624032384857952
aF0.038575540728057606
aF0.11278538539130797
aa(lp76
(lp77
F0.08488033418225843
aF-0.09808648046926295
aF0.10463160679344857
aF-0.13187563934480695
aF0.01897554722407458
aF0.08736949772744995
aaaF0.42978599667549133
a(lp78
F-1.446431279182434
aF2.0522501468658447
aF-1.8268868923187256
aF1.7848286628723145
aF-1.304222583770752
aF-3.468947410583496
aF-2.91967511177063
aF-4.380215644836426
aag9
(g13
S'\x9c\x97\xb6#\xe53\xf0\xbf'
p79
tp80
Rp81
aa(lp82
F0.9064450263977051
a(lp83
F-1.4257906118976038
aF-1.4045551458941858
aF-1.7922528425799769
aF-1.6241968313800257
aF1.6196238994598389
aF0.12028566747903824
aa(lp84
F0.1655106312248424
aF-0.21862208314743137
aF0.3
aF-0.1953161287598147
aF0.09663213953941757
aF0.1314686635876779
aa(lp85
(lp86
F0.07731126574473675
aF-0.0998806447391441
aF0.10636866261203162
aF-0.12809902774399645
aF0.02195620805696118
aF0.07798522295800694
aaaF0.4300212264060974
a(lp87
F-1.447025179862976
aF2.0518667697906494
aF-1.8271081447601318
aF1.7849631309509277
aF-1.3044307231903076
aF-3.467562675476074
aF-2.9193410873413086
aF-4.380515098571777
aag9
(g13
S'\xaf;;\xf9\xe5\xb7\xee\xbf'
p88
tp89
Rp90
aa(lp91
F1.0080358982086182
a(lp92
F-1.4110944906817835
aF-1.4296024481402796
aF-1.7647069136248987
aF-1.6514008680926722
aF1.6279464960098267
aF0.133572056889534
aa(lp93
F0.13781920500038222
aF-0.3
aF0.3
aF-0.2532551839331691
aF0.0830259696130126
aF0.1693688683652833
aa(lp94
(lp95
F0.0706305708175982
aF-0.10062512915719515
aF0.10726507508455158
aF-0.1243261470359101
aF0.024295280862438207
aF0.06974127042702916
aaaF0.4266180098056793
a(lp96
F-1.4474478960037231
aF2.051612138748169
aF-1.8272781372070312
aF1.7850711345672607
aF-1.3045538663864136
aF-3.466592788696289
aF-2.9190657138824463
aF-4.380694389343262
aag9
(g13
S'\x98\xc4\x07\x9a>\x17\xed\xbf'
p97
tp98
Rp99
aa(lp100
F1.1089680194854736
a(lp101
F-1.3977263609515589
aF-1.4514744917498987
aF-1.7401421705829065
aF-1.6749480406390589
aF1.6354789733886719
aF0.14485670626163483
aa(lp102
F0.15941212536747862
aF-0.191440745875525
aF0.3
aF-0.26734300633630625
aF0.0990442042306778
aF0.10291232220006935
aa(lp103
(lp104
F0.06498552641187107
aF-0.10070185365991911
aF0.10748811391285497
aF-0.1207198363503524
aF0.02591265092042369
aF0.06268092079618758
aaaF0.4342896640300751
a(lp105
F-1.447848916053772
aF2.051365375518799
aF-1.827426791191101
aF1.7851793766021729
aF-1.3046786785125732
aF-3.4656872749328613
aF-2.9188249111175537
aF-4.380882263183594
aag9
(g13
S'\x0e\x8d\xa05\x0b\xa9\xeb\xbf'
p106
tp107
Rp108
aa(lp109
F1.2102138996124268
a(lp110
F-1.3842499891864222
aF-1.4740412870990198
aF-1.714294735585348
aF-1.6992386023150843
aF1.6437900066375732
aF0.15592525899410248
aa(lp111
F0.04270922193033663
aF-0.18902551536460777
aF0.29141591439026426
aF-0.2805504233617663
aF0.05915522630062897
aF0.08897541054516066
aa(lp112
(lp113
F0.05929588833128194
aF-0.10020198812523179
aF0.10708469433158374
aF-0.11672074546230399
aF0.02710406098942797
aF0.055620201308731396
aaaF0.4381875693798065
a(lp114
F-1.4482789039611816
aF2.051098585128784
aF-1.8275851011276245
aF1.7852940559387207
aF-1.3048146963119507
aF-3.4647133350372314
aF-2.9185690879821777
aF-4.381086826324463
aag9
(g13
S'-A\xd0\xdf+.\xea\xbf'
p115
tp116
Rp117
aa(lp118
F1.3114678859710693
a(lp119
F-1.371204678212301
aF-1.4960935751544397
aF-1.6901353041278284
aF-1.7221382300006312
aF1.6510112285614014
aF0.16710129380226135
aa(lp120
F0.1606420010802846
aF-0.16020365568963724
aF0.15405903985071498
aF-0.19056551298753815
aF0.10612114910492394
aF0.13392711173009617
aa(lp121
(lp122
F0.05431081360742485
aF-0.0987529010085875
aF0.10577348154220387
aF-0.11245862262837347
aF0.027961702998116372
aF0.04949537535374986
aaaF0.471190482378006
a(lp123
F-1.4484895467758179
aF2.050999402999878
aF-1.827674150466919
aF1.785381555557251
aF-1.3048408031463623
aF-3.4642865657806396
aF-2.918393611907959
aF-4.381140232086182
aag9
(g13
S'\xbd\x15ONc\xc5\xe8\xbf'
p124
tp125
Rp126
aa(lp127
F1.412604808807373
a(lp128
F-1.359870735798971
aF-1.5157726446734827
aF-1.6688135305987757
aF-1.7433956305133265
aF1.657010555267334
aF0.17691075801849365
aa(lp129
F0.031207389416849973
aF-0.19865067880667242
aF0.18469715599902048
aF-0.17672968645903867
aF0.10148410951271179
aF0.11227922301393034
aa(lp130
(lp131
F0.050266668690649885
aF-0.09677203599097738
aF0.10385664850019993
aF-0.10828871782484463
aF0.02849039008688485
aF0.04454523858365623
aaaF0.4592783451080322
a(lp132
F-1.4485515356063843
aF2.0510075092315674
aF-1.827713131904602
aF1.7854456901550293
aF-1.3048006296157837
aF-3.4642229080200195
aF-2.918283462524414
aF-4.381102561950684
aag9
(g13
S'Bj)\xaf\x80\x82\xe7\xbf'
p133
tp134
Rp135
aa(lp136
F1.5145080089569092
a(lp137
F-1.3484047094928187
aF-1.5342896620379847
aF-1.6470244566546839
aF-1.765348259602682
aF1.6634891033172607
aF0.1861809343099594
aa(lp138
F0.10671769617698917
aF-0.13129353159402615
aF0.1438286651925242
aF-0.2252457691117244
aF0.1497610379883999
aF0.1391335782736143
aa(lp139
(lp140
F0.046236293826525554
aF-0.094493504823266
aF0.1013686557601673
aF-0.10376174002160315
aF0.02868384094794472
aF0.03965164996705888
aaaF0.4810348451137543
a(lp141
F-1.4486836194992065
aF2.0509583950042725
aF-1.8277662992477417
aF1.7855215072631836
aF-1.3048012256622314
aF-3.463992118835449
aF-2.918160915374756
aF-4.381124496459961
aag9
(g13
S'\xdd6s\xb4\x1d?\xe6\xbf'
p142
tp143
Rp144
aa(lp145
F1.6152229309082031
a(lp146
F-1.337034050618307
aF-1.5521472136126917
aF-1.6269472281085413
aF-1.7858260313617151
aF1.6695725917816162
aF0.19464704394340515
aa(lp147
F0.1064194084757763
aF-0.04535073831008886
aF0.16468058085519652
aF-0.20404468077476484
aF0.04142803569890031
aF-0.05628990234550865
aa(lp148
(lp149
F0.04245562887920041
aF-0.09174013770281356
aF0.09825056670295841
aF-0.09893644283338318
aF0.028598182152425412
aF0.03505426095039193
aaaF0.6
a(lp150
F-1.448839545249939
aF2.0508902072906494
aF-1.827816367149353
aF1.7856104373931885
aF-1.3048162460327148
aF-3.463724374771118
aF-2.9180431365966797
aF-4.3811750411987305
aag9
(g13
S'\x10_\x1f\n\xf7\x0e\xe5\xbf'
p151
tp152
Rp153
aa(lp154
F1.7153818607330322
a(lp155
F-1.326860253010885
aF-1.567740265523092
aF-1.6096490065204065
aF-1.8032949606524866
aF1.6747815608978271
aF0.20223866403102875
aa(lp156
F0.12871475326953474
aF-0.11185333613551258
aF0.18724754189513182
aF-0.22806513189080171
aF0.13694990364878584
aF0.14354529043286895
aa(lp157
(lp158
F0.039216883876922536
aF-0.08883896555160091
aF0.09487815000367587
aF-0.09434341593132133
aF0.028298409994531367
aF0.031202661490895105
aaaF0.48284465074539185
a(lp159
F-1.4489294290542603
aF2.050865411758423
aF-1.827842354774475
aF1.7856848239898682
aF-1.304807186126709
aF-3.463611125946045
aF-2.9179611206054688
aF-4.381191253662109
aag9
(g13
S'\x1c\xd1\xa3/m\x07\xe4\xbf'
p160
tp161
Rp162
aa(lp163
F1.8167879581451416
a(lp164
F-1.316662613545553
aF-1.5841363112079065
aF-1.592889134083883
aF-1.8210628668414515
aF1.680457592010498
aF0.2110886424779892
aa(lp165
F0.14104051841728787
aF-0.11391477875263956
aF0.19386380057813546
aF-0.19930736187133158
aF-0.00641341326183259
aF0.08591149655383955
aa(lp166
(lp167
F0.03600356590216563
aF-0.08529439210707217
aF0.09071605522095853
aF-0.08925531430664634
aF0.027826075156620535
aF0.027577112785864596
aaaF0.5070616006851196
a(lp168
F-1.4488391876220703
aF2.0509817600250244
aF-1.8278273344039917
aF1.7857260704040527
aF-1.304701566696167
aF-3.463921546936035
aF-2.9179224967956543
aF-4.381063461303711
aag9
(g13
S'/\xbe`\x01\x9f\xfa\xe2\xbf'
p169
tp170
Rp171
aa(lp172
F1.9172568321228027
a(lp173
F-1.307960335408346
aF-1.5988782087909144
aF-1.577350918446676
aF-1.8366850058185022
aF1.68507981300354
aF0.21882371604442596
aa(lp174
F0.09121026821980031
aF-0.03411945200187251
aF0.12584370892543467
aF-0.18869752787483604
aF0.03858694565844741
aF0.08677229289643504
aa(lp175
(lp176
F0.03325931475072865
aF-0.08187041240438817
aF0.08675276929172124
aF-0.08470718197898354
aF0.02730938951215256
aF0.024537649228144724
aaaF0.6
a(lp177
F-1.4486771821975708
aF2.0511422157287598
aF-1.8277853727340698
aF1.78574800491333
aF-1.3045731782913208
aF-3.4643945693969727
aF-2.9179275035858154
aF-4.380902290344238
aag9
(g13
S'\x10jG\xb9\x9d\n\xe2\xbf'
p178
tp179
Rp180
aa(lp181
F2.0174858570098877
a(lp182
F-1.2990430037127894
aF-1.6136682669269007
aF-1.5607221762286585
aF-1.8534825483905237
aF1.689809799194336
aF0.22678647935390472
aa(lp183
F0.1324168040561724
aF-0.09142137861338281
aF0.18959813422971694
aF-0.14960982142883822
aF0.10334912803453256
aF0.011961273445103768
aa(lp184
(lp185
F0.03071726095416414
aF-0.07795656755241835
aF0.08196165257930675
aF-0.07971049852518895
aF0.026524654453804197
aF0.02187716722503489
aaaF0.5126997828483582
a(lp186
F-1.4484716653823853
aF2.0513317584991455
aF-1.8277264833450317
aF1.7857623100280762
aF-1.3044281005859375
aF-3.464972972869873
aF-2.9179553985595703
aF-4.3807172775268555
aag9
(g13
S'\x91V\xc5\xd0&\x0f\xe1\xbf'
p187
tp188
Rp189
aa(lp190
F2.1178598403930664
a(lp191
F-1.291645352040426
aF-1.6268046537982386
aF-1.5454471747027796
aF-1.8686488310443323
aF1.6937496662139893
aF0.23412570357322693
aa(lp192
F0.05980848195993839
aF-0.15381530041475727
aF0.20508656241741452
aF-0.14305439528776914
aF-0.050080307483772735
aF0.14934065937331426
aa(lp193
(lp194
F0.028558144445737097
aF-0.07438507683295612
aF0.07771443190675695
aF-0.07542208390694466
aF0.025874932624160404
aF0.019668876762695273
aaaF0.4888816475868225
a(lp195
F-1.4481631517410278
aF2.051589250564575
aF-1.827637791633606
aF1.7857472896575928
aF-1.3042430877685547
aF-3.4657769203186035
aF-2.9180283546447754
aF-4.380468845367432
aag9
(g13
S'\xaf D\xc7{-\xe0\xbf'
p196
tp197
Rp198
aa(lp199
F2.2198150157928467
a(lp200
F-1.2842357794391077
aF-1.640467945729391
aF-1.5297039190875452
aF-1.8840907255755823
aF1.6985759735107422
aF0.24152520298957825
aa(lp201
F0.035109660822084894
aF-0.1107674358699231
aF0.18087624238212968
aF-0.14263254987449797
aF0.16115548263639895
aF0.09050208564607617
aa(lp202
(lp203
F0.026305030914621462
aF-0.07045736625840125
aF0.07276712687926284
aF-0.0707415468010343
aF0.024962165753994132
aF0.01753367210227378
aaaF0.481704980134964
a(lp204
F-1.4478888511657715
aF2.0518229007720947
aF-1.827565312385559
aF1.785733699798584
aF-1.3040720224380493
aF-3.4664883613586426
aF-2.9180803298950195
aF-4.38023567199707
aag9
(g13
S'\x02@1\xbd&\x8a\xde\xbf'
p205
tp206
Rp207
aa(lp208
F2.3199357986450195
a(lp209
F-1.2764671484576624
aF-1.6524303595172327
aF-1.5145118872271937
aF-1.8981903235064905
aF1.7038085460662842
aF0.24692147970199585
aa(lp210
F0.06682628190978937
aF-0.12068294345776745
aF0.16530713259557175
aF-0.15796722007208644
aF0.10282030227708018
aF0.08412553240145057
aa(lp211
(lp212
F0.023680917017840024
aF-0.06673095717562691
aF0.0677775220076717
aF-0.0661316781592258
aF0.023830221288471017
aF0.01491066152473656
aaaF0.4924837350845337
a(lp213
F-1.4479612112045288
aF2.051795244216919
aF-1.82758367061615
aF1.7857868671417236
aF-1.304073452949524
aF-3.4663853645324707
aF-2.9180235862731934
aF-4.380257606506348
aag9
(g13
S'\xd4\xb6\xca7\xc2\xdc\xdc\xbf'
p214
tp215
Rp216
aa(lp217
F2.422963857650757
a(lp218
F-1.2697518507586878
aF-1.662894074116842
aF-1.501991097127096
aF-1.910276238118307
aF1.7071255445480347
aF0.25215035676956177
aa(lp219
F0.01907230007077497
aF-0.11596873753860232
aF0.06733959225820829
aF-0.21456085281482742
aF0.03859267908225187
aF0.03968772907187074
aa(lp220
(lp221
F0.021848091434482048
aF-0.06323414251222467
aF0.06330366384827248
aF-0.06212706566134614
aF0.022975569553888242
aF0.013093292140238657
aaaF0.5673446655273438
a(lp222
F-1.447841763496399
aF2.0519015789031982
aF-1.8275344371795654
aF1.7858071327209473
aF-1.303994059562683
aF-3.4667460918426514
aF-2.918057918548584
aF-4.380167007446289
aag9
(g13
S'\xf2\xa5>2\x10p\xdb\xbf'
p223
tp224
Rp225
aa(lp226
F2.523519992828369
a(lp227
F-1.2632878462420862
aF-1.67401630083193
aF-1.488990608845846
aF-1.9229725042926233
aF1.7101433277130127
aF0.25857800245285034
aa(lp228
F0.005553925251047337
aF-0.076190852007177
aF0.16224602216400927
aF-0.08709554484968834
aF-0.010675507765962197
aF-0.05394560964110576
aa(lp229
(lp230
F0.020388689782570593
aF-0.05938309550587169
aF0.05842278166521402
aF-0.057974397319489904
aF0.022134146929586727
aF0.011836027608929107
aaaF0.6
a(lp231
F-1.4474962949752808
aF2.0521719455718994
aF-1.8274208307266235
aF1.7857813835144043
aF-1.3038095235824585
aF-3.467634677886963
aF-2.9181747436523438
aF-4.379920482635498
aag9
(g13
S'\xe9\x84\xd6j\xae\xf1\xd9\xbf'
p232
tp233
Rp234
aa(lp235
F2.6252048015594482
a(lp236
F-1.2575061956988733
aF-1.684528652821676
aF-1.4767573515521448
aF-1.9341705481158655
aF1.7134003639221191
aF0.264202743768692
aa(lp237
F0.1032456399655598
aF-0.026698022295548365
aF0.032256690419200276
aF-0.0290130330707926
aF0.08740762088381115
aF0.056139666622588874
aa(lp238
(lp239
F0.018849406914441032
aF-0.05579594370488871
aF0.053794734064695385
aF-0.054150598671132255
aF0.021267535259075362
aF0.010516556298839734
aaaF0.6
a(lp240
F-1.4472366571426392
aF2.052377939224243
aF-1.8273370265960693
aF1.785764217376709
aF-1.3036667108535767
aF-3.4683055877685547
aF-2.9182562828063965
aF-4.379729747772217
aag9
(g13
S'\xeb\x07\x8e\xab6\x92\xd8\xbf'
p241
tp242
Rp243
aa(lp244
F2.7278389930725098
a(lp245
F-1.2515562216388147
aF-1.693937126790182
aF-1.464823071156637
aF-1.9444811979876917
aF1.7170406579971313
aF0.2689394950866699
aa(lp246
F0.09962483109434202
aF-0.1221509505833605
aF0.13473420289855226
aF-0.06614014215266753
aF0.07816479868606738
aF0.09222811789894475
aa(lp247
(lp248
F0.017071098959772532
aF-0.05233164236149683
aF0.049097289744542034
aF-0.05038941654452468
aF0.020263876213845827
aF0.00895338370449478
aaaF0.5122867226600647
a(lp249
F-1.4471546411514282
aF2.0524520874023438
aF-1.8273041248321533
aF1.7857794761657715
aF-1.3036097288131714
aF-3.4685535430908203
aF-2.9182753562927246
aF-4.379663467407227
aag9
(g13
S'\xc2M<]\xbbG\xd7\xbf'
p250
tp251
Rp252
aa(lp253
F2.8291609287261963
a(lp254
F-1.2467320601092737
aF-1.701381031666891
aF-1.454517666493551
aF-1.9543245474444788
aF1.7207766771316528
aF0.2731010317802429
aa(lp255
F0.060207279842379016
aF-0.04665250058423943
aF0.10133766824980549
aF-0.15646509307659257
aF-0.003028642505068388
aF0.13368626067615505
aa(lp256
(lp257
F0.015549349555168405
aF-0.04947732936027759
aF0.04514300294289049
aF-0.047302348331669145
aF0.019420441510965593
aF0.007669708952517577
aaaF0.6
a(lp258
F-1.4470680952072144
aF2.0525283813476562
aF-1.827278971672058
aF1.7857820987701416
aF-1.3035516738891602
aF-3.468789577484131
aF-2.918288469314575
aF-4.379586696624756
aag9
(g13
S'5yEA\xfb&\xd6\xbf'
p259
tp260
Rp261
aa(lp262
F2.9300689697265625
a(lp263
F-1.2418840567218226
aF-1.7096269766436976
aF-1.444392506276266
aF-1.9645755926715296
aF1.7241296768188477
aF0.2772861421108246
aa(lp264
F0.010932087418179894
aF-0.16505867474707908
aF0.061922222447282835
aF-0.10619468320774905
aF0.024589491648325107
aF0.055394821512163434
aa(lp265
(lp266
F0.014237937167861326
aF-0.04639783572261741
aF0.04099536395107236
aF-0.04410656700678191
aF0.01860510228433677
aF0.006580893152949165
aaaF0.5285028219223022
a(lp267
F-1.4469224214553833
aF2.0526468753814697
aF-1.8272302150726318
aF1.7857797145843506
aF-1.3034671545028687
aF-3.469177007675171
aF-2.918330192565918
aF-4.379476070404053
aag9
(g13
S'\x1d PA\xbb\xfe\xd4\xbf'
p268
tp269
Rp270
aa(lp271
F3.030390977859497
a(lp272
F-1.2374666372882288
aF-1.717370335255758
aF-1.4358132521258753
aF-1.9730036894427698
aF1.7265126705169678
aF0.2812199592590332
aa(lp273
F0.11219302473868646
aF-0.06898905439864851
aF0.07104628985764416
aF-0.0387597770659469
aF0.00863406778163752
aF0.029355204289610484
aa(lp274
(lp275
F0.013237975388646827
aF-0.043509726731798
aF0.037212154729025816
aF-0.04123090885828457
aF0.017927905129962216
aF0.0057605834150297585
aaaF0.6
a(lp276
F-1.4467368125915527
aF2.052790880203247
aF-1.827162742614746
aF1.785771369934082
aF-1.303369164466858
aF-3.46966552734375
aF-2.918398857116699
aF-4.379349708557129
aag9
(g13
S'\xfe\x08m\x0e8\xfe\xd3\xbf'
p277
tp278
Rp279
aa(lp280
F3.131631851196289
a(lp281
F-1.2327020804034632
aF-1.7258566061602991
aF-1.4265983740436
aF-1.981516186391012
aF1.7294585704803467
aF0.2852616310119629
aa(lp282
F-0.026614865103627358
aF-0.09775627166049278
aF0.08472362369887534
aF-0.026784730910530484
aF-0.024654441166871092
aF0.05273827356523718
aa(lp283
(lp284
F0.012046265965281031
aF-0.040304277898101336
aF0.03287401318472835
aF-0.038042823714663505
aF0.01707943973941756
aF0.004836062741463315
aaaF0.6
a(lp285
F-1.4465901851654053
aF2.052908420562744
aF-1.8271088600158691
aF1.7857708930969238
aF-1.3032869100570679
aF-3.4700615406036377
aF-2.9184484481811523
aF-4.379244804382324
aag9
(g13
S'\xdf{\x9e.\xd1\xed\xd2\xbf'
p286
tp287
Rp288
aa(lp289
F3.2320218086242676
a(lp290
F-1.2289193312274378
aF-1.7347262541400355
aF-1.4177301565753382
aF-1.9903162161456507
aF1.7326194047927856
aF0.2880682051181793
aa(lp291
F-0.06328840807925443
aF-0.09105856272415082
aF0.05315749308722059
aF-0.0932895789655068
aF0.0653096371790245
aF0.07719786290561131
aa(lp292
(lp293
F0.010909929432365746
aF-0.03738416999992819
aF0.028922340322033422
aF-0.03518176063046414
aF0.016264772498114328
aF0.003922653493580379
aaaF0.6
a(lp294
F-1.4465028047561646
aF2.0529863834381104
aF-1.827078938484192
aF1.7857799530029297
aF-1.3032275438308716
aF-3.4703125953674316
aF-2.9184658527374268
aF-4.379171371459961
aag9
(g13
S'\x8f\xb4}C\x16\xe4\xd1\xbf'
p295
tp296
Rp297
aa(lp298
F3.3325209617614746
a(lp299
F-1.2261059919940394
aF-1.7424934546100062
aF-1.4102767149554651
aF-1.9986007849322718
aF1.7355172634124756
aF0.29003435373306274
aa(lp300
F-0.00831458513214027
aF-0.03427492116473996
aF0.07524476075748643
aF-0.011219089225410324
aF0.12265977588747129
aF0.07727870236684688
aa(lp301
(lp302
F0.010023276235798234
aF-0.03501234048641689
aF0.025738467525645334
aF-0.03289281564866738
aF0.015612000353154555
aF0.0031982296819541315
aaaF0.6
a(lp303
F-1.4464293718338013
aF2.053053617477417
aF-1.8270565271377563
aF1.7857868671417236
aF-1.3031753301620483
aF-3.4705212116241455
aF-2.91847562789917
aF-4.3791046142578125
aag9
(g13
S'hL\xcf\xe3V\xfd\xd0\xbf'
p304
tp305
Rp306
aa(lp307
F3.4334499835968018
a(lp308
F-1.2231133619891565
aF-1.750632111226217
aF-1.4031346479998987
aF-2.006789032612936
aF1.738738775253296
aF0.29172563552856445
aa(lp309
F0.018659775355480995
aF-0.06881972167793318
aF0.0638393259418504
aF-0.15249831229435373
aF0.07365050000941695
aF-0.006379112986492019
aa(lp310
(lp311
F0.009052141692235977
aF-0.03249293711310097
aF0.022274919427875486
aF-0.030447807398138585
aF0.014863411895667061
aF0.002424118280137104
aaaF0.5746707320213318
a(lp312
F-1.4464083909988403
aF2.0530855655670166
aF-1.8270502090454102
aF1.7858068943023682
aF-1.3031442165374756
aF-3.470612049102783
aF-2.9184622764587402
aF-4.37907075881958
aag9
(g13
S'\xdd<\xfa\x955\x17\xd0\xbf'
p313
tp314
Rp315
aa(lp316
F3.534263849258423
a(lp317
F-1.2202280203448694
aF-1.757740322743551
aF-1.3969152609454554
aF-2.0138748327838343
aF1.7415648698806763
aF0.2932727038860321
aa(lp318
F0.05676319182196804
aF-0.07254464732637056
aF0.12594432454524962
aF-0.0540478449838546
aF-0.011566458993055462
aF0.09940301402071276
aa(lp319
(lp320
F0.008164781657488688
aF-0.03022556519634761
aF0.01915819172115171
aF-0.028276701923790455
aF0.014193569807413719
aF0.001687241174377716
aaaF0.5672571063041687
a(lp321
F-1.4464006423950195
aF2.053105115890503
aF-1.827045202255249
aF1.7858283519744873
aF-1.303122878074646
aF-3.470670700073242
aF-2.918449640274048
aF-4.3790507316589355
aag9
(g13
S'\x10E\x88[|\x9b\xce\xbf'
p322
tp323
Rp324
aa(lp325
F3.6362338066101074
a(lp326
F-1.2173789183246058
aF-1.7648242155658167
aF-1.3906720320331019
aF-2.021104160939352
aF1.7443549633026123
aF0.2949276566505432
aa(lp327
F0.0804846221871203
aF-0.06313105477275725
aF-0.01740557627528541
aF-0.07431667335168757
aF0.027544318607994
aF0.021956072931103292
aa(lp328
(lp329
F0.007361045267470576
aF-0.027947560438322524
aF0.016020277859560523
aF-0.026127079937778446
aF0.01354186519080344
aF0.0010704410276180304
aaaF0.6
a(lp330
F-1.4463673830032349
aF2.053142547607422
aF-1.8270320892333984
aF1.785844326019287
aF-1.3030909299850464
aF-3.4707884788513184
aF-2.9184484481811523
aF-4.3790154457092285
aag9
(g13
S'!\x9f\xba\x1c\x89\x06\xcd\xbf'
p331
tp332
Rp333
aa(lp334
F3.7375829219818115
a(lp335
F-1.2148168722735804
aF-1.7716682592975062
aF-1.3851950804339808
aF-2.02781850496401
aF1.7471569776535034
aF0.2966185510158539
aa(lp336
F0.014437062603289273
aF-0.09328655988252757
aF0.11408496110192395
aF-0.07833686110400942
aF-0.06214887074590507
aF0.011147412603336116
aa(lp337
(lp338
F0.0066401571187895995
aF-0.025820609659013345
aF0.0131132453931872
aF-0.024151718636786848
aF0.012955540738444103
aF0.0005314020348116753
aaaF0.574532687664032
a(lp339
F-1.446307897567749
aF2.0531985759735107
aF-1.8270137310028076
aF1.7858526706695557
aF-1.3030463457107544
aF-3.4709625244140625
aF-2.9184539318084717
aF-4.378959655761719
aag9
(g13
S'\xe0P\xaa\x7f\xdf\x8f\xcb\xbf'
p340
tp341
Rp342
aa(lp343
F3.840216875076294
a(lp344
F-1.2124226729022425
aF-1.7781413237201136
aF-1.3804972807513636
aF-2.0340526739703577
aF1.750054955482483
aF0.29812970757484436
aa(lp345
F-0.03960338002930984
aF-0.009348178023285414
aF0.05633582932981756
aF-0.06744588635163638
aF0.13659559982911146
aF-0.0472540756927613
aa(lp346
(lp347
F0.005941188462343354
aF-0.02383072789952668
aF0.010374696653886862
aF-0.022310403344733738
aF0.012390742350339818
aF1.205730050962109e-05
aaaF0.6
a(lp348
F-1.4462636709213257
aF2.0532445907592773
aF-1.8270021677017212
aF1.785862684249878
aF-1.3030080795288086
aF-3.471097469329834
aF-2.9184508323669434
aF-4.37891149520874
aag9
(g13
S'\xb3\xf5\xef\x15\xac9\xca\xbf'
p349
tp350
Rp351
aa(lp352
F3.941633939743042
a(lp353
F-1.210207764302389
aF-1.7837870756732386
aF-1.3764708677874964
aF-2.0396278540240687
aF1.7525932788848877
aF0.29935282468795776
aa(lp354
F0.08449905547729128
aF-0.10909143387929039
aF0.09013544552637887
aF-0.05091244597622945
aF0.11058190611957018
aF-0.00656033284390619
aa(lp355
(lp356
F0.005337672348029362
aF-0.02208004088435442
aF0.007965834680618464
aF-0.020704138064803555
aF0.011894809218924659
aF-0.0004556520959035279
aaaF0.504377007484436
a(lp357
F-1.4462394714355469
aF2.053274393081665
aF-1.82699453830719
aF1.7858757972717285
aF-1.3029814958572388
aF-3.4711856842041016
aF-2.918445110321045
aF-4.378880500793457
aag9
(g13
S'\x1a \x80\x8d\xfb\x0e\xc9\xbf'
p358
tp359
Rp360
aa(lp361
F4.041894912719727
a(lp362
F-1.207848850880758
aF-1.7891572157489222
aF-1.3725999037372034
aF-2.0456107298480433
aF1.7554552555084229
aF0.30064788460731506
aa(lp363
F0.034661655996667
aF-0.029939266061706264
aF0.11233938292405
aF-0.07086294101948792
aF0.018599381128675884
aF0.05363043551850145
aa(lp364
(lp365
F0.0047156327627757314
aF-0.020324928999204128
aF0.005519905480172101
aF-0.019096116752339652
aF0.011382911180540517
aF-0.0009142183510141052
aaaF0.6
a(lp366
F-1.446222186088562
aF2.05329966545105
aF-1.8269903659820557
aF1.7858898639678955
aF-1.3029571771621704
aF-3.471255302429199
aF-2.918433904647827
aF-4.378852367401123
aag9
(g13
S'\xf5zX=\x06\xe2\xc7\xbf'
p367
tp368
Rp369
aa(lp370
F4.142307996749878
a(lp371
F-1.2058737913714808
aF-1.7941072622882288
aF-1.3694360891925257
aF-2.0506218115436
aF1.7578502893447876
aF0.30182307958602905
aa(lp372
F0.015949287670438746
aF-0.07242207514748933
aF0.07907444705451316
aF-0.014918062833440611
aF-0.020849140148606927
aF0.10061080032221524
aa(lp373
(lp374
F0.004238230822666327
aF-0.018800646621041472
aF0.0034379569920777154
aF-0.017729293500923123
aF0.010972343481953912
aF-0.0012684567797471974
aaaF0.6
a(lp375
F-1.4461835622787476
aF2.0533382892608643
aF-1.8269788026809692
aF1.785897970199585
aF-1.3029255867004395
aF-3.471372604370117
aF-2.9184346199035645
aF-4.37881326675415
aag9
(g13
S'\xd6\xb0\x10u\xdd\xe1\xc6\xbf'
p376
tp377
Rp378
aa(lp379
F4.243285894393921
a(lp380
F-1.2040303389178675
aF-1.799082104359762
aF-1.3657925764666956
aF-2.0558369795428675
aF1.7600171566009521
aF0.30301064252853394
aa(lp381
F0.0016658483341351546
aF0.01727377867096174
aF-0.01310229148975299
aF0.003449260889134609
aF-0.030655170524898356
aF0.0747554146309839
aa(lp382
(lp383
F0.0038437537409194314
aF-0.01730863623635694
aF0.0014158502242761699
aF-0.01642213757127771
aF0.010597068519268872
aF-0.0015274233415565877
aaaF0.6
a(lp384
F-1.4461219310760498
aF2.053391218185425
aF-1.8269585371017456
aF1.785900354385376
aF-1.3028861284255981
aF-3.4715428352355957
aF-2.9184482097625732
aF-4.378762245178223
aag9
(g13
S'\xbd&\xdc\x9f\xac\xd8\xc5\xbf'
p385
tp386
Rp387
aa(lp388
F4.344575881958008
a(lp389
F-1.2023900190936487
aF-1.8032053152667444
aF-1.3628810087787073
aF-2.0604289213763636
aF1.7619571685791016
aF0.3040420413017273
aa(lp390
F0.016240051295439192
aF-0.04239273823469456
aF0.01246613542461393
aF-0.02132660490134636
aF-0.011766543042681845
aF-0.01655050192118962
aa(lp391
(lp392
F0.0035226598482328187
aF-0.016053959485346835
aF-0.0002772681626573255
aF-0.015330869297578861
aF0.010289986343524137
aF-0.0017461214084025997
aaaF0.6
a(lp393
F-1.4460698366165161
aF2.053436040878296
aF-1.8269411325454712
aF1.785902738571167
aF-1.302852749824524
aF-3.471687078475952
aF-2.918459415435791
aF-4.378719806671143
aag9
(g13
S'\x8d\n\xe1\xa2\xa6\xf9\xc4\xbf'
p394
tp395
Rp396
aa(lp397
F4.447353839874268
a(lp398
F-1.2005465666400355
aF-1.8071849981891077
aF-1.360687557850973
aF-2.064432922993795
aF1.764076828956604
aF0.3048573434352875
aa(lp399
F-0.003618819210990873
aF0.0073166796013550695
aF-0.027376223320005513
aF0.012916838594893593
aF-0.07952058463245765
aF-0.0009273148430677738
aa(lp400
(lp401
F0.0031053025479904975
aF-0.014778592703944448
aF-0.002043955497521736
aF-0.014206940973348315
aF0.009922271668448095
aF-0.002062811812578681
aaaF0.6
a(lp402
F-1.4460724592208862
aF2.053443670272827
aF-1.826940655708313
aF1.7859184741973877
aF-1.3028419017791748
aF-3.471707344055176
aF-2.918447256088257
aF-4.378711223602295
aag9
(g13
S'8\xab \xa5F5\xc4\xbf'
p403
tp404
Rp405
aa(lp406
F4.550294876098633
a(lp407
F-1.1988704840289515
aF-1.8106134573565882
aF-1.3590100447284144
aF-2.0681379477130335
aF1.7659329175949097
aF0.3058048486709595
aa(lp408
F-0.009305411757818398
aF-0.022347016885550595
aF0.14922793033227436
aF-0.03340879332660198
aF0.10678887745042931
aF-0.01977774145199203
aa(lp409
(lp410
F0.002832196277613476
aF-0.013665130874751661
aF-0.0035388419154015883
aF-0.013249369175757288
aF0.009650770549606436
aF-0.0022614721119886567
aaaF0.5472763180732727
a(lp411
F-1.4460409879684448
aF2.053473711013794
aF-1.826928734779358
aF1.7859256267547607
aF-1.3028182983398438
aF-3.471804618835449
aF-2.9184517860412598
aF-4.378682613372803
aag9
(g13
S'\xc4\xde\x0e\xd8\x04\x8a\xc3\xbf'
p412
tp413
Rp414
aa(lp415
F4.650892019271851
a(lp416
F-1.196918789540426
aF-1.8139455954181116
aF-1.357403580342428
aF-2.0717347303973597
aF1.7674537897109985
aF0.3066684603691101
aa(lp417
F0.06569641096480645
aF-0.09833685579560529
aF-0.11316552604158688
aF0.17538689869053015
aF0.034127566438059184
aF0.044752529693182115
aa(lp418
(lp419
F0.0026160995998379187
aF-0.012495497649409692
aF-0.005083881815049645
aF-0.012268712517567011
aF0.009383818705444675
aF-0.0024301479825789936
aaaF0.6
a(lp420
F-1.446028709411621
aF2.053487539291382
aF-1.8269163370132446
aF1.7859408855438232
aF-1.3028062582015991
aF-3.4718661308288574
aF-2.918457508087158
aF-4.37867546081543
aag9
(g13
S'\xa0j\x19\xc049\xe0\xbf'
p421
tp422
Rp423
aa(lp424
F4.753466844558716
a(lp425
F-1.1949194113360804
aF-1.8185003439532679
aF-1.3590219656573694
aF-2.0708592573748987
aF1.7687588930130005
aF0.30749574303627014
aa(lp426
F-0.0379859359383697
aF-0.028435763648029425
aF-0.16765285063667415
aF0.14368915955460826
aF0.04280374647932058
aF-0.11568903104341427
aa(lp427
(lp428
F0.0023117699285345613
aF-0.011143482632761203
aF-0.006867291388684961
aF-0.011133501986265604
aF0.009026688863514475
aF-0.0026644483568905577
aaaF0.6
a(lp429
F-1.4460536241531372
aF2.0534818172454834
aF-1.8269160985946655
aF1.7859702110290527
aF-1.3028041124343872
aF-3.471853733062744
aF-2.9184422492980957
aF-4.378686428070068
aag9
(g13
S'A\xbd\xaa\xab\xbe\x1e\xe0\xbf'
p430
tp431
Rp432
aa(lp433
F4.855100870132446
a(lp434
F-1.1934707800494593
aF-1.8233073393451136
aF-1.3647621313678187
aF-2.0658839384662073
aF1.7701959609985352
aF0.30846720933914185
aa(lp435
F0.04992603546717714
aF-0.04165262445130362
aF-0.02779549263275377
aF0.1716240438216839
aF0.15007271381480752
aF-0.008183362014928516
aa(lp436
(lp437
F0.002067882242488593
aF-0.009978073584160618
aF-0.008339329423399062
aF-0.010158467193490997
aF0.008720986967333824
aF-0.0028085168265082083
aaaF0.6
a(lp438
F-1.4460545778274536
aF2.053499221801758
aF-1.8269182443618774
aF1.7859935760498047
aF-1.3027830123901367
aF-3.471892833709717
aF-2.9184203147888184
aF-4.378666877746582
aag9
(g13
S'Ve\xbf\x84\x0e\xb0\xdf\xbf'
p439
tp440
Rp441
aa(lp442
F4.956590890884399
a(lp443
F-1.1923816839801233
aF-1.827191177998678
aF-1.3711374441729944
aF-2.059913460408346
aF1.7713572978973389
aF0.30882713198661804
aa(lp444
F-0.03241549187654516
aF-8.304941741914262e-05
aF-0.11236519698354606
aF0.24159398479395433
aF0.012917363513970395
aF0.020243411855632124
aa(lp445
(lp446
F0.0017895737106517872
aF-0.009124670005517706
aF-0.009444553741679027
aF-0.00942278808726441
aF0.008423545683160805
aF-0.003011246100582487
aaaF0.6
a(lp447
F-1.4461225271224976
aF2.05346941947937
aF-1.8269425630569458
aF1.7860286235809326
aF-1.3027914762496948
aF-3.471771478652954
aF-2.918370008468628
aF-4.378689765930176
aag9
(g13
S'_<\xab\xca\xb2\x16\xdf\xbf'
p448
tp449
Rp450
aa(lp451
F5.0572309494018555
a(lp452
F-1.191052261983053
aF-1.8317220846759241
aF-1.3776329199420374
aF-2.053079907094137
aF1.7727582454681396
aF0.3090428411960602
aa(lp453
F0.12099793292295417
aF-0.09243909830895254
aF-0.11564399692459851
aF0.19764205618344302
aF-0.023676942109136095
aF0.03007853776752699
aa(lp454
(lp455
F0.0013154262672336544
aF-0.008129451117795063
aF-0.010825483330462564
aF-0.008542877606264042
aF0.008002586925035885
aF-0.0033745520290338745
aaaF0.6
a(lp456
F-1.4462460279464722
aF2.0534040927886963
aF-1.8269853591918945
aF1.7860782146453857
aF-1.3028210401535034
aF-3.4715256690979004
aF-2.918292999267578
aF-4.378744602203369
aag9
(g13
S'\x15\xe4\x0f\xce)n\xde\xbf'
p457
tp458
Rp459
aa(lp460
F5.158111810684204
a(lp461
F-1.1900947729693812
aF-1.8358095327960413
aF-1.3838289419757288
aF-2.047180954610006
aF1.7741953134536743
aF0.3093068599700928
aa(lp462
F-0.003284885991188164
aF-0.043419592659687326
aF-0.15672982412948455
aF0.22389688500956317
aF-0.06694739887922833
aF-0.006891581442717426
aa(lp463
(lp464
F0.000978516622844999
aF-0.007362875612891854
aF-0.01185156877721527
aF-0.007862358034051992
aF0.007688522899787375
aF-0.0036184427613327975
aaaF0.6
a(lp465
F-1.4463239908218384
aF2.0533690452575684
aF-1.827016830444336
aF1.7861132621765137
aF-1.302831768989563
aF-3.471376419067383
aF-2.9182326793670654
aF-4.378768444061279
aag9
(g13
S'y92\xd3\x1e\xd7\xdd\xbf'
p466
tp467
Rp468
aa(lp469
F5.259059906005859
a(lp470
F-1.1892684141742151
aF-1.8397176901446741
aF-1.3903120199786585
aF-2.040778462086813
aF1.7755364179611206
aF0.3097386658191681
aa(lp471
F-0.022152181115786908
aF-0.12237322293881114
aF-0.11913533134795172
aF0.15547225698262762
aF-0.07927700272580666
aF0.00602107554706377
aa(lp472
(lp473
F0.0006916173753753073
aF-0.006655011800649046
aF-0.012778515511212781
aF-0.007256822750095086
aF0.0074170617978933425
aF-0.00380231480416735
aaaF0.6
a(lp474
F-1.4463779926300049
aF2.0533504486083984
aF-1.8270421028137207
aF1.7861418724060059
aF-1.3028322458267212
aF-3.471280097961426
aF-2.9181816577911377
aF-4.3787760734558105
aag9
(g13
S'\xb3\xab\x16\x17#8\xdd\xbf'
p475
tp476
Rp477
aa(lp478
F5.359266996383667
a(lp479
F-1.188394848500387
aF-1.8435047308551233
aF-1.397442642842428
aF-2.0344484488116663
aF1.7767220735549927
aF0.310350239276886
aa(lp480
F0.01605832373738232
aF-0.05027121145413068
aF-0.10961508253033533
aF0.19587360615006066
aF-0.02615525139424917
aF-0.0006967151484770853
aa(lp481
(lp482
F0.0005902597220795807
aF-0.006016995088361011
aF-0.013513963020529197
aF-0.006738522807474796
aF0.007244553617227471
aF-0.0038477249091987895
aaaF0.6
a(lp483
F-1.446395993232727
aF2.0533559322357178
aF-1.8270530700683594
aF1.7861638069152832
aF-1.3028191328048706
aF-3.4712703227996826
aF-2.918149948120117
aF-4.378765106201172
aag9
(g13
S'Q\\\xf2c\x01\x95\xdc\xbf'
p484
tp485
Rp486
aa(lp487
F5.460874795913696
a(lp488
F-1.18768817583193
aF-1.8467658201800745
aF-1.4036501089679163
aF-2.0284536520587366
aF1.7775721549987793
aF0.31079402565956116
aa(lp489
F0.08685477470380909
aF-0.04982832066908444
aF-0.13317099325822646
aF0.2371503151316779
aF-0.05682218575130581
aF0.0431356222254731
aa(lp490
(lp491
F0.000492768360603965
aF-0.005503303142720235
aF-0.01411152423248466
aF-0.006320053638755723
aF0.007093014831946293
aF-0.0039000860206331077
aaaF0.6
a(lp492
F-1.4464244842529297
aF2.0533511638641357
aF-1.8270659446716309
aF1.7861859798431396
aF-1.30281400680542
aF-3.4712324142456055
aF-2.918118715286255
aF-4.378764629364014
aag9
(g13
S'[XWNT\x01\xdc\xbf'
p493
tp494
Rp495
aa(lp496
F5.561913967132568
a(lp497
F-1.1866586844073694
aF-1.8501575628863733
aF-1.4105642477618616
aF-2.0220754782306116
aF1.7786017656326294
aF0.31106966733932495
aa(lp498
F-0.021022717586811117
aF-0.09099545794301162
aF-0.06470426251113676
aF0.13079341982388887
aF0.029560632406137696
aF-0.0658296951277418
aa(lp499
(lp500
F0.0003347713222484912
aF-0.0049329617433046405
aF-0.014801579256029592
aF-0.005848495873473911
aF0.006887656926251558
aF-0.0040251522801817525
aaaF0.6
a(lp501
F-1.446502923965454
aF2.0533130168914795
aF-1.8270930051803589
aF1.786222219467163
aF-1.3028286695480347
aF-3.471086025238037
aF-2.9180660247802734
aF-4.378796100616455
aag9
(g13
S';e\xfa[\x16b\xdb\xbf'
p502
tp503
Rp504
aa(lp505
F5.662604808807373
a(lp506
F-1.1855691115008753
aF-1.853142563496725
aF-1.4165681044207972
aF-2.0163567701922815
aF1.7795597314834595
aF0.31115391850471497
aa(lp507
F-0.005861505644061484
aF0.027749774788051268
aF-0.10816995015864493
aF0.1452429080192206
aF-0.004578860391171735
aF0.04768446940448632
aa(lp508
(lp509
F0.00011224974857333811
aF-0.004419184912632103
aF-0.015472315060199816
aF-0.0054004848554674665
aF0.006654163976477668
aF-0.004220696883967213
aaaF0.6
a(lp510
F-1.4466131925582886
aF2.053251266479492
aF-1.8271284103393555
aF1.7862648963928223
aF-1.302858829498291
aF-3.4708642959594727
aF-2.9180030822753906
aF-4.378850936889648
aag9
(g13
S'\x91\x7f#\x95x\xd5\xda\xbf'
p511
tp512
Rp513
aa(lp514
F5.763949871063232
a(lp515
F-1.1843002478228968
aF-1.8564513365374964
aF-1.4234822432147425
aF-2.0100982824908655
aF1.7806495428085327
aF0.31174153089523315
aa(lp516
F0.00931222431579417
aF-0.00853131071502708
aF-0.059537243312620766
aF0.20348433172222335
aF0.0353054864114077
aF-0.0403638001892995
aa(lp517
(lp518
F-1.302854538390145e-06
aF-0.0038154366390048345
aF-0.01617922919176362
aF-0.004934239705965692
aF0.006477220134877183
aF-0.004303409614955225
aaaF0.6
a(lp519
F-1.446671962738037
aF2.0532259941101074
aF-1.8271477222442627
aF1.7862977981567383
aF-1.3028663396835327
aF-3.470764636993408
aF-2.917961597442627
aF-4.378871917724609
aag9
(g13
S'\xc8\xdb\xb0$\xd67\xda\xbf'
p520
tp521
Rp522
aa(lp523
F5.864579916000366
a(lp524
F-1.1831629912005823
aF-1.8593881765948694
aF-1.4300368467914026
aF-2.0040558020221155
aF1.7814037799835205
aF0.3123650848865509
aa(lp525
F0.0700206061473129
aF-0.006231278410520152
aF-0.04228702094644124
aF0.17540330967974666
aF0.054611166329719275
aF0.03745589704184151
aa(lp526
(lp527
F-1.3042150206172046e-05
aF-0.003320518573242696
aF-0.01670866584596663
aF-0.004566652128626846
aF0.006369610324877383
aF-0.004313555069510079
aaaF0.6
a(lp528
F-1.4467095136642456
aF2.0532126426696777
aF-1.8271580934524536
aF1.7863245010375977
aF-1.3028680086135864
aF-3.4707119464874268
aF-2.917933464050293
aF-4.378884792327881
aag9
(g13
S'_\xab\xce\x9f\x18\xa2\xd9\xbf'
p529
tp530
Rp531
aa(lp532
F5.965390920639038
a(lp533
F-1.1822288672076624
aF-1.8621686140643519
aF-1.4359687010394495
aF-1.9986489454852503
aF1.7820385694503784
aF0.3127845227718353
aa(lp534
F0.024464033028570274
aF-0.0589289990991796
aF-0.07280954958000876
aF0.1830757119756218
aF0.09915689213007878
aF-0.01611995239227739
aa(lp535
(lp536
F7.612939349699961e-06
aF-0.0029093149543346305
aF-0.017124324448438016
aF-0.004269589972622772
aF0.006287096309009634
aF-0.0043051432515267985
aaaF0.6
a(lp537
F-1.446748971939087
aF2.053196668624878
aF-1.8271689414978027
aF1.7863502502441406
aF-1.3028717041015625
aF-3.4706528186798096
aF-2.9179062843322754
aF-4.378899097442627
aag9
(g13
S'\xbc\xd7Rt\x80\x1b\xd9\xbf'
p538
tp539
Rp540
aa(lp541
F6.066758871078491
a(lp542
F-1.1813553015338343
aF-1.865105454121725
aF-1.4421518484698694
aF-1.9922102133380335
aF1.7829006910324097
aF0.31324031949043274
aa(lp543
F-0.006303267231263936
aF-0.0357639379790049
aF-0.0832348729418037
aF0.1666837459900665
aF-0.04180911573635422
aF-0.04825310932274693
aa(lp544
(lp545
F-0.00012940852605222553
aF-0.0025061943659896576
aF-0.017610440001757842
aF-0.003943700488684398
aF0.00613328094352809
aF-0.004402295052281128
aaaF0.6
a(lp546
F-1.446807622909546
aF2.0531704425811768
aF-1.8271909952163696
aF1.7863781452178955
aF-1.3028805255889893
aF-3.47054386138916
aF-2.917863607406616
aF-4.37891960144043
aag9
(g13
S'\xdb\xd9p\xef\xbf\x84\xd8\xbf'
p547
tp548
Rp549
aa(lp550
F6.169329881668091
a(lp551
F-1.1805766264544886
aF-1.8678749243365687
aF-1.4486225287066858
aF-1.986011807118551
aF1.7834875583648682
aF0.3133481740951538
aa(lp552
F-0.025872274243966403
aF-0.003460270524611793
aF-0.08999632470568043
aF0.1604712999432817
aF-0.08378797948542983
aF0.029754222510261254
aa(lp553
(lp554
F-0.00014609910707202042
aF-0.0021990064373266422
aF-0.017910173326273145
aF-0.00371578297723741
aF0.006033250073426775
aF-0.004435623437552785
aaaF0.6
a(lp555
F-1.4468852281570435
aF2.0531296730041504
aF-1.8272154331207275
aF1.786412239074707
aF-1.30289888381958
aF-3.470395803451538
aF-2.9178171157836914
aF-4.378955841064453
aag9
(g13
S'\x05\x1e\x84o\xa3\xf0\xd7\xbf'
p556
tp557
Rp558
aa(lp559
F6.2707200050354
a(lp560
F-1.1798222700702112
aF-1.870295826588766
aF-1.454505745564596
aF-1.9803889433490198
aF1.7843976020812988
aF0.31343206763267517
aa(lp561
F0.06900282992862511
aF-0.13269336063334028
aF-0.09960674977645985
aF0.12017103004740845
aF0.1278606015208979
aF-0.01001697930328381
aa(lp562
(lp563
F-0.00028708355375276417
aF-0.0019455314869160135
aF-0.01821620625648479
aF-0.003490382619664249
aF0.0058839940256454025
aF-0.004559377484530966
aaaF0.6
a(lp564
F-1.4469770193099976
aF2.0530803203582764
aF-1.827248454093933
aF1.7864465713500977
aF-1.302922010421753
aF-3.4702086448669434
aF-2.917759895324707
aF-4.378996849060059
aag9
(g13
S'\x13G\xf1\xb9\xedj\xd7\xbf'
p565
tp566
Rp567
aa(lp568
F6.371984958648682
a(lp569
F-1.1788409391986292
aF-1.8726213614093226
aF-1.4611800352679651
aF-1.9745386282550257
aF1.7853915691375732
aF0.31369608640670776
aa(lp570
F0.05549817930514279
aF-0.03908734379266529
aF-0.1351643099608539
aF0.15862695827726853
aF0.09978888411118536
aF0.05155196460776108
aa(lp571
(lp572
F-0.0003557926324407961
aF-0.0016549412608260132
aF-0.018511548705835813
aF-0.0032806163616547635
aF0.005769693193196048
aF-0.0046270851937013835
aaaF0.6
a(lp573
F-1.44706130027771
aF2.0530354976654053
aF-1.8272775411605835
aF1.7864806652069092
aF-1.302941918373108
aF-3.4700419902801514
aF-2.9177074432373047
aF-4.379034042358398
aag9
(g13
S'\xec\xe2\x82\xe4\x15\xdc\xd6\xbf'
p574
tp575
Rp576
aa(lp577
F6.472750902175903
a(lp578
F-1.1781943480121058
aF-1.8745272795306605
aF-1.4673870245562952
aF-1.968891445790426
aF1.786073923110962
aF0.3137560188770294
aa(lp579
F-0.043580472045689655
aF-0.012058756738908598
aF-0.04130534843506625
aF0.23430590627252784
aF-0.012268703978644395
aF0.0034048326612979365
aa(lp580
(lp581
F-0.0003845071715071284
aF-0.0015125744842853538
aF-0.018614097027278922
aF-0.0031754230226505625
aF0.005692693297072138
aF-0.004669731151704135
aaaF0.6
a(lp582
F-1.4471436738967896
aF2.0529909133911133
aF-1.8273061513900757
aF1.7865118980407715
aF-1.3029630184173584
aF-3.4698753356933594
aF-2.9176571369171143
aF-4.379072189331055
aag9
(g13
S'H\x1b\x03P\xb0V\xd6\xbf'
p583
tp584
Rp585
aa(lp586
F6.573580980300903
a(lp587
F-1.1776679197894495
aF-1.8764331976519983
aF-1.47321063676943
aF-1.9634483496295374
aF1.7865049839019775
aF0.3139597475528717
aa(lp588
F-0.0009922284085152923
aF-0.004116389890405275
aF-0.02439148403294511
aF0.11876563002385927
aF0.015303093031020884
aF0.01555968387007024
aa(lp589
(lp590
F-0.00031263459108940735
aF-0.0013994883969803964
aF-0.01863722733502637
aF-0.003107552483726182
aF0.00567820163612099
aF-0.004629430523411993
aaaF0.6
a(lp591
F-1.4471895694732666
aF2.0529696941375732
aF-1.8273218870162964
aF1.786534309387207
aF-1.3029710054397583
aF-3.469791889190674
aF-2.91762638092041
aF-4.379089832305908
aag9
(g13
S'\x85\xd9\x06\x1b%\xd7\xd5\xbf'
p592
tp593
Rp594
aa(lp595
F6.675076961517334
a(lp596
F-1.1770332495318812
aF-1.8784831205951136
aF-1.4792373816119593
aF-1.9576810042010706
aF1.7871158123016357
aF0.3140795826911926
aa(lp597
F0.009723486758885853
aF0.015822561309204425
aF-0.0869975726848375
aF0.10142075773145465
aF0.008397890779496873
aF-0.04710616630977385
aa(lp598
(lp599
F-0.0003292984344468972
aF-0.001241853438878967
aF-0.01875346717514417
aF-0.0030041714842923045
aF0.005610071758458995
aF-0.004658148094710642
aaaF0.6
a(lp600
F-1.4472646713256836
aF2.052929639816284
aF-1.827347755432129
aF1.7865641117095947
aF-1.3029894828796387
aF-3.469642162322998
aF-2.9175801277160645
aF-4.379124164581299
aag9
(g13
S'\xdejXzvQ\xd5\xbf'
p601
tp602
Rp603
aa(lp604
F6.776597023010254
a(lp605
F-1.1764944235431116
aF-1.8807490507708948
aF-1.4855039755450647
aF-1.952226463948385
aF1.7881096601486206
aF0.31421178579330444
aa(lp606
F0.06870267973137034
aF-0.01630979458334268
aF-0.12055547544651848
aF0.09489672294885738
aF-0.056750505002154096
aF-0.03522332483536516
aa(lp607
(lp608
F-0.00034295878214731304
aF-0.0011218015318069823
aF-0.018810469940940412
aF-0.0029219127016661805
aF0.005550741041855789
aF-0.004674488676716967
aaaF0.6
a(lp609
F-1.4473271369934082
aF2.0529003143310547
aF-1.8273738622665405
aF1.7865896224975586
aF-1.3029996156692505
aF-3.469517946243286
aF-2.9175329208374023
aF-4.379143714904785
aag9
(g13
S'\xc5\x13\xd3c\x1b\xce\xd4\xbf'
p610
tp611
Rp612
aa(lp613
F6.878000974655151
a(lp614
F-1.1757996718036097
aF-1.8826425711261194
aF-1.4911592642413538
aF-1.9470351378070276
aF1.7888638973236084
aF0.31443947553634644
aa(lp615
F0.0638844663281267
aF-0.12620326160892587
aF-0.023972664110067203
aF0.14189196216538424
aF-0.0477067173410067
aF0.09443368907882468
aa(lp616
(lp617
F-0.0003596365259181787
aF-0.000988810110950683
aF-0.018902390600473676
aF-0.0028265411270873477
aF0.0054915750003083534
aF-0.004701432838902853
aaaF0.6
a(lp618
F-1.4473916292190552
aF2.0528671741485596
aF-1.8273969888687134
aF1.7866156101226807
aF-1.3030141592025757
aF-3.469390392303467
aF-2.9174904823303223
aF-4.379171371459961
aag9
(g13
S'\xcc\x81{\xdb^T\xd4\xbf'
p619
tp620
Rp621
aa(lp622
F6.978135824203491
a(lp623
F-1.1752732435809534
aF-1.8842251936541956
aF-1.4971979300128382
aF-1.9416998068438929
aF1.7896661758422852
aF0.3145473301410675
aa(lp624
F0.07911026196533814
aF0.039973658937008716
aF-0.13818206571555866
aF0.028378016433608835
aF-0.0792293459965746
aF0.01711002022494664
aa(lp625
(lp626
F-0.0003709965141880902
aF-0.0009393959420648212
aF-0.018875940954365154
aF-0.002804324096223218
aF0.005445717493030913
aF-0.004722752429608813
aaaF0.6
a(lp627
F-1.447462797164917
aF2.052830219268799
aF-1.8274246454238892
aF1.7866418361663818
aF-1.3030303716659546
aF-3.4692440032958984
aF-2.917442798614502
aF-4.379199028015137
aag9
(g13
S'*\xcf\x0f\x0f[\xd8\xd3\xbf'
p628
tp629
Rp630
aa(lp631
F7.079958915710449
a(lp632
F-1.1747944990741175
aF-1.885723892842428
aF-1.5028660933123987
aF-1.9367602507220667
aF1.7905162572860718
aF0.31455931067466736
aa(lp633
F0.07644659895085061
aF0.05072682631069825
aF-0.07935220295454595
aF0.0715362473098351
aF0.038295626683008475
aF0.0565544848485065
aa(lp634
(lp635
F-0.0004113410866297872
aF-0.0009175788724466408
aF-0.018835529883020702
aF-0.002788794142911469
aF0.005386886181481464
aF-0.0047682747422175785
aaaF0.6
a(lp636
F-1.447541356086731
aF2.052788019180298
aF-1.8274554014205933
aF1.7866685390472412
aF-1.3030495643615723
aF-3.469078540802002
aF-2.917391300201416
aF-4.3792314529418945
aag9
(g13
S'\x00\xf5u\x9b\xaee\xd3\xbf'
p637
tp638
Rp639
aa(lp640
F7.182260990142822
a(lp641
F-1.174255673085348
aF-1.8871858755694788
aF-1.5084012190448206
aF-1.9322403112994593
aF1.791138768196106
aF0.31460726261138916
aa(lp642
F0.08476493720253662
aF0.012380854744640263
aF-0.008227632845472753
aF0.15560819780404486
aF-0.08327442081517084
aF0.04040496816855313
aa(lp643
(lp644
F-0.00032816853988985065
aF-0.0008956710094403877
aF-0.01873606361305331
aF-0.0027981247457352513
aF0.0053893906849854884
aF-0.004733056034022166
aaaF0.6
a(lp645
F-1.447603702545166
aF2.052755117416382
aF-1.8274770975112915
aF1.7866933345794678
aF-1.3030647039413452
aF-3.4689550399780273
aF-2.9173521995544434
aF-4.37925910949707
aag9
(g13
S"\x0f\xba\xa6\x81'\xfa\xd2\xbf"
p646
tp647
Rp648
aa(lp649
F7.283414840698242
a(lp650
F-1.1734774748431605
aF-1.8888161818133753
aF-1.51410419145693
aF-1.9273365179644983
aF1.791210651397705
aF0.31489524245262146
aa(lp651
F-0.03939749944419762
aF0.033220805287428726
aF-0.07909406112295145
aF0.03242259813807105
aF-0.027334630982535586
aF0.05635694998092661
aa(lp652
(lp653
F-5.5492672479516087e-05
aF-0.0007753323450176768
aF-0.01866033504166942
aF-0.002805775134022395
aF0.005478222020738241
aF-0.004565854841776853
aaaF0.6
a(lp654
F-1.4476395845413208
aF2.052736520767212
aF-1.827481985092163
aF1.7867166996002197
aF-1.303073525428772
aF-3.4689016342163086
aF-2.917336940765381
aF-4.379281520843506
aag9
(g13
S'D>\xb1Y\x99\x86\xd2\xbf'
p655
tp656
Rp657
aa(lp658
F7.385984897613525
a(lp659
F-1.172830883656637
aF-1.8905661741839808
aF-1.5199874083148401
aF-1.9225290457354944
aF1.7912704944610596
aF0.3153150677680969
aa(lp660
F0.03362388525670478
aF-0.04918569401430338
aF-0.14235861626074459
aF0.10695148868204617
aF0.01526376379316335
aF0.04088075706038943
aa(lp661
(lp662
F0.0003343944595414745
aF-0.0006913182600958723
aF-0.01847546119177237
aF-0.002862751339883932
aF0.00564120462795345
aF-0.00430351202268438
aaaF0.6
a(lp663
F-1.4476381540298462
aF2.052743434906006
aF-1.827475666999817
aF1.7867307662963867
aF-1.3030668497085571
aF-3.4689321517944336
aF-2.91733717918396
aF-4.3792805671691895
aag9
(g13
S'\x16\xca\xd1\x170\x13\xd2\xbf'
p664
tp665
Rp666
aa(lp667
F7.4864208698272705
a(lp668
F-1.1724475065814417
aF-1.892280403767721
aF-1.5249236265765589
aF-1.9181645552264612
aF1.7916656732559204
aF0.31545889377593994
aa(lp669
F0.01928050938471138
aF-0.023390544125840025
aF-0.019976474768761153
aF0.09778415236739627
aF-0.030862552650179516
aF-0.11937108569716878
aa(lp670
(lp671
F0.000494831765507203
aF-0.0006632933936732047
aF-0.018353166143595005
aF-0.0028888065130303125
aF0.005693387482020034
aF-0.004201753904664074
aaaF0.6
a(lp672
F-1.447668433189392
aF2.0527310371398926
aF-1.827486276626587
aF1.786747694015503
aF-1.303070306777954
aF-3.4688806533813477
aF-2.9173150062561035
aF-4.379290580749512
aag9
(g13
S'\xf4\xb2\x106&\xae\xd1\xbf'
p673
tp674
Rp675
aa(lp676
F7.588125944137573
a(lp677
F-1.1717055479632776
aF-1.894402329121725
aF-1.529799763356344
aF-1.9134052435504358
aF1.7922765016555786
aF0.3154948353767395
aa(lp678
F-0.04789461043955761
aF0.00468079659366992
aF-0.08505856997392672
aF0.04204475946304016
aF0.007392502374226929
aF0.0333514123731448
aa(lp679
(lp680
F0.00048042558494528154
aF-0.0005048498342558848
aF-0.0184811045789363
aF-0.0027976040941387163
aF0.005627568266374749
aF-0.004242481422361577
aaaF0.6
a(lp681
F-1.4477556943893433
aF2.0526814460754395
aF-1.8275140523910522
aF1.7867798805236816
aF-1.3030955791473389
aF-3.4687042236328125
aF-2.917266845703125
aF-4.379335403442383
aag9
(g13
S'\xba\xc2\x99!kB\xd1\xbf'
p682
tp683
Rp684
aa(lp685
F7.689344882965088
a(lp686
F-1.1708672682391565
aF-1.8964160124408167
aF-1.5347479025470179
aF-1.908849064503805
aF1.7928513288497925
aF0.31548285484313965
aa(lp687
F-0.04040784853766667
aF-0.03829335260256097
aF-0.036786572539563
aF0.13922906738662474
aF0.029450896997208854
aF0.09692382028127151
aa(lp688
(lp689
F0.0005019495935018449
aF-0.0003590953395737665
aF-0.01857625928760673
aF-0.0027200377119630187
aF0.005575899391108988
aF-0.004270021918929287
aaaF0.6
a(lp690
F-1.447851538658142
aF2.0526254177093506
aF-1.8275429010391235
aF1.786815881729126
aF-1.303125262260437
aF-3.4685099124908447
aF-2.917217254638672
aF-4.379387855529785
aag9
(g13
S'\n\xe9(\x0c\x1d\xda\xd0\xbf'
p691
tp692
Rp693
aa(lp694
F7.791289806365967
a(lp695
F-1.1701367537127894
aF-1.898142162953512
aF-1.5396364370929163
aF-1.9043291250811976
aF1.7931865453720093
aF0.3154708743095398
aa(lp696
F0.04629563138613822
aF-2.4853741080611835e-05
aF0.05179590550592875
aF0.08791483554623632
aF-0.001769349857653599
aF0.005962628386830529
aa(lp697
(lp698
F0.0005932148840157331
aF-0.0002642440092119266
aF-0.018575384105946193
aF-0.0026955995426991832
aF0.0055689533668591105
aF-0.004247370035030646
aaaF0.6
a(lp699
F-1.4479360580444336
aF2.0525753498077393
aF-1.8275667428970337
aF1.7868483066558838
aF-1.3031519651412964
aF-3.46834135055542
aF-2.917175769805908
aF-4.379435062408447
aag9
(g13
S'x\xf9\xa6\x1a\x84t\xd0\xbf'
p700
tp701
Rp702
aa(lp703
F7.892910003662109
a(lp704
F-1.1695383230792444
aF-1.8995683828936976
aF-1.5441530386554163
aF-1.9000728766070765
aF1.7935816049575806
aF0.3154708743095398
aa(lp705
F0.10999482547873093
aF0.01716621820736334
aF-0.04543834658682621
aF0.17519437371968422
aF-0.04175434221233264
aF0.018816803878926158
aa(lp706
(lp707
F0.000634413132879712
aF-0.00021407947395558712
aF-0.01854951162855605
aF-0.0026882847197075106
aF0.005549012492651662
aF-0.0042512303189814376
aaaF0.6
a(lp708
F-1.4480143785476685
aF2.0525295734405518
aF-1.8275911808013916
aF1.786876916885376
aF-1.3031760454177856
aF-3.4681811332702637
aF-2.9171342849731445
aF-4.379477500915527
aag9
(g13
S'\rK\x04P\xfe\x16\xd0\xbf'
p709
tp710
Rp711
aa(lp712
F7.994120836257935
a(lp713
F-1.1689518133746546
aF-1.9011271635638636
aF-1.5487292448626917
aF-1.8957327047931116
aF1.7938568592071533
aF0.31545889377593994
aa(lp714
F0.0006010336049426385
aF-0.14908046637797784
aF0.05860329404856268
aF0.1047979235508742
aF-0.007079745017601126
aF0.057083196779994884
aa(lp715
(lp716
F0.0007296346449985579
aF-0.00016094684561804518
aF-0.01849892472668
aF-0.002693686548158671
aF0.005555065553628006
aF-0.0042191304549176415
aaaF0.6
a(lp717
F-1.448088526725769
aF2.0524864196777344
aF-1.8276128768920898
aF1.786905288696289
aF-1.303199052810669
aF-3.4680323600769043
aF-2.9170966148376465
aF-4.379518508911133
aag9
(g13
S'\xf2[~c\xa5o\xcf\xbf'
p718
tp719
Rp720
aa(lp721
F8.095918893814087
a(lp722
F-1.167778793965475
aF-1.9029730002032679
aF-1.5534737745868128
aF-1.8916681448565882
aF1.7941324710845947
aF0.3156989514827728
aa(lp723
F0.057181559749190536
aF-0.023081455556322586
aF0.01216275923851804
aF0.10846828023957979
aF0.030720511171056078
aF-0.004830997883910268
aa(lp724
(lp725
F0.0009282314410805068
aF4.944353830739202e-05
aF-0.018590555485447604
aF-0.0026270516876197372
aF0.005592318974025229
aF-0.004133197339902216
aaaF0.6
a(lp726
F-1.44816255569458
aF2.052441358566284
aF-1.8276273012161255
aF1.7869391441345215
aF-1.3032244443893433
aF-3.467895984649658
aF-2.9170680046081543
aF-4.3795671463012695
aag9
(g13
S'\x1f\xa7\xbdP\xe2\xb2\xce\xbf'
p727
tp728
Rp729
aa(lp730
F8.197911024093628
a(lp731
F-1.166976277028219
aF-1.9046152273761194
aF-1.5577991644488733
aF-1.8879874388324183
aF1.7948029041290283
aF0.3158787190914154
aa(lp732
F-0.018172266984242232
aF0.0026301981347872025
aF0.03669763592429556
aF0.14867321481233725
aF-0.06107636783338445
aF-0.011848288604006017
aa(lp733
(lp734
F0.000990875371616174
aF0.00015593588351957337
aF-0.018624030951854005
aF-0.002586529467051581
aF0.005583333906070199
aF-0.004119656209339626
aaaF0.6
a(lp735
F-1.4482263326644897
aF2.052405834197998
aF-1.8276466131210327
aF1.7869651317596436
aF-1.3032420873641968
aF-3.467770576477051
aF-2.917032480239868
aF-4.379599571228027
aag9
(g13
S':s\xf1\xe9@\x0b\xce\xbf'
p736
tp737
Rp738
aa(lp739
F8.298281908035278
a(lp740
F-1.1664493719684046
aF-1.9059699217425745
aF-1.5618603865252894
aF-1.884150807057516
aF1.795401692390442
aF0.3159506022930145
aa(lp741
F-0.055346090083006935
aF-0.04438019124305512
aF-0.0035608948275058887
aF0.20234032373694572
aF-0.04877019923101505
aF0.05500439883977789
aa(lp742
(lp743
F0.0009814342195555194
aF0.000197222248748269
aF-0.018613232616150895
aF-0.0025804325719532804
aF0.005549511256989091
aF-0.004146086504595917
aaaF0.6
a(lp744
F-1.4482933282852173
aF2.0523681640625
aF-1.8276704549789429
aF1.7869884967803955
aF-1.3032605648040771
aF-3.4676308631896973
aF-2.916992664337158
aF-4.379631042480469
aag9
(g13
S'?\xf6\xdar\xe4f\xcd\xbf'
p745
tp746
Rp747
aa(lp748
F8.399077892303467
a(lp749
F-1.1658509413348597
aF-1.9072049299823206
aF-1.5660179297076624
aF-1.880686108266012
aF1.7957608699798584
aF0.3160105347633362
aa(lp750
F-0.09560829444269381
aF0.0012569159489451628
aF-0.004272655832632033
aF0.18437666827494736
aF0.009239878987613977
aF0.0011323021704372459
aa(lp751
(lp752
F0.0011237233791991062
aF0.00023178893419118927
aF-0.018517172572239445
aF-0.00261611516472634
aF0.005591246032381285
aF-0.004078051912238411
aaaF0.6
a(lp753
F-1.448350429534912
aF2.052335500717163
aF-1.8276866674423218
aF1.7870118618011475
aF-1.303277850151062
aF-3.4675190448760986
aF-2.916963577270508
aF-4.37966251373291
aag9
(g13
S'4\x8b\x84\x11\t\xce\xcc\xbf'
p754
tp755
Rp756
aa(lp757
F8.500298023223877
a(lp758
F-1.165527645741598
aF-1.9082353750811976
aF-1.5701153914081019
aF-1.8771851698504847
aF1.7964675426483154
aF0.31604647636413574
aa(lp759
F0.04877005281740007
aF-0.060323561530739214
aF-0.13033762467751459
aF0.059068886482100603
aF0.008661210674619262
aF0.02824154731326356
aa(lp760
(lp761
F0.0011318321160014952
aF0.00018147078201441677
aF-0.0183797378957882
aF-0.002671939122983968
aF0.005582984316983018
aF-0.004083835828693148
aaaF0.6
a(lp762
F-1.4484041929244995
aF2.052307367324829
aF-1.8277088403701782
aF1.787029504776001
aF-1.3032902479171753
aF-3.467404842376709
aF-2.9169259071350098
aF-4.379683017730713
aag9
(g13
S'p\xb3\xf2\x80\xe19\xcc\xbf'
p763
tp764
Rp765
aa(lp766
F8.60141396522522
a(lp767
F-1.165072266255514
aF-1.9092782179461878
aF-1.57422382036318
aF-1.8732288519488733
aF1.7971019744873047
aF0.3160105347633362
aa(lp768
F0.0458987763442455
aF0.02383643184626094
aF-0.011053635392987746
aF0.2001567770901157
aF-0.05880776109576778
aF0.037337475366834724
aa(lp769
(lp770
F0.001059056335393633
aF0.00015237063778267924
aF-0.018315708023413285
aF-0.002691516073352896
aF0.005520835742829042
aF-0.004158761267658279
aaaF0.6
a(lp771
F-1.4484899044036865
aF2.0522572994232178
aF-1.8277403116226196
aF1.7870559692382812
aF-1.3033158779144287
aF-3.467219591140747
aF-2.9168758392333984
aF-4.379724025726318
aag9
(g13
S'\x9f\x08\x0fd\x80\x99\xcb\xbf'
p772
tp773
Rp774
aa(lp775
F8.701942920684814
a(lp776
F-1.1645100752459925
aF-1.9101174513446253
aF-1.5780819098102015
aF-1.8696678320514124
aF1.7974615097045898
aF0.31625059247016907
aa(lp777
F0.006880779088375061
aF-0.09255322447568111
aF-0.1235073451848907
aF-0.03740835477163859
aF-0.03480812365301904
aF-0.0336235474760379
aa(lp778
(lp779
F0.0011387276802627914
aF0.00015542065603057527
aF-0.01822353282096396
aF-0.0027254516401871336
aF0.0055451520057093525
aF-0.004123125571326013
aaaF0.6
a(lp780
F-1.448534369468689
aF2.0522327423095703
aF-1.827754259109497
aF1.7870736122131348
aF-1.303328275680542
aF-3.4671316146850586
aF-2.916851043701172
aF-4.379746913909912
aag9
(g13
S'Ti\xc7\xb0L\x07\xcb\xbf'
p781
tp782
Rp783
aa(lp784
F8.8032968044281
a(lp785
F-1.1639469305621546
aF-1.911340061818258
aF-1.5822871367083948
aF-1.866143051777975
aF1.7978562116622925
aF0.31635844707489014
aa(lp786
F-0.0015342765971396877
aF-0.09954281990366318
aF-0.02690543756623697
aF0.06334686128663307
aF0.01642081523651631
aF0.11560678076264685
aa(lp787
(lp788
F0.0012947588206522283
aF0.0001782131162589197
aF-0.018100463544911925
aF-0.0027814574648404276
aF0.0056016036365119735
aF-0.004040027212852453
aaaF0.6
a(lp789
F-1.4485840797424316
aF2.0522050857543945
aF-1.8277686834335327
aF1.7870943546295166
aF-1.3033422231674194
aF-3.4670352935791016
aF-2.9168243408203125
aF-4.379772663116455
aag9
(g13
S"\x1d\xa8\xac'er\xca\xbf"
p790
tp791
Rp792
aa(lp793
F8.904330968856812
a(lp794
F-1.1630609671222132
aF-1.912442986165182
aF-1.5860489050494593
aF-1.8628218809710901
aF1.7982157468795776
aF0.31635844707489014
aa(lp795
F0.04484508767601001
aF0.07126891360318183
aF0.08982105611426561
aF0.1264070253188883
aF-0.007003054704289748
aF0.04797735753805134
aa(lp796
(lp797
F0.0013422665040187355
aF0.00026231083468431356
aF-0.018125370503612775
aF-0.002761991389627777
aF0.005578967995596481
aF-0.004058524101378509
aaaF0.6
a(lp798
F-1.4486808776855469
aF2.052144765853882
aF-1.8277949094772339
aF1.7871284484863281
aF-1.30337655544281
aF-3.4668362140655518
aF-2.916780710220337
aF-4.379831314086914
aag9
(g13
S'?\x94k\xc83\xe9\xc9\xbf'
p799
tp800
Rp801
aa(lp802
F9.004922866821289
a(lp803
F-1.1623309294330042
aF-1.9137137571917933
aF-1.5895589033709925
aF-1.8599565664874476
aF1.7986947298049927
aF0.31629854440689087
aa(lp804
F-0.0034100003855468495
aF-0.008676945151598413
aF-0.01825030724826084
aF0.0829747582946456
aF0.006692496605059783
aF0.08762376028762263
aa(lp805
(lp806
F0.0014034993216617208
aF0.0003312591934175866
aF-0.018122022728365765
aF-0.002756036867393487
aF0.005568822683672892
aF-0.00405945035509664
aaaF0.6
a(lp807
F-1.4487645626068115
aF2.052093744277954
aF-1.8278191089630127
aF1.787158489227295
aF-1.3034045696258545
aF-3.4666647911071777
aF-2.916740655899048
aF-4.379879951477051
aag9
(g13
S'R\ns\x18\x8fp\xc9\xbf'
p808
tp809
Rp810
aa(lp811
F9.105861902236938
a(lp812
F-1.1616242567645472
aF-1.9148042837726038
aF-1.592984978352682
aF-1.8567073980914515
aF1.798922061920166
aF0.3161906898021698
aa(lp813
F-0.01678066569425637
aF-0.045144893210581793
aF-0.03196232370973491
aF0.12164926343786525
aF-0.05945050472810326
aF0.03003614460163597
aa(lp814
(lp815
F0.0014423317166041868
aF0.00038255127146033556
aF-0.01811611104318743
aF-0.002753831640504126
aF0.005545075860291206
aF-0.004081653865266014
aaaF0.6
a(lp816
F-1.4488617181777954
aF2.052032947540283
aF-1.8278460502624512
aF1.78719162940979
aF-1.3034393787384033
aF-3.466463088989258
aF-2.9166970252990723
aF-4.37993860244751
aag9
(g13
S'k*7\x08\xad\xef\xc8\xbf'
p817
tp818
Rp819
aa(lp820
F9.208753824234009
a(lp821
F-1.1611092726336878
aF-1.9155953566180628
aF-1.596351448689596
aF-1.8532303015338343
aF1.7991976737976074
aF0.31617867946624756
aa(lp822
F-0.04919858639144348
aF0.015175349450763577
aF0.05756692127046713
aF0.05543775070192515
aF-0.00576328340790054
aF0.03572781266738612
aa(lp823
(lp824
F0.001422076333567942
aF0.00037447703185382016
aF-0.018068123308744875
aF-0.002772556363170532
aF0.0055082941290096644
aF-0.004127266811003063
aaaF0.6
a(lp825
F-1.4489434957504272
aF2.051982879638672
aF-1.8278719186782837
aF1.7872178554534912
aF-1.3034671545028687
aF-3.4662890434265137
aF-2.916656017303467
aF-4.379984378814697
aag9
(g13
S'\xbey\r1\x9al\xc8\xbf'
p826
tp827
Rp828
aa(lp829
F9.311113834381104
a(lp830
F-1.160654369984762
aF-1.916398827229635
aF-1.5998857657061976
aF-1.8499696890460413
aF1.7997602224349976
aF0.3163944184780121
aa(lp831
F0.07303805458545773
aF0.005169536033606224
aF-0.051816626824769764
aF0.11188693655844623
aF0.1385740690282022
aF0.04249715289320259
aa(lp832
(lp833
F0.001436531540545029
aF0.0003553971632459537
aF-0.017979305913133393
aF-0.0028107119915708203
aF0.005507431526425077
aF-0.004127769440212327
aaaF0.6
a(lp834
F-1.4489864110946655
aF2.051959991455078
aF-1.8278884887695312
aF1.7872328758239746
aF-1.3034775257110596
aF-3.4661996364593506
aF-2.9166274070739746
aF-4.380002021789551
aag9
(g13
S',+o\x83)\xf0\xc7\xbf'
p835
tp836
Rp837
aa(lp838
F9.412385940551758
a(lp839
F-1.159936253224508
aF-1.9174774328814905
aF-1.6030004660235804
aF-1.8468759695636194
aF1.800035834312439
aF0.316741943359375
aa(lp840
F0.09211492062174763
aF0.03955509654953375
aF-0.05197671205804155
aF0.0621659146453474
aF-0.03536471424894295
aF0.011244207165725837
aa(lp841
(lp842
F0.001535369976415577
aF0.0004468802379734002
aF-0.017998602056763062
aF-0.0027969023499465526
aF0.0055362439774672345
aF-0.004080520918335673
aaaF0.6
a(lp843
F-1.4490224123001099
aF2.0519394874572754
aF-1.8278967142105103
aF1.7872495651245117
aF-1.3034883737564087
aF-3.4661338329315186
aF-2.9166107177734375
aF-4.38002347946167
aag9
(g13
S'x\x11#\xa5\x15w\xc7\xbf'
p844
tp845
Rp846
aa(lp847
F9.51484990119934
a(lp848
F-1.1594694296466272
aF-1.9184368292437952
aF-1.606786076222555
aF-1.843698803578512
aF1.8002991676330566
aF0.31697002053260803
aa(lp849
F0.06659678532630914
aF-0.04236315002353744
aF0.07135109717546406
aF0.167155337808489
aF-0.11467519478498839
aF-0.037278645450033024
aa(lp850
(lp851
F0.0017519941757578436
aF0.00043803263408906076
aF-0.017814436454487097
aF-0.002886757466154472
aF0.005639630658091162
aF-0.0039480076773951945
aaaF0.6
a(lp852
F-1.449044942855835
aF2.0519285202026367
aF-1.8279021978378296
aF1.7872626781463623
aF-1.3034929037094116
aF-3.4660964012145996
aF-2.916598081588745
aF-4.38003396987915
aag9
(g13
S'ym\x86v\x9d\xfc\xc6\xbf'
p853
tp854
Rp855
aa(lp856
F9.61615800857544
a(lp857
F-1.1588109175311487
aF-1.9191201368915003
aF-1.6107514540301722
aF-1.8403661886798304
aF1.800814151763916
aF0.3170778751373291
aa(lp858
F0.018433895859954294
aF-0.14739966702832544
aF0.0018948729140346402
aF0.15175046927861735
aF-0.006960250607340299
aF0.013460602562049891
aa(lp859
(lp860
F0.0018075959053171996
aF0.00041898491251526914
aF-0.017697906975008264
aF-0.002943123649268905
aF0.0056488237726844154
aF-0.0039413680959889215
aaaF0.6
a(lp861
F-1.4491167068481445
aF2.0518858432769775
aF-1.8279249668121338
aF1.7872869968414307
aF-1.303515911102295
aF-3.465946674346924
aF-2.916560649871826
aF-4.380073070526123
aag9
(g13
S'\xde\xe8w)\x14\x83\xc6\xbf'
p862
tp863
Rp864
aa(lp865
F9.716256856918335
a(lp866
F-1.1582000891314905
aF-1.919995133076803
aF-1.614117447529928
aF-1.837428394948141
aF1.8013410568237305
aF0.3171018362045288
aa(lp867
F0.014351704695400907
aF0.0007672985433721663
aF-0.10950817579379664
aF0.04155877228437959
aF-0.05368243616452665
aF-0.043954701069314664
aa(lp868
(lp869
F0.001815512573114207
aF0.00042652868028553593
aF-0.01764762108903917
aF-0.002965248666278903
aF0.005627903393054495
aF-0.003967587199043687
aaaF0.6
a(lp870
F-1.4491924047470093
aF2.0518405437469482
aF-1.8279492855072021
aF1.7873120307922363
aF-1.3035404682159424
aF-3.465786933898926
aF-2.916520595550537
aF-4.38011360168457
aag9
(g13
S"':\x9c\x98\xce\x18\xc6\xbf"
p871
tp872
Rp873
aa(lp874
F9.81737494468689
a(lp875
F-1.157673184071676
aF-1.9209421316729944
aF-1.617255989705221
aF-1.834766689931051
aF1.801772117614746
aF0.31711384654045105
aa(lp876
F-0.05447593200910153
aF-0.058625372178585676
aF0.03303639516568674
aF-0.01757323670773553
aF-0.05424321701970976
aF0.020595348241164234
aa(lp877
(lp878
F0.0018791666091941357
aF0.00043546128337143433
aF-0.017572839409763355
aF-0.0030003912902532995
aF0.005638465290618418
aF-0.0039525244414567754
aaaF0.6
a(lp879
F-1.449254035949707
aF2.0518040657043457
aF-1.8279684782028198
aF1.7873339653015137
aF-1.3035598993301392
aF-3.4656598567962646
aF-2.9164888858795166
aF-4.3801469802856445
aag9
(g13
S'g\xe5\n<\x9b\xb8\xc5\xbf'
p880
tp881
Rp882
aa(lp883
F9.917589902877808
a(lp884
F-1.1574934164630335
aF-1.9216011206256312
aF-1.6200111548053187
aF-1.8322013060199183
aF1.8019994497299194
aF0.3171258270740509
aa(lp885
F0.0510442004422209
aF0.04750122610945022
aF-0.02115894342102525
aF0.049466953482524126
aF-0.02197291236253639
aF0.05780090683882986
aa(lp886
(lp887
F0.001959476439223987
aF0.00037007400350218636
aF-0.01740569341120372
aF-0.00307924332104259
aF0.005676595227991846
aF-0.003910459418955627
aaaF0.6
a(lp888
F-1.4492881298065186
aF2.051785469055176
aF-1.827980875968933
aF1.7873458862304688
aF-1.3035690784454346
aF-3.4655895233154297
aF-2.9164679050445557
aF-4.380162715911865
aag9
(g13
S's_\xf7\xc6j`\xc5\xbf'
p889
tp890
Rp891
aa(lp892
F10.019125938415527
a(lp893
F-1.157182518635885
aF-1.9225242773639124
aF-1.62282640138735
aF-1.8292396704303187
aF1.8024427890777588
aF0.31711384654045105
aa(lp894
F-0.05636240874302413
aF-0.039742023264993584
aF-0.02144092133227863
aF0.04017625000004523
aF-0.059916827535681054
aF0.07352487861805751
aa(lp895
(lp896
F0.001908930411396761
aF0.0003459726002436914
aF-0.01735255866621886
aF-0.003103680614285855
aF0.005634482415963819
aF-0.003959932481375428
aaaF0.6
a(lp897
F-1.4493498802185059
aF2.0517497062683105
aF-1.8280036449432373
aF1.7873647212982178
aF-1.3035871982574463
aF-3.465456008911133
aF-2.916431427001953
aF-4.380191802978516
aag9
(g13
S'e\xbby\x98H\xfc\xc4\xbf'
p898
tp899
Rp900
aa(lp901
F10.120483875274658
a(lp902
F-1.1565960089312952
aF-1.9236272017108362
aF-1.6255577246295374
aF-1.8265059630023401
aF1.8028498888015747
aF0.3171258270740509
aa(lp903
F0.046677177499496174
aF0.01310321757008577
aF0.042637123886696215
aF0.07031813529832133
aF-0.027298351096166285
aF-0.02637279614152757
aa(lp904
(lp905
F0.0018975515522716513
aF0.00039195355142524363
aF-0.017372384221112678
aF-0.003090998106735107
aF0.005598970943941862
aF-0.003998573633461058
aaaF0.6
a(lp906
F-1.4494233131408691
aF2.0517051219940186
aF-1.8280260562896729
aF1.7873895168304443
aF-1.3036116361618042
aF-3.4653024673461914
aF-2.9163942337036133
aF-4.380232810974121
aag9
(g13
S'\x03]%\x94\n\x9e\xc4\xbf'
p907
tp908
Rp909
aa(lp910
F10.2223379611969
a(lp911
F-1.1562126318561
aF-1.9241903463946741
aF-1.6281569639789026
aF-1.8240121046649378
aF1.8032690286636353
aF0.3171018362045288
aa(lp912
F-0.08508246372878832
aF0.07978047140637362
aF0.0508823586488406
aF0.14451707175490747
aF0.006535601634227169
aF0.034649578972626986
aa(lp913
(lp914
F0.0018491934860494297
aF0.0003536717063815938
aF-0.017309169382549016
aF-0.0031174873787255136
aF0.005558511983708329
aF-0.004054919952845991
aaaF0.6
a(lp915
F-1.4494898319244385
aF2.0516650676727295
aF-1.8280493021011353
aF1.7874093055725098
aF-1.303633213043213
aF-3.465157985687256
aF-2.91635799407959
aF-4.380267143249512
aag9
(g13
S'\x143\x91\xd9\x85N\xc4\xbf'
p916
tp917
Rp918
aa(lp919
F10.323352813720703
a(lp920
F-1.1559250990497034
aF-1.9249580542193812
aF-1.631092373524801
aF-1.8212907950030726
aF1.8038074970245361
aF0.31716176867485046
aa(lp921
F0.00027181117151044935
aF0.002577303477868099
aF0.003918953052344984
aF0.051028088464483375
aF0.04400969663666168
aF0.03766640445043491
aa(lp922
(lp923
F0.0018417145753987407
aF0.0003087006833172188
aF-0.01720163830949657
aF-0.0031710834797025527
aF0.005548721488126731
aF-0.004068634287374788
aaaF0.6
a(lp924
F-1.4495353698730469
aF2.051640272140503
aF-1.8280677795410156
aF1.787423849105835
aF-1.3036446571350098
aF-3.465059757232666
aF-2.916327714920044
aF-4.380285739898682
aag9
(g13
S'*U\xc0\xfbB\xf8\xc3\xbf'
p925
tp926
Rp927
aa(lp928
F10.424564838409424
a(lp929
F-1.1556738058673304
aF-1.9259408156024378
aF-1.633763615285055
aF-1.8185332457171839
aF1.8043943643569946
aF0.31720972061157227
aa(lp930
F0.060447579713804184
aF-0.06180535131933064
aF-0.01498241087536668
aF0.05533637390952785
aF0.019637211390399333
aF-0.07896269348872852
aa(lp931
(lp932
F0.0017806992862002212
aF0.0002747892878134117
aF-0.01714225957394462
aF-0.0031953980348717664
aF0.005509082981698692
aF-0.004116855735657008
aaaF0.6
a(lp933
F-1.4495826959609985
aF2.051614999771118
aF-1.8280879259109497
aF1.787437915802002
aF-1.3036562204360962
aF-3.464956045150757
aF-2.916294813156128
aF-4.380303382873535
aag9
(g13
S'm;\x9e P\xa1\xc3\xbf'
p934
tp935
Rp936
aa(lp937
F10.524662017822266
a(lp938
F-1.1555779615985315
aF-1.926983658467428
aF-1.6361239592181605
aF-1.816075627003805
aF1.8050411939620972
aF0.3174377977848053
aa(lp939
F0.010688377538770354
aF-0.045144989532142
aF-0.029071638008383936
aF0.09477046815129689
aF0.07588641639840989
aF-0.023286135426820863
aa(lp940
(lp941
F0.0017572650751794983
aF0.00024245646093560736
aF-0.017067635596600846
aF-0.0032261784477492163
aF0.005505244866228066
aF-0.004117826359052058
aaaF0.6
a(lp942
F-1.4495863914489746
aF2.051619052886963
aF-1.8280963897705078
aF1.7874398231506348
aF-1.3036500215530396
aF-3.4649477005004883
aF-2.9162790775299072
aF-4.380292892456055
aag9
(g13
S'\xd3\xec\x05.gS\xc3\xbf'
p943
tp944
Rp945
aa(lp946
F10.625699996948242
a(lp947
F-1.155158821736471
aF-1.9278467337237757
aF-1.638758961354391
aF-1.8134258429156702
aF1.805604100227356
aF0.3175576329231262
aa(lp948
F0.12480744732695163
aF0.09982598783814149
aF-0.15344494557495797
aF0.05565157732969122
aF0.015378323394337123
aF0.07526072109363904
aa(lp949
(lp950
F0.0017068986823757261
aF0.00023824279137860948
aF-0.017043067282780166
aF-0.003235161460370897
aF0.005467186216545647
aF-0.004164630876990126
aaaF0.6
a(lp951
F-1.449637532234192
aF2.0515902042388916
aF-1.8281158208847046
aF1.7874560356140137
aF-1.3036640882492065
aF-3.4648382663726807
aF-2.9162473678588867
aF-4.380315780639648
aag9
(g13
S'\xb3\x0c\xff\x08\xf9\x97\xd3\xbf'
p952
tp953
Rp954
aa(lp955
F10.725874900817871
a(lp956
F-1.1538899580584925
aF-1.9270675818072718
aF-1.6428559462176722
aF-1.8113873640643519
aF1.8062504529953003
aF0.3179055452346802
aa(lp957
F0.00041341229182598194
aF0.02851362920698057
aF-0.07275142741341147
aF0.007537533162577929
aF-0.07083717177736304
aF0.07703137304353075
aa(lp958
(lp959
F0.0018350783471710345
aF0.00022342388552380328
aF-0.016896445600503074
aF-0.0033192209997659284
aF0.005518221963995152
aF-0.004134379522835799
aaaF0.6
a(lp960
F-1.4497203826904297
aF2.0515360832214355
aF-1.8281363248825073
aF1.7874844074249268
aF-1.3036961555480957
aF-3.4646658897399902
aF-2.9162139892578125
aF-4.380369663238525
aag9
(g13
S'a\x90\xfd\x8b+U\xd3\xbf'
p961
tp962
Rp963
aa(lp964
F10.827986001968384
a(lp965
F-1.152153793965475
aF-1.923830811177389
aF-1.6489766279803675
aF-1.809289280568258
aF1.8075675964355469
aF0.31923654675483704
aa(lp966
F0.035729264670039125
aF0.12458047277655826
aF-0.0058045584630957575
aF0.020874101160167476
aF-0.019944083126192565
aF-0.010215937178560286
aa(lp967
(lp968
F0.00204911536967597
aF8.421209205646855e-05
aF-0.01651020884712429
aF-0.0035427224001411597
aF0.005676300756002337
aF-0.0040093708562012045
aaaF0.6
a(lp969
F-1.4497309923171997
aF2.0515291690826416
aF-1.8281381130218506
aF1.787489652633667
aF-1.3037002086639404
aF-3.4646458625793457
aF-2.9162092208862305
aF-4.38037633895874
aag9
(g13
S'\xe9\x03\x7f\xee\xe6\xdf\xd2\xbf'
p970
tp971
Rp972
aa(lp973
F10.928514957427979
a(lp974
F-1.1505373159991663
aF-1.9204266707049769
aF-1.6549304167376917
aF-1.8071911970721644
aF1.8085016012191772
aF0.32041212916374207
aa(lp975
F0.07264438718509855
aF0.16108045788429232
aF-0.125260545915849
aF0.06943914012403761
aF-0.0771176731585805
aF0.10637433573222282
aa(lp976
(lp977
F0.0023276600955018578
aF-9.110241563958962e-05
aF-0.016056922015440313
aF-0.0037978285986828434
aF0.005866616711529038
aF-0.0038517660517070635
aaaF0.6
a(lp978
F-1.4497491121292114
aF2.0515153408050537
aF-1.8281394243240356
aF1.7874970436096191
aF-1.3037093877792358
aF-3.464611053466797
aF-2.916206121444702
aF-4.380391597747803
aag9
(g13
S'\x00\xe8\x18(ql\xd2\xbf'
p979
tp980
Rp981
aa(lp982
F11.030550956726074
a(lp983
F-1.1487653891192835
aF-1.91673452058901
aF-1.6606205145465296
aF-1.8055008093463343
aF1.809064507484436
aF0.3218633234500885
aa(lp984
F0.07478229077974191
aF0.1641535301731939
aF-0.01568162225106018
aF-0.05747078513781692
aF-0.005359578726269441
aF-0.10428849390121575
aa(lp985
(lp986
F0.002792332537918228
aF-0.00021176612173384417
aF-0.015589620477348437
aF-0.0040645065803939905
aF0.0061607325006026135
aF-0.003566153430607421
aaaF0.6
a(lp987
F-1.4497276544570923
aF2.0515248775482178
aF-1.8281221389770508
aF1.78749680519104
aF-1.3037073612213135
aF-3.4646706581115723
aF-2.9162304401397705
aF-4.380392074584961
aag9
(g13
S'v\x9f\xfa\x96v\xf9\xd1\xbf'
p988
tp989
Rp990
aa(lp991
F11.133221864700317
a(lp992
F-1.146921459828512
aF-1.9130781332599085
aF-1.66579515138735
aF-1.803690258656637
aF1.8099266290664673
aF0.3232302963733673
aa(lp993
F0.034876082658015645
aF0.09351153753505644
aF-0.005925158828044286
aF0.015936260497410246
aF0.030661929063451207
aF0.05531020444506853
aa(lp994
(lp995
F0.0029852162637910096
aF-0.0003186915619714292
aF-0.015290974178173846
aF-0.004238507546814123
aF0.006303322984470025
aF-0.003469000956082226
aaaF0.6
a(lp996
F-1.449747920036316
aF2.0515081882476807
aF-1.8281221389770508
aF1.7875046730041504
aF-1.3037196397781372
aF-3.464630603790283
aF-2.9162299633026123
aF-4.380412578582764
aag9
(g13
S'\xba\x827_.\x8b\xd1\xbf'
p997
tp998
Rp999
aa(lp1000
F11.234099864959717
a(lp1001
F-1.144766632710592
aF-1.9093740622149866
aF-1.6714251677142542
aF-1.8018320242511194
aF1.8111358880996704
aF0.3245137333869934
aa(lp1002
F0.12639119899374784
aF0.05737940052484251
aF-0.19705000443860488
aF0.021428533880712978
aF0.050861943923306875
aF-0.022169494580120686
aa(lp1003
(lp1004
F0.0030820863975072597
aF-0.00040938984856495774
aF-0.015048602171859209
aF-0.0043882803356607315
aF0.006376235852438892
aF-0.003453738421071213
aaaF0.6
a(lp1005
F-1.4498131275177002
aF2.051462411880493
aF-1.8281368017196655
aF1.787524700164795
aF-1.303748369216919
aF-3.4644908905029297
aF-2.9162075519561768
aF-4.380458354949951
aag9
(g13
S'\xe2\xe6q\xa8^\x17\xd1\xbf'
p1006
tp1007
Rp1008
aa(lp1009
F11.334895849227905
a(lp1010
F-1.142623249684469
aF-1.906269375477926
aF-1.6763718763934534
aF-1.8003934065448206
aF1.81248939037323
aF0.32538893818855286
aa(lp1011
F0.0009759695577801764
aF0.178919305719681
aF-0.09188820970652799
aF0.06182848094685408
aF0.045797583962642455
aF0.08397260552143017
aa(lp1012
(lp1013
F0.003029751490726781
aF-0.0004652031081556447
aF-0.014935229153391643
aF-0.004466262576143331
aF0.006348650717249937
aF-0.003562380532441535
aaaF0.6
a(lp1014
F-1.449931263923645
aF2.0513827800750732
aF-1.8281689882278442
aF1.7875590324401855
aF-1.303796410560608
aF-3.464232921600342
aF-2.916159152984619
aF-4.380534648895264
aag9
(g13
S'\xba\xc5\xa2\xd0\x0f\xb5\xd0\xbf'
p1015
tp1016
Rp1017
aa(lp1018
F11.434964895248413
a(lp1019
F-1.1404321829425257
aF-1.90273362794985
aF-1.6816428343402308
aF-1.7990263144122522
aF1.8137586116790771
aF0.32669597864151
aa(lp1020
F0.05459944390684553
aF0.14421591205113582
aF-0.11839819527516884
aF0.030100880187041195
aF-0.05994149468234096
aF0.06551559712906911
aa(lp1021
(lp1022
F0.0031530391360739362
aF-0.0005216107735393769
aF-0.014725033664185342
aF-0.004599416801510336
aF0.006434115390459392
aF-0.0035269288222961642
aaaF0.6
a(lp1023
F-1.4499868154525757
aF2.0513434410095215
aF-1.8281798362731934
aF1.7875773906707764
aF-1.3038214445114136
aF-3.4641165733337402
aF-2.9161417484283447
aF-4.380575180053711
aag9
(g13
S'\xae\\\x97N\xe2I\xd0\xbf'
p1024
tp1025
Rp1026
aa(lp1027
F11.537153959274292
a(lp1028
F-1.1384685675250452
aF-1.8991730848895472
aF-1.686601463948385
aF-1.7975519339190882
aF1.8151355981826782
aF0.3280393183231354
aa(lp1029
F0.03232538890442596
aF0.10133635980031447
aF-0.14094906769528862
aF0.03836124739896946
aF-0.006733929808948347
aF0.04530120653592878
aa(lp1030
(lp1031
F0.003172827532798626
aF-0.0006169035017993225
aF-0.014525331604648048
aF-0.0047211736122116646
aF0.006479590458255799
aF-0.003546261991165649
aaaF0.6
a(lp1032
F-1.4500296115875244
aF2.051313877105713
aF-1.8281911611557007
aF1.7875890731811523
aF-1.3038395643234253
aF-3.464021682739258
aF-2.9161243438720703
aF-4.380602836608887
aag9
(g13
S'\x8f\xfa\xb3\x9ec\xc3\xcf\xbf'
p1033
tp1034
Rp1035
aa(lp1036
F11.637776851654053
a(lp1037
F-1.1366365591632288
aF-1.896008316670553
aF-1.6911771933185022
aF-1.796316925679342
aF1.8163208961486816
aF0.3292025625705719
aa(lp1038
F0.0027785068120038045
aF0.020023712482606787
aF-0.02628559132657122
aF0.0785630460601214
aF-0.058003371779182224
aF0.10140777035553866
aa(lp1039
(lp1040
F0.0032485602292323555
aF-0.000698674133894985
aF-0.014321507918067964
aF-0.004841637293302899
aF0.006548022646282071
aF-0.00353421575302539
aaaF0.6
a(lp1041
F-1.4500732421875
aF2.051283121109009
aF-1.8282012939453125
aF1.7876026630401611
aF-1.3038586378097534
aF-3.4639275074005127
aF-2.9161086082458496
aF-4.3806328773498535
aag9
(g13
S'=za-\xaa\x08\xcf\xbf'
p1042
tp1043
Rp1044
aa(lp1045
F11.738765954971313
a(lp1046
F-1.134493652974264
aF-1.8928077856646937
aF-1.6963875929461878
aF-1.7951415220843714
aF1.8169437646865845
aF0.33045002818107605
aa(lp1047
F-0.0068495752053555625
aF0.12857505797311425
aF-0.058444800559082404
aF0.12747445103941807
aF0.015370493418442509
aF0.08606522189311491
aa(lp1048
(lp1049
F0.0036987679746618325
aF-0.0007243030542182578
aF-0.013989892562015011
aF-0.0050384487438238194
aF0.006801463929207886
aF-0.003287633956214723
aaaF0.6
a(lp1050
F-1.450101613998413
aF2.0512588024139404
aF-1.8281954526901245
aF1.787618637084961
aF-1.303877353668213
aF-3.4638824462890625
aF-2.9161152839660645
aF-4.3806681632995605
aag9
(g13
S'\xc6}v\xbaQ@\xce\xbf'
p1051
tp1052
Rp1053
aa(lp1054
F11.83914589881897
a(lp1055
F-1.1326730887042444
aF-1.8897269407855433
aF-1.7012746969806116
aF-1.7941587607013147
aF1.8173508644104004
aF0.33172109723091125
aa(lp1056
F0.004517045141325796
aF0.10684044520970168
aF0.07089461275151851
aF0.06217276713892172
aF-0.1032030005815924
aF0.05847218489926758
aa(lp1057
(lp1058
F0.0042651329352875215
aF-0.000779116799482688
aF-0.01357232566840718
aF-0.0052726372319554975
aF0.007132879508027578
aF-0.0029465019451944
aaaF0.6
a(lp1059
F-1.4500877857208252
aF2.051262140274048
aF-1.828176736831665
aF1.7876229286193848
aF-1.3038796186447144
aF-3.463931083679199
aF-2.916140556335449
aF-4.380677223205566
aag9
(g13
S'\xcb\xa7\xbf\xa3\xb1\x85\xcd\xbf'
p1060
tp1061
Rp1062
aa(lp1063
F11.941082000732422
a(lp1064
F-1.1310213247882288
aF-1.8870418707477015
aF-1.7057908217059534
aF-1.7934158484088343
aF1.8178058862686157
aF0.3328004479408264
aa(lp1065
F-0.014948322554743071
aF0.08034507774074734
aF-0.07903684457288676
aF0.04809967755061212
aF-0.028460646603773905
aF-0.009058217243409286
aa(lp1066
(lp1067
F0.00480567759332481
aF-0.0008316358443149452
aF-0.013173440138320674
aF-0.005494383793457026
aF0.00744639621308568
aF-0.0026225904103042907
aaaF0.6
a(lp1068
F-1.4500796794891357
aF2.051262617111206
aF-1.8281614780426025
aF1.7876286506652832
aF-1.3038829565048218
aF-3.46396541595459
aF-2.916161060333252
aF-4.380687713623047
aag9
(g13
S'\x82\x8c\xef\xb6 \xe1\xcc\xbf'
p1069
tp1070
Rp1071
aa(lp1072
F12.043007850646973
a(lp1073
F-1.1294644514666956
aF-1.884488884602682
aF-1.7101500670062464
aF-1.792168442402975
aF1.8187038898468018
aF0.33384382724761963
aa(lp1074
F-0.015373879083876586
aF0.06607595473605837
aF-0.14505045874401262
aF-0.038089990199058246
aF-0.0985469058463052
aF0.04907395197263915
aa(lp1075
(lp1076
F0.005040954133927909
aF-0.0009114314279352249
aF-0.012893544106582092
aF-0.005651055832230464
aF0.007599965464087556
aF-0.002494604266922498
aaaF0.6
a(lp1077
F-1.4500982761383057
aF2.051248788833618
aF-1.8281623125076294
aF1.7876369953155518
aF-1.3038923740386963
aF-3.463930606842041
aF-2.9161581993103027
aF-4.380703926086426
aag9
(g13
S'\xf2X+\x190=\xcc\xbf'
p1078
tp1079
Rp1080
aa(lp1081
F12.143654823303223
a(lp1082
F-1.1279438177691858
aF-1.8820074240313929
aF-1.7141988913165491
aF-1.7908976713763636
aF1.8192424774169922
aF0.33465948700904846
aa(lp1083
F0.05755545909787343
aF0.07717970837849913
aF-0.06275378676762126
aF0.054195384672079294
aF0.05910599278983539
aF0.13996535069475532
aa(lp1084
(lp1085
F0.005291662763247162
aF-0.0009868361485497429
aF-0.012621999585112693
aF-0.005804417826024817
aF0.00774619910157422
aF-0.0023727822226361135
aaaF0.6
a(lp1086
F-1.4501436948776245
aF2.051215410232544
aF-1.828168272972107
aF1.7876534461975098
aF-1.3039146661758423
aF-3.463839292526245
aF-2.9161486625671387
aF-4.380741596221924
aag9
(g13
S'\xfa\xd2\xf2\x80\x03\xa3\xcb\xbf'
p1087
tp1088
Rp1089
aa(lp1090
F12.244170904159546
a(lp1091
F-1.1262434164630335
aF-1.8795259634601038
aF-1.7179001013385218
aF-1.7899382750140589
aF1.8199012279510498
aF0.33564293384552
aa(lp1092
F-0.0060875915706512795
aF0.038312469817354505
aF-0.07648660768330529
aF0.08899949872318177
aF-0.011747427487537229
aF0.11886454364974523
aa(lp1093
(lp1094
F0.005509229077873562
aF-0.0010038157700632637
aF-0.012446042628450192
aF-0.005909875984440647
aF0.007873094192839481
aF-0.0022703945599371837
aaaF0.6
a(lp1095
F-1.4501811265945435
aF2.05118727684021
aF-1.8281710147857666
aF1.787668228149414
aF-1.303934097290039
aF-3.463766098022461
aF-2.9161434173583984
aF-4.380775451660156
aag9
(g13
S'`g4\xf5,\x10\xcb\xbf'
p1096
tp1097
Rp1098
aa(lp1099
F12.345324993133545
a(lp1100
F-1.1245434919940394
aF-1.8765652815448206
aF-1.7216852347003382
aF-1.7889917532550257
aF1.821338176727295
aF0.33707019686698914
aa(lp1101
F-0.04828653934936347
aF0.02665567122313737
aF-0.04924633338772965
aF0.00484126517976291
aF-0.006745867417758438
aF-0.014314616908128408
aa(lp1102
(lp1103
F0.005487151983391316
aF-0.0010588008840328213
aF-0.012334500420708074
aF-0.005977492755856923
aF0.007905334476514075
aF-0.0022916700771251908
aaaF0.6
a(lp1104
F-1.4501824378967285
aF2.0511858463287354
aF-1.8281724452972412
aF1.7876677513122559
aF-1.3039343357086182
aF-3.4637603759765625
aF-2.916140556335449
aF-4.380774021148682
aag9
(g13
S',\xdb\xe3\xbf\xa9n\xca\xbf'
p1105
tp1106
Rp1107
aa(lp1108
F12.445669889450073
a(lp1109
F-1.1229870955096644
aF-1.8739879767047327
aF-1.724847141896383
aF-1.78782827058901
aF1.822487235069275
aF0.33813753724098206
aa(lp1110
F0.06597203665036547
aF0.18446260481385218
aF0.023318677165075408
aF-0.038670589229516855
aF0.01416756825149813
aF0.08469683732377614
aa(lp1111
(lp1112
F0.0053398731052563386
aF-0.0011047303175291592
aF-0.012309516035984286
aF-0.006001922362654591
aF0.007848360473016607
aF-0.0024137072103805703
aaaF0.6
a(lp1113
F-1.450229525566101
aF2.051154136657715
aF-1.828187346458435
aF1.7876791954040527
aF-1.3039532899856567
aF-3.4636528491973877
aF-2.916118621826172
aF-4.380802154541016
aag9
(g13
S'w\xaf\x8a\tx\xe1\xc9\xbf'
p1114
tp1115
Rp1116
aa(lp1117
F12.547935962677002
a(lp1118
F-1.120796028767721
aF-1.8712309042560022
aF-1.7285121122943323
aF-1.786473576222555
aF1.8236608505249023
aF0.33922848105430603
aa(lp1119
F0.12072412572373886
aF0.02658397327593609
aF0.024413896383104663
aF0.0493461663122782
aF-0.027774235552789107
aF0.09417627673875208
aa(lp1120
(lp1121
F0.005192002233056105
aF-0.0010776526300240003
aF-0.012371602307263283
aF-0.005990408411854564
aF0.007763834913919768
aF-0.0025734240596563345
aaaF0.6
a(lp1122
F-1.4503334760665894
aF2.0510828495025635
aF-1.8282138109207153
aF1.7877092361450195
aF-1.3039971590042114
aF-3.4634265899658203
aF-2.916079044342041
aF-4.380871772766113
aag9
(g13
S'\xa5\x97\xcc\xa4\x06B\xc9\xbf'
p1123
tp1124
Rp1125
aa(lp1126
F12.649024963378906
a(lp1127
F-1.1188562552081507
aF-1.8687017599688929
aF-1.7323930899249476
aF-1.7853944937335413
aF1.8246548175811768
aF0.3405718207359314
aa(lp1128
F0.08369095925304508
aF0.03432814338417044
aF-0.05020368008804614
aF0.024418093510205723
aF0.005797002674952903
aF-0.0037346958809280767
aa(lp1129
(lp1130
F0.005374614709816717
aF-0.0010575135424701371
aF-0.012254402862812954
aF-0.006065585962473089
aF0.007882134917079921
aF-0.002481441637692305
aaaF0.6
a(lp1131
F-1.4503496885299683
aF2.051069498062134
aF-1.8282116651535034
aF1.7877182960510254
aF-1.3040070533752441
aF-3.4633991718292236
aF-2.9160804748535156
aF-4.380889892578125
aag9
(g13
S'\xf2\x1e\xdbk\x81\xa7\xc8\xbf'
p1132
tp1133
Rp1134
aa(lp1135
F12.750923871994019
a(lp1136
F-1.1171796957599085
aF-1.8662083784686487
aF-1.7359021345721644
aF-1.7845190207110804
aF1.8256244659423828
aF0.3421069383621216
aa(lp1137
F0.04797200196897107
aF0.062021726458023466
aF-0.1031668464376986
aF0.05444851635571691
aF-0.04214149956005841
aF0.01579549827449292
aa(lp1138
(lp1139
F0.005606198337667319
aF-0.0010479229096232404
aF-0.012105426086894598
aF-0.00615204651706659
aF0.008047345539050498
aF-0.0023278663040446623
aaaF0.6
a(lp1140
F-1.450311541557312
aF2.0510923862457275
aF-1.8281948566436768
aF1.7877111434936523
aF-1.3039946556091309
aF-3.4634904861450195
aF-2.9161036014556885
aF-4.3808722496032715
aag9
(g13
S'\xee\n\x05\xb1\xb2\x16\xc8\xbf'
p1141
tp1142
Rp1143
aa(lp1144
F12.852854013442993
a(lp1145
F-1.1154196898089808
aF-1.8639190832721155
aF-1.7391122023211878
aF-1.7837641874896448
aF1.8266303539276123
aF0.34323421120643616
aa(lp1146
F0.056801876434917
aF0.004623536073133747
aF0.016508541743268025
aF0.014432809617831152
aF-0.021694055695097213
aF0.06220401127909808
aa(lp1147
(lp1148
F0.005680433935168674
aF-0.0010296982453970966
aF-0.01204990156292781
aF-0.006192390382221028
aF0.008102703696279592
aF-0.0023118560077762455
aaaF0.6
a(lp1149
F-1.4503426551818848
aF2.051069498062134
aF-1.8281992673873901
aF1.7877225875854492
aF-1.3040095567703247
aF-3.4634270668029785
aF-2.916095733642578
aF-4.380897045135498
aag9
(g13
S'$G\x07\x1b\xf5\x95\xc7\xbf'
p1150
tp1151
Rp1152
aa(lp1153
F12.953752994537354
a(lp1154
F-1.1135991255389612
aF-1.8618090788470667
aF-1.7428129355060022
aF-1.7829607168780726
aF1.8280673027038574
aF0.3445412218570709
aa(lp1155
F0.09448879488715131
aF-0.0205526134002387
aF-0.06806018057739892
aF0.05314219917955944
aF-0.04336033197604374
aF-0.0180102495259344
aa(lp1156
(lp1157
F0.005772040816784008
aF-0.0010050487356959158
aF-0.011973130553223535
aF-0.006246358445827667
aF0.008177028087452555
aF-0.0022669681422382844
aaaF0.6
a(lp1158
F-1.4503501653671265
aF2.0510647296905518
aF-1.8281993865966797
aF1.7877273559570312
aF-1.3040121793746948
aF-3.4634153842926025
aF-2.916093111038208
aF-4.380901336669922
aag9
(g13
S'V\xcf\x16\xe6\xd4\x10\xc7\xbf'
p1159
tp1160
Rp1161
aa(lp1162
F13.05513596534729
a(lp1163
F-1.111779514943258
aF-1.8599994818316858
aF-1.7463224569903772
aF-1.781893555318014
aF1.8292646408081055
aF0.3458486497402191
aa(lp1164
F0.009213862952773358
aF0.11052833279674154
aF0.004647843419136932
aF0.12023513458944518
aF0.06448348606754442
aF0.09178027474157986
aa(lp1165
(lp1166
F0.005904752475585665
aF-0.0009462082429153357
aF-0.011927100083140572
aF-0.00628335551975066
aF0.0082677094752118
aF-0.002198056644479384
aaaF0.6
a(lp1167
F-1.4503564834594727
aF2.0510599613189697
aF-1.8281970024108887
aF1.787733554840088
aF-1.3040155172348022
aF-3.463409423828125
aF-2.9160938262939453
aF-4.380908966064453
aag9
(g13
S'\xe0\x83\x140^\x91\xc6\xbf'
p1168
tp1169
Rp1170
aa(lp1171
F13.156399011611938
a(lp1172
F-1.1099475065814417
aF-1.8582971731769007
aF-1.7494004408465784
aF-1.7810304800616663
aF1.8301746845245361
aF0.3468201160430908
aa(lp1173
F-0.0006224478611988778
aF0.0859539374207994
aF-0.06108696188880798
aF0.07708833251725711
aF-0.008555043360135382
aF0.02684047665450182
aa(lp1174
(lp1175
F0.006009291933615885
aF-0.0008737483077087107
aF-0.011921526382755707
aF-0.006302823939412465
aF0.008319939782273678
aF-0.00217300738852823
aaaF0.6
a(lp1176
F-1.45040762424469
aF2.0510237216949463
aF-1.8282049894332886
aF1.787752389907837
aF-1.304038643836975
aF-3.4633069038391113
aF-2.9160799980163574
aF-4.380948066711426
aag9
(g13
S'bt\x06\\\xf1!\xc6\xbf'
p1177
tp1178
Rp1179
aa(lp1180
F13.25780200958252
a(lp1181
F-1.1080792585956019
aF-1.8563068548785608
aF-1.7525981108294886
aF-1.780358616505758
aF1.8313363790512085
aF0.34752756357192993
aa(lp1182
F0.04060216180583895
aF0.004074300465875744
aF-0.061208740695366096
aF0.012837452436479532
aF0.1085782849921341
aF-0.0004313251329371784
aa(lp1183
(lp1184
F0.0059578836631975236
aF-0.000853791065780539
aF-0.011921528971297822
aF-0.0063221128252573654
aF0.008280895288817276
aF-0.002270564278360705
aaaF0.6
a(lp1185
F-1.4505078792572021
aF2.0509560108184814
aF-1.8282309770584106
aF1.7877826690673828
aF-1.3040797710418701
aF-3.463090419769287
aF-2.9160404205322266
aF-4.381014347076416
aag9
(g13
S'&\xb1\x01\xf6w\xb3\xc5\xbf'
p1186
tp1187
Rp1188
aa(lp1189
F13.359357833862305
a(lp1190
F-1.1063554922686976
aF-1.8543532530414026
aF-1.7559755484210413
aF-1.7794840971576136
aF1.832653522491455
aF0.3484271168708801
aa(lp1191
F-0.022651208800799162
aF0.0805123905348697
aF0.026678280464218898
aF-0.08083608992961233
aF-0.1400388507038143
aF-0.08563239061373838
aa(lp1192
(lp1193
F0.005920392823664516
aF-0.0008576597011641994
aF-0.011879883475201499
aF-0.0063587585714615395
aF0.008268331745897634
aF-0.0023361821889578776
aaaF0.6
a(lp1194
F-1.4505711793899536
aF2.0509140491485596
aF-1.8282486200332642
aF1.787801742553711
aF-1.3041044473648071
aF-3.4629528522491455
aF-2.916012763977051
aF-4.381053447723389
aag9
(g13
S'\xf1\x17\x04N\xd2@\xc5\xbf'
p1195
tp1196
Rp1197
aa(lp1198
F13.459650993347168
a(lp1199
F-1.1049779097186487
aF-1.8523276487933558
aF-1.759078327809469
aF-1.7784045378314417
aF1.8336831331253052
aF0.34929072856903076
aa(lp1200
F0.01415748983021186
aF0.0186303648782453
aF0.015813637845580653
aF0.16789634762927955
aF0.02807263401603747
aF0.018974592324285826
aa(lp1201
(lp1202
F0.005886385059938881
aF-0.0009129169263366302
aF-0.011782153595050028
aF-0.006419178918958399
aF0.00826822853844484
aF-0.00238528188699968
aaaF0.6
a(lp1203
F-1.4506148099899292
aF2.050884962081909
aF-1.8282614946365356
aF1.787813663482666
aF-1.3041218519210815
aF-3.4628562927246094
aF-2.9159929752349854
aF-4.38107967376709
aag9
(g13
S'\xca\x06\xc7u\xc3\xcf\xc4\xbf'
p1204
tp1205
Rp1206
aa(lp1207
F13.561022996902466
a(lp1208
F-1.1035531202899378
aF-1.8500974814044397
aF-1.7623475233661097
aF-1.7776253859149378
aF1.8348567485809326
aF0.35034608840942383
aa(lp1209
F-0.04694392715813535
aF0.12912742842324104
aF-0.05289169188225619
aF-0.05397056336214234
aF-0.02058163115035435
aF0.011739152216630536
aa(lp1210
(lp1211
F0.00593341504714572
aF-0.0009716970056275823
aF-0.011635828405493107
aF-0.006502186896179802
aF0.008324747576933862
aF-0.0023691851636779603
aaaF0.6
a(lp1212
F-1.4506274461746216
aF2.0508766174316406
aF-1.8282653093338013
aF1.7878174781799316
aF-1.304126501083374
aF-3.4628281593322754
aF-2.9159865379333496
aF-4.381086826324463
aag9
(g13
S'7\x7f\x83\xf2\x9a\\\xc4\xbf'
p1213
tp1214
Rp1215
aa(lp1216
F13.662938833236694
a(lp1217
F-1.1019247213946741
aF-1.8478921095477503
aF-1.7656415144549769
aF-1.7770021597491663
aF1.8363772630691528
aF0.3513535261154175
aa(lp1218
F0.07431426562782711
aF-0.0026950865677299596
aF-0.019600830854527962
aF0.09515685172216462
aF-0.0101765648890527
aF0.03897766018770168
aa(lp1219
(lp1220
F0.005852663133004773
aF-0.001008694628736676
aF-0.011573275797848375
aF-0.006547437779992067
aF0.00830415070960246
aF-0.002449822187311541
aaaF0.6
a(lp1221
F-1.4506700038909912
aF2.050849199295044
aF-1.8282798528671265
aF1.7878286838531494
aF-1.3041417598724365
aF-3.4627323150634766
aF-2.915963649749756
aF-4.381109237670898
aag9
(g13
S'g\xa5q\x01H\xef\xc3\xbf'
p1222
tp1223
Rp1224
aa(lp1225
F13.763702869415283
a(lp1226
F-1.1006916205035608
aF-1.845926586781637
aF-1.7686589399920862
aF-1.776318375264303
aF1.8375509977340698
aF0.35222911834716797
aa(lp1227
F0.023980173901434056
aF0.029630030632704904
aF-0.0082748582788615
aF0.0967128543263073
aF-0.10356340934451314
aF0.12473430950379608
aa(lp1228
(lp1229
F0.0058627826259445934
aF-0.0010816380811525402
aF-0.01142868179194859
aF-0.006628106679047334
aF0.008338758756059373
aF-0.0024577884712495774
aaaF0.6
a(lp1230
F-1.4506877660751343
aF2.0508382320404053
aF-1.8282866477966309
aF1.7878332138061523
aF-1.3041476011276245
aF-3.462691307067871
aF-2.915952444076538
aF-4.38111686706543
aag9
(g13
S'\x9b\xac\xf4\x8fE\x8d\xc3\xbf'
p1231
tp1232
Rp1233
aa(lp1234
F13.864030838012695
a(lp1235
F-1.0994342009173792
aF-1.8438165823565882
aF-1.771426026021139
aF-1.7754553000079554
aF1.8384250402450562
aF0.3532361686229706
aa(lp1236
F0.00046303346110994695
aF0.08493019707893434
aF-0.04530677310060573
aF0.027650532494995977
aF-0.0013520490838768197
aF0.006186831565363048
aa(lp1237
(lp1238
F0.005899158902537462
aF-0.0011355077780089502
aF-0.011306550918982479
aF-0.0066973764264446015
aF0.008387420391005098
aF-0.002444875105050637
aaaF0.6
a(lp1239
F-1.4506956338882446
aF2.0508320331573486
aF-1.828288197517395
aF1.7878353595733643
aF-1.3041516542434692
aF-3.4626731872558594
aF-2.915949821472168
aF-4.381122589111328
aag9
(g13
S'\x92\xdf`{\xfe%\xc3\xbf'
p1240
tp1241
Rp1242
aa(lp1243
F13.96442985534668
a(lp1244
F-1.0982373396502894
aF-1.8420904318438929
aF-1.7738092581378382
aF-1.774843994771139
aF1.8392632007598877
aF0.3541716933250427
aa(lp1245
F-0.041778104564950264
aF-0.047297081723863044
aF-0.0640878385100165
aF0.02460641644700927
aF-0.009676290405878082
aF0.010889186617127442
aa(lp1246
(lp1247
F0.005955693692203325
aF-0.0011510914648964461
aF-0.01122521889281078
aF-0.0067458808696312985
aF0.008441188317217737
aF-0.0024171851113914083
aaaF0.6
a(lp1248
F-1.4506977796554565
aF2.0508298873901367
aF-1.8282872438430786
aF1.787837028503418
aF-1.304153323173523
aF-3.46267032623291
aF-2.915950298309326
aF-4.381125450134277
aag9
(g13
S'\xb0\xa0*\xbbT\xd1\xc2\xbf'
p1249
tp1250
Rp1251
aa(lp1252
F14.065558910369873
a(lp1253
F-1.0968716780291956
aF-1.8405445257769983
aF-1.7762768904315394
aF-1.7746642271624964
aF1.8405324220657349
aF0.35502293705940247
aa(lp1254
F0.04118438371467793
aF-0.00369847593152281
aF0.02226810872690993
aF0.027368668334758633
aF-0.02437931070175957
aF0.02013504393581205
aa(lp1255
(lp1256
F0.005954481204857371
aF-0.001140992265425129
aF-0.011192676280300901
aF-0.00677331589345101
aF0.008457254281567524
aF-0.0024374040222330945
aaaF0.6
a(lp1257
F-1.4507182836532593
aF2.0508170127868652
aF-1.8282934427261353
aF1.787843942642212
aF-1.304160237312317
aF-3.4626259803771973
aF-2.9159393310546875
aF-4.381135940551758
aag9
(g13
S'^\x7f\xd6\xceR\x8b\xc2\xbf'
p1258
tp1259
Rp1260
aa(lp1261
F14.16593599319458
a(lp1262
F-1.0953987280475062
aF-1.8392017523394983
aF-1.7785638014422815
aF-1.7744601408587855
aF1.8413705825805664
aF0.35587456822395325
aa(lp1263
F-0.02090381453877395
aF0.08498227983225487
aF-0.0266012160273283
aF0.07138637134811249
aF0.03314799317903169
aF0.0635643559740499
aa(lp1264
(lp1265
F0.006111027450843836
aF-0.0010777206307954967
aF-0.011159632274562912
aF-0.00679979316154349
aF0.008546774489648662
aF-0.0023639881872914302
aaaF0.6
a(lp1266
F-1.450736403465271
aF2.0508031845092773
aF-1.8282928466796875
aF1.787853479385376
aF-1.3041695356369019
aF-3.462594985961914
aF-2.915937900543213
aF-4.381153106689453
aag9
(g13
S'y\xe37y`I\xc2\xbf'
p1267
tp1268
Rp1269
aa(lp1270
F14.266273021697998
a(lp1271
F-1.0937345663653772
aF-1.8376315275775355
aF-1.781318489705221
aF-1.7738845984088343
aF1.842029333114624
aF0.35686999559402466
aa(lp1272
F-0.07642771469291122
aF0.03806253608125353
aF-0.04868135783053948
aF0.09540078887549114
aF0.026734789235167207
aF0.020224123008891544
aa(lp1273
(lp1274
F0.00637584492442986
aF-0.0010086976007378334
aF-0.011075068448639295
aF-0.0068561819575022435
aF0.008691329909398157
aF-0.002218567428845672
aaaF0.6
a(lp1275
F-1.4507538080215454
aF2.050788640975952
aF-1.8282885551452637
aF1.7878644466400146
aF-1.3041807413101196
aF-3.4625701904296875
aF-2.9159421920776367
aF-4.3811750411987305
aag9
(g13
S'\xeb\xe6\xf5H\x98\xf5\xc1\xbf'
p1276
tp1277
Rp1278
aa(lp1279
F14.367851972579956
a(lp1280
F-1.092285458241598
aF-1.8359053770648401
aF-1.7836063543902796
aF-1.7733328978167933
aF1.8428075313568115
aF0.3577336072921753
aa(lp1281
F0.036765437985813276
aF0.04572811612975211
aF-0.10637351996558256
aF0.014115884919875046
aF0.016815609347954702
aF0.011609898328805143
aa(lp1282
(lp1283
F0.006409986207774745
aF-0.000985150345272505
aF-0.011055664191114848
aF-0.0068788213502379405
aF0.008715641253459989
aF-0.0022259737705747937
aaaF0.6
a(lp1284
F-1.4507898092269897
aF2.050762891769409
aF-1.8282948732376099
aF1.7878766059875488
aF-1.3041973114013672
aF-3.4624948501586914
aF-2.9159321784973145
aF-4.381202220916748
aag9
(g13
S'+L\xa3\x90<\xa8\xc1\xbf'
p1285
tp1286
Rp1287
aa(lp1288
F14.468003988265991
a(lp1289
F-1.0912554899798792
aF-1.834203068410055
aF-1.7857258955584925
aF-1.7731412092791956
aF1.8435022830963135
aF0.3587769865989685
aa(lp1290
F0.020278786500370592
aF0.05191565587546333
aF-0.08658046902199447
aF0.022547227270161792
aF-0.03237433049327425
aF0.003926245804429376
aa(lp1291
(lp1292
F0.006621709180316595
aF-0.0010006944661857106
aF-0.010904064805649644
aF-0.0069552819971216585
aF0.008865895784511087
aF-0.002077064306509826
aaaF0.6
a(lp1293
F-1.450744867324829
aF2.0507912635803223
aF-1.828278660774231
aF1.7878661155700684
aF-1.3041812181472778
aF-3.4625978469848633
aF-2.915954828262329
aF-4.38117790222168
aag9
(g13
S'\x06\xad\xa8\x050c\xc1\xbf'
p1294
tp1295
Rp1296
aa(lp1297
F14.569326877593994
a(lp1298
F-1.0899270216571253
aF-1.8323209921466272
aF-1.788156811391012
aF-1.7730453650103968
aF1.8445557355880737
aF0.3598802983760834
aa(lp1299
F-0.043336606977556015
aF0.07275662609643317
aF-0.012044534982805569
aF0.022046562329128414
aF-0.006424044473113998
aF0.04549042211523914
aa(lp1300
(lp1301
F0.006758967687434979
aF-0.0010023786448793439
aF-0.010796479687774928
aF-0.00701451348036081
aF0.00897226326204229
aF-0.0019887340203430907
aaaF0.6
a(lp1302
F-1.450722575187683
aF2.0508053302764893
aF-1.8282698392868042
aF1.7878618240356445
aF-1.3041731119155884
aF-3.4626495838165283
aF-2.915966510772705
aF-4.381165027618408
aag9
(g13
S'\xd7\xfc\xc4Y*\x1c\xc1\xbf'
p1303
tp1304
Rp1305
aa(lp1306
F14.671780824661255
a(lp1307
F-1.0883339087115687
aF-1.8305471579181116
aF-1.79034930864443
aF-1.7727578322040003
aF1.845537781715393
aF0.36091169714927673
aa(lp1308
F-0.018472764345115
aF-0.0037671209148032805
aF-0.011874155172151424
aF0.056501557593492194
aF0.011865635754632415
aF0.06825226471370999
aa(lp1309
(lp1310
F0.006783489075163638
aF-0.0009471186019945431
aF-0.010819516677304764
aF-0.007016711547596808
aF0.00899524576800926
aF-0.001997020014775276
aaaF0.6
a(lp1311
F-1.450745701789856
aF2.050788402557373
aF-1.8282727003097534
aF1.7878708839416504
aF-1.3041841983795166
aF-3.4626035690307617
aF-2.9159607887268066
aF-4.381184101104736
aag9
(g13
S'\x1c\x12\xfe\x1bA\xd7\xc0\xbf'
p1312
tp1313
Rp1314
aa(lp1315
F14.771938800811768
a(lp1316
F-1.0867775122271937
aF-1.8290370146380823
aF-1.7924330870257776
aF-1.7724583784686487
aF1.8466991186141968
aF0.36170339584350586
aa(lp1317
F0.013744475039541569
aF0.03510901379218762
aF-0.022226873546988588
aF-0.00921750561032017
aF-0.003925570235534323
aF0.04952118404747671
aa(lp1318
(lp1319
F0.006670008548369524
aF-0.0008952323664755579
aF-0.010901124540549867
aF-0.006994417127871071
aF0.008933018852274625
aF-0.0021090165037353256
aaaF0.6
a(lp1320
F-1.4508036375045776
aF2.0507495403289795
aF-1.8282884359359741
aF1.7878878116607666
aF-1.304207444190979
aF-3.462477207183838
aF-2.9159364700317383
aF-4.38122034072876
aag9
(g13
S'6q\x93\r\x1a\x9f\xc0\xbf'
p1321
tp1322
Rp1323
aa(lp1324
F14.872246026992798
a(lp1325
F-1.0851128737079065
aF-1.8277300039874476
aF-1.794720474873678
aF-1.7718942801104944
aF1.8478608131408691
aF0.36278271675109863
aa(lp1326
F0.08400229850884736
aF0.010459657015412047
aF-0.011400704239593185
aF0.05938900046844065
aF-0.07590710729537917
aF0.060528993976115074
aa(lp1327
(lp1328
F0.006672044544022668
aF-0.000798993389744694
aF-0.010978316198247315
aF-0.006972844110267131
aF0.008940898954854297
aF-0.002129845240173492
aaaF0.6
a(lp1329
F-1.4508256912231445
aF2.050734281539917
aF-1.828291893005371
aF1.7878968715667725
aF-1.3042166233062744
aF-3.4624340534210205
aF-2.915928840637207
aF-4.3812360763549805
aag9
(g13
S'\xa7\x84\xb2\xc9\xaeb\xc0\xbf'
p1330
tp1331
Rp1332
aa(lp1333
F14.974419832229614
a(lp1334
F-1.0836041609393519
aF-1.8263877073871058
aF-1.7967560927020472
aF-1.7711270491229456
aF1.8485071659088135
aF0.3634302318096161
aa(lp1335
F0.0583265306143628
aF0.02977178882496602
aF-0.025804640189282822
aF-0.024190309634398825
aF-0.05599698863055219
aF-0.12023998361189694
aa(lp1336
(lp1337
F0.00663854577544702
aF-0.0007432991159816825
aF-0.011034769327318951
aF-0.006962984669689125
aF0.00891020270708059
aF-0.002201506466447609
aaaF0.6
a(lp1338
F-1.4509021043777466
aF2.0506813526153564
aF-1.8283090591430664
aF1.7879207134246826
aF-1.30424964427948
aF-3.4622719287872314
aF-2.915903091430664
aF-4.381290435791016
aag9
(g13
S'\x15\x9d5{\xe4&\xc0\xbf'
p1339
tp1340
Rp1341
aa(lp1342
F15.074477910995483
a(lp1343
F-1.0818799177752894
aF-1.8250930945025843
aF-1.7992470900165003
aF-1.7706835905658167
aF1.848854422569275
aF0.3640657961368561
aa(lp1344
F-0.12387718193569469
aF-0.01946004973112834
aF0.06835150042641173
aF0.11459668851208275
aF0.1679268057838346
aF0.059896965318564
aa(lp1345
(lp1346
F0.006952332347692334
aF-0.0006587148027850162
aF-0.01095345516561767
aF-0.007018607200171977
aF0.009054607374024087
aF-0.0020535342529589694
aaaF0.6
a(lp1347
F-1.4509665966033936
aF2.0506341457366943
aF-1.8283147811889648
aF1.7879467010498047
aF-1.3042817115783691
aF-3.4621474742889404
aF-2.9158928394317627
aF-4.381347179412842
aag9
(g13
S'\xc1g\x0e\xb3O\xdd\xbf\xbf'
p1348
tp1349
Rp1350
aa(lp1351
F15.174698829650879
a(lp1352
F-1.0804670492755335
aF-1.8238466421710413
aF-1.801690403615133
aF-1.7702997366534632
aF1.8495371341705322
aF0.3648095428943634
aa(lp1353
F-0.03006168850035843
aF0.04735214829024122
aF-0.05287223053777692
aF-0.012624395807208241
aF-0.06588033032295826
aF0.04868025470732852
aa(lp1354
(lp1355
F0.007193466461091146
aF-0.0006201407472937315
aF-0.01084634763276611
aF-0.007081033362024317
aF0.009186755942623668
aF-0.0019261918309880952
aaaF0.6
a(lp1356
F-1.4509904384613037
aF2.0506160259246826
aF-1.8283144235610962
aF1.7879583835601807
aF-1.3042939901351929
aF-3.4621052742004395
aF-2.91589093208313
aF-4.381369590759277
aag9
(g13
S'\xdd\xd8uh1z\xbf\xbf'
p1357
tp1358
Rp1359
aa(lp1360
F15.276346921920776
a(lp1361
F-1.079712216054098
aF-1.8223961035357874
aF-1.803906265889303
aF-1.7698686758624476
aF1.85029137134552
aF0.3653252422809601
aa(lp1362
F-0.02173139249124957
aF0.08209167045909599
aF0.02282716404250163
aF0.04606553390941112
aF-0.028074976104262638
aF-0.012252692979423059
aa(lp1363
(lp1364
F0.007255836196229703
aF-0.0007169558319911351
aF-0.010661924419665984
aF-0.0071735133161210645
aF0.009244576814331417
aF-0.001896320079359613
aaaF0.6
a(lp1365
F-1.4510022401809692
aF2.0506086349487305
aF-1.8283193111419678
aF1.7879612445831299
aF-1.3042980432510376
aF-3.4620776176452637
aF-2.9158835411071777
aF-4.381374835968018
aag9
(g13
S'\x90\xf9\xcc\x82\x15\x1c\xbf\xbf'
p1366
tp1367
Rp1368
aa(lp1369
F15.376875877380371
a(lp1370
F-1.078742806111471
aF-1.8207061926471155
aF-1.8063729445086878
aF-1.769064728413717
aF1.8512014150619507
aF0.3655169904232025
aa(lp1371
F0.023252481854774708
aF-0.01732096127094375
aF-0.01639412414370473
aF0.057031284412759134
aF-0.006276070608357744
aF0.10261507674323496
aa(lp1372
(lp1373
F0.00705396594040385
aF-0.0008473497215807007
aF-0.010558688390884153
aF-0.007237884562241989
aF0.009136361029573117
aF-0.002079277743194259
aaaF0.6
a(lp1374
F-1.4511058330535889
aF2.0505404472351074
aF-1.8283532857894897
aF1.7879869937896729
aF-1.3043378591537476
aF-3.4618430137634277
aF-2.9158339500427246
aF-4.381434917449951
aag9
(g13
S'`x\x156\xa5\xb3\xbe\xbf'
p1375
tp1376
Rp1377
aa(lp1378
F15.477954864501953
a(lp1379
F-1.077557388936178
aF-1.8193395773517054
aF-1.8081696669207972
aF-1.7686932722674769
aF1.8520275354385376
aF0.36617687344551086
aa(lp1380
F-0.05601264863456065
aF0.022702998567335583
aF0.06285570317679437
aF-0.008995168334544557
aF0.0016382480794625946
aF0.023759562492495268
aa(lp1381
(lp1382
F0.007004040688832709
aF-0.0008388862406933457
aF-0.010564597438541648
aF-0.007246692580008466
aF0.009115466186548245
aF-0.0021386171630286225
aaaF0.6
a(lp1383
F-1.4511457681655884
aF2.050513505935669
aF-1.8283637762069702
aF1.7879986763000488
aF-1.3043543100357056
aF-3.4617557525634766
aF-2.915817975997925
aF-4.381461143493652
aag9
(g13
S'\xb6$\x9c\xd7\x8bb\xbe\xbf'
p1384
tp1385
Rp1386
aa(lp1387
F15.579360961914062
a(lp1388
F-1.0764673391925257
aF-1.8181164900409144
aF-1.8099902311908167
aF-1.7685373465167444
aF1.8528181314468384
aF0.36682403087615967
aa(lp1389
F-0.01941929486663025
aF0.026186853992013454
aF-0.041895914636114605
aF0.11614739843865426
aF0.011376014090052258
aF0.09911212101467552
aa(lp1390
(lp1391
F0.0070671415341799805
aF-0.0008305027752495761
aF-0.010512599519370416
aF-0.007281603465698106
aF0.0091583093812184
aF-0.0021161098777180668
aaaF0.6
a(lp1392
F-1.451163649559021
aF2.0505006313323975
aF-1.8283668756484985
aF1.7880053520202637
aF-1.304362177848816
aF-3.461719512939453
aF-2.9158120155334473
aF-4.381474018096924
aag9
(g13
S'c\xd8\x03Uj"\xbe\xbf'
p1393
tp1394
Rp1395
aa(lp1396
F15.680601835250854
a(lp1397
F-1.0755694548236292
aF-1.8167384306537073
aF-1.8119538466082972
aF-1.7683337370501917
aF1.8536922931671143
aF0.36759138107299805
aa(lp1398
F-0.03184447281209923
aF0.09338113610101742
aF-0.0030259867597488403
aF0.018434872589004992
aF-0.016781946569111403
aF0.0410306956994113
aa(lp1399
(lp1400
F0.007150488291828149
aF-0.0008687752402660716
aF-0.010392504767566818
aF-0.007342833590990498
aF0.009231989963638318
aF-0.002061271416565973
aaaF0.6
a(lp1401
F-1.4511483907699585
aF2.050511121749878
aF-1.8283628225326538
aF1.788001537322998
aF-1.304355502128601
aF-3.4617531299591064
aF-2.9158170223236084
aF-4.381462574005127
aag9
(g13
S'\x08\xceD0\xc5S\x17\xc0'
p1402
tp1403
Rp1404
aasS'model'
p1405
S'open2_open1_scoop2_scoop1_cut2_modelnum3'
p1406
sS'task'
p1407
S'scoop1'
p1408
sS'run'
p1409
I4
s.