(dp0
S'demo_num'
p1
S'1'
p2
sS'model'
p3
S'push1_open1'
p4
sS'task'
p5
S'cut1'
p6
sS'data'
p7
(lp8
(lp9
F0.4011399745941162
a(F-1.5767553488360804
F-1.1918824354754847
F-2.012751881276266
F-1.410966698323385
F1.5604524612426758
F-0.0845101515399378
tp10
a(lp11
F0.031857093491829996
aF0.1010234635655988
aF0.03548659754661057
aF-0.02135049027883243
aF0.0334955826490157
aF-0.3
aa(lp12
(lp13
F0.22501584936436228
aF-0.10414010614908659
aF-0.2373443736685015
aF0.3880246444743819
aF-0.0313773182982811
aF0.28846169453840287
aaaF0.05747090280056
a(lp14
F-0.45937344431877136
aF-0.6412253975868225
aacnumpy.core.multiarray
scalar
p15
(cnumpy
dtype
p16
(S'f8'
p17
I0
I1
tp18
Rp19
(I3
S'<'
p20
NNNI-1
I-1
I0
tp21
bS'\t\x8d\xed\x07\xa8\xb6\xf5\xbf'
p22
tp23
Rp24
aa(lp25
F0.801771879196167
a(F-1.5802372137652796
F-1.192636791859762
F-2.007376019154684
F-1.4228718916522425
F1.5777696371078491
F-0.20458919206728154
tp26
a(lp27
F0.05722691927603191
aF-0.07875750045358128
aF-0.020227480905198526
aF-0.07155373086679692
aF0.09150318111864243
aF-0.3
aa(lp28
(lp29
F0.38269247727693934
aF-0.06399378016685892
aF-0.27610522149469274
aF0.3594532601406839
aF-0.04681425841641281
aF0.5109155141718387
aaaF0.030541757121682167
a(lp30
F-0.3262561559677124
aF-0.7176917791366577
aag15
(g19
S'h\x9f}\xb4\xcb\xc4\xf3\xbf'
p31
tp32
Rp33
aa(lp34
F1.2026309967041016
a(F-1.5820677916156214
F-1.1941950956927698
F-2.002993885670797
F-1.4336264769183558
F1.5941162109375
F-0.3246348539935511
tp35
a(lp36
F-0.03895320468058633
aF0.021335154068610324
aF-0.10066765854169338
aF-0.04566407782699798
aF-0.023862294079553426
aF-0.3
aa(lp37
(lp38
F0.478191240788717
aF-0.012683610959610932
aF-0.29478059008811336
aF0.31282146778716297
aF-0.054907924419380846
aF0.6492785541809792
aaaF0.01599758304655552
a(lp39
F-0.18316221237182617
aF-0.7989687919616699
aag15
(g19
S'\xb4\x90\n\x1e\x0b\xd4\xf1\xbf'
p40
tp41
Rp42
aa(lp43
F1.6039979457855225
a(F-1.5816729704486292
F-1.196759049092428
F-2.0020840803729456
F-1.4402926603900355
F1.6103547811508179
F-0.44465858141054326
tp44
a(lp45
F0.06236997216198614
aF-0.04539208335949003
aF-0.07075461419682746
aF0.017408620766104062
aF-0.08930481364188896
aF-0.3
aa(lp46
(lp47
F0.47073162333858565
aF0.041311734588045844
aF-0.2798684935817552
aF0.24281312923447043
aF-0.058862668563622864
aF0.6761075165356242
aaaF0.011562529951334
a(lp48
F-0.03694808483123779
aF-0.8823217749595642
aag15
(g19
S't\xac1\xf4\xf1\xc8\xef\xbf'
p49
tp50
Rp51
aa(lp52
F2.005352020263672
a(F-1.5833600203143519
F-1.1971309820758265
F-2.0000126997577112
F-1.44452411333193
F1.620941400527954
F-0.5671885649310511
tp53
a(lp54
F-0.007877797516165738
aF-0.11720639373038952
aF0.023309919673483573
aF-0.07916527332189244
aF-0.07472443743646384
aF-0.3
aa(lp55
(lp56
F0.4325022133997263
aF0.13024592913936722
aF-0.21460671052413394
aF0.08292940409540565
aF-0.06962239302345005
aF0.6619924668272711
aaaF0.01019233837723732
a(lp57
F0.11495274305343628
aF-0.9736879467964172
aag15
(g19
S'\xa0\x0c[\xa4\x02\xd9\xeb\xbf'
p58
tp59
Rp60
aas.