(dp0
S'demo_num'
p1
S'1'
p2
sS'model'
p3
S'push1'
p4
sS'task'
p5
S'cut1'
p6
sS'data'
p7
(lp8
(lp9
F0.4009528160095215
a(F-1.5743148962603968
F-1.1901567617999476
F-2.0154221693622034
F-1.4059432188617151
F1.5570755004882812
F-0.0755532423602503
tp10
a(lp11
F0.026787977947856804
aF0.021961297308504137
aF0.0869042857689793
aF-0.06201858990596454
aF0.11410866502344297
aF-0.3
aa(lp12
(lp13
F0.0027047179204461474
aF-0.14024736396323645
aF-0.20067631467558045
aF0.4155270300825504
aF-0.015292451290123438
aF0.05802512743516783
aaaF0.6000000238418579
a(lp14
F0.15410318970680237
aF-0.02254367619752884
aacnumpy.core.multiarray
scalar
p15
(cnumpy
dtype
p16
(S'f8'
p17
I0
I1
tp18
Rp19
(I3
S'<'
p20
NNNI-1
I-1
I0
tp21
bS'[h]n\x9e\xdd\xf5\xbf'
p22
tp23
Rp24
aa(lp25
F0.8014960289001465
a(F-1.5770066420184534
F-1.1920502821551722
F-2.0134576002704065
F-1.4175127188311976
F1.5800331830978394
F-0.1956089178668421
tp26
a(lp27
F0.022783096297825926
aF-0.06180914957797691
aF-0.0007653938285340795
aF-0.08716865764806153
aF0.13309477567833983
aF-0.3
aa(lp28
(lp29
F-0.02513899501715068
aF-0.14732801066453693
aF-0.17328483907056552
aF0.39453567891962804
aF-0.031118038982090517
aF0.11009123004764826
aaaF0.0038474458269774914
a(lp30
F0.15483719110488892
aF-0.021942149847745895
aag15
(g19
S'\x80+\x99$ \xea\xf3\xbf'
p31
tp32
Rp33
aa(lp34
F1.2020189762115479
a(F-1.5814455191241663
F-1.1934641043292444
F-2.0086095968829554
F-1.4291184584247034
F1.599122166633606
F-0.3156674543963831
tp35
a(lp36
F0.04545112146632753
aF0.04832658699588981
aF-0.005835095040313749
aF-0.0924069149581152
aF0.02006140022734415
aF-0.3
aa(lp37
(lp38
F-0.06294056870579119
aF-0.1578307233553769
aF-0.145635337583483
aF0.3782429422964302
aF-0.03596718777833613
aF0.12258404239324101
aaaF0.0004357765428721905
a(lp39
F0.15518853068351746
aF-0.02125292271375656
aag15
(g19
S'\xa2+%\x7f,\xf8\xf1\xbf'
p40
tp41
Rp42
aa(lp43
F1.6025018692016602
a(F-1.5816848913775843
F-1.1970952192889612
F-2.008704964314596
F-1.4356768766986292
F1.613253116607666
F-0.4355123678790491
tp44
a(lp45
F-0.01923879646329795
aF-0.060768034982515526
aF-0.0018261309021547281
aF-0.03204866426618809
aF0.08518843715623187
aF-0.3
aa(lp46
(lp47
F-0.10182293952287844
aF-0.17190700810145235
aF-0.11927291623452532
aF0.3681454158402353
aF-0.03767757704355039
aF0.11274383024119786
aaaF0.00017972064961213619
a(lp48
F0.15258488059043884
aF-0.020051658153533936
aag15
(g19
S'\xd3#\xf6\x97\xf8\t\xf0\xbf'
p49
tp50
Rp51
aa(lp52
F2.003124952316284
a(F-1.583264176045553
F-1.1988442579852503
F-2.006191078816549
F-1.4395845572101038
F1.6240789890289307
F-0.5579832235919397
tp53
a(lp54
F0.021675756902319994
aF0.03857974294565648
aF0.02143458834076921
aF-0.0007276122388540137
aF0.1301606452420927
aF-0.3
aa(lp55
(lp56
F-0.13041803840743704
aF-0.18175736514190147
aF-0.10294623942455675
aF0.3641702513477141
aF-0.039966620798391576
aF0.10002178362919312
aaaF0.00015396528760902584
a(lp57
F0.14982393383979797
aF-0.018820516765117645
aag15
(g19
S'\x9bw3\xba\\$\xec\xbf'
p58
tp59
Rp60
aa(lp61
F2.4042038917541504
a(F-1.579423729573385
F-1.2004378477679651
F-2.0059989134417933
F-1.4490445295916956
F1.6394550800323486
F-0.6777818838702601
tp62
a(lp63
F0.05208678480166208
aF-0.13305765831350472
aF-0.056233479628428194
aF0.00507336272634752
aF0.0001995548745254254
aF-0.3
aa(lp64
(lp65
F-0.1535678225132415
aF-0.18818378476543687
aF-0.09142005261836395
aF0.3627072314107428
aF-0.04483956638323193
aF0.08710007697270539
aaaF0.00014777151227463037
a(lp66
F0.14610135555267334
aF-0.017402466386556625
aag15
(g19
S'\x92Q\xe1\xdb\xe2H\xe8\xbf'
p67
tp68
Rp69
aa(lp70
F2.8043668270111084
a(F-1.5825942198382776
F-1.2056267897235315
F-2.0037720839129847
F-1.4600260893451136
F1.6508435010910034
F-0.7978447119342249
tp71
a(lp72
F0.0844779528819779
aF0.044409246915881294
aF0.13284706582478759
aF0.06450948189237884
aF0.05882271948215636
aF-0.2764362648139128
aa(lp73
(lp74
F-0.16458855779010254
aF-0.19057852767425598
aF-0.08463796916571137
aF0.36179344068109254
aF-0.047830469084071486
aF0.0830965227755445
aaaF0.00014615383406635374
a(lp75
F0.14155423641204834
aF-0.01590128242969513
aag15
(g19
S'\x06\xdb-\x0e<l\xe4\xbf'
p76
tp77
Rp78
aa(lp79
F3.204710006713867
a(F-1.5860279242144983
F-1.2076996008502405
F-2.0004800001727503
F-1.4620526472674769
F1.6563278436660767
F-0.9175017515765589
tp80
a(lp81
F0.07731738513359512
aF-0.056635262444151215
aF0.009903822509031279
aF0.062172953428162314
aF0.006242410270220805
aF-0.19139764871834253
aa(lp82
(lp83
F-0.17042649663240472
aF-0.19012519289416324
aF-0.08253450313353701
aF0.3612721547581404
aF-0.0484706031799767
aF0.0819519369102111
aaaF0.00014627455675508827
a(lp84
F0.13683071732521057
aF-0.014433201402425766
aag15
(g19
S'*\xc5u\x89L\x96\xe0\xbf'
p85
tp86
Rp87
aa(lp88
F3.6051409244537354
a(F-1.5851309935199183
F-1.2069810072528284
F-1.9997971693622034
F-1.4610937277423304
F1.6630101203918457
F-1.0361517111407679
tp89
a(lp90
F0.02186358287366495
aF-0.03728144227276064
aF-0.0666479936473437
aF0.07275904385237243
aF0.17687839633240604
aF-0.20696634457961477
aa(lp91
(lp92
F-0.17514189714460773
aF-0.1882366943173462
aF-0.08253270696956536
aF0.36112686432361757
aF-0.04872670685860393
aF0.08093479862960412
aaaF0.000146777558256872
a(lp93
F0.1314237415790558
aF-0.012874841690063477
aag15
(g19
S'{\xf7=\x9d\xb4\x93\xd9\xbf'
p94
tp95
Rp96
aa(lp97
F4.006280899047852
a(F-1.5882895628558558
F-1.2035420576678675
F-2.0015929380999964
F-1.460193936024801
F1.6674768924713135
F-1.1447637716876429
tp98
a(lp99
F0.0003502783730522062
aF0.030641145571823326
aF-0.14049427705979503
aF-0.06776649679577111
aF-0.06652768758340141
aF-0.09782427021504492
aa(lp100
(lp101
F-0.17645183758288796
aF-0.1864862801066282
aF-0.08337620733388758
aF0.36174185983186097
aF-0.04802101531187336
aF0.08243757347941191
aaaF0.00014734351134393364
a(lp102
F0.12627193331718445
aF-0.011462326161563396
aag15
(g19
S'?n\xc7\xbb\n\xa0\xd2\xbf'
p103
tp104
Rp105
aa(lp106
F4.408200025558472
a(F-1.587081257496969
F-1.2034819761859339
F-2.0013659636126917
F-1.4632638136493128
F1.666183352470398
F-1.2361872831927698
tp107
a(lp108
F-0.057230921309714154
aF-0.004294914756727112
aF-0.03640534906519704
aF0.025524289278560725
aF-0.0018462061508316618
aF-0.023891073518584743
aa(lp109
(lp110
F-0.17723409726511677
aF-0.1840271859524612
aF-0.0841623895537553
aF0.361135332409995
aF-0.047404413030426314
aF0.08400726544498946
aaaF0.00014773277507629246
a(lp111
F0.12148543447256088
aF-0.010181182064116001
aag15
(g19
S'\x8b\x07\xab\x9d\xaa\x91\xc9\xbf'
p112
tp113
Rp114
aa(lp115
F4.808887004852295
a(F-1.5913766066180628
F-1.2035177389727991
F-1.9985039869891565
F-1.4676159063922327
F1.664291262626648
F-1.2985666433917444
tp116
a(lp117
F0.0437380329915822
aF-0.06963663293800605
aF-0.027784744229953615
aF-0.0027182665042706257
aF0.0038109503895960893
aF-0.08644254233530493
aa(lp118
(lp119
F-0.17594178870824276
aF-0.18230389879256695
aF-0.08523342231718709
aF0.3612758894937213
aF-0.04665076479545979
aF0.08653582148600636
aaaF0.0001479913480579853
a(lp120
F0.11906353384256363
aF-0.009473619982600212
aag15
(g19
S'k(\xd5\xb9\xb1\x92\xc1\xbf'
p121
tp122
Rp123
aa(lp124
F5.209748983383179
a(F-1.5975859800921839
F-1.203038517628805
F-1.9986956755267542
F-1.4680712858783167
F1.669620156288147
F-1.344339672719137
tp125
a(lp126
F0.0038153021338958376
aF-0.1416499062394484
aF0.028835846634042477
aF-0.08006998870434714
aF0.03739763604117577
aF-0.05085883611047801
aa(lp127
(lp128
F-0.17350447014704973
aF-0.18131708873446423
aF-0.08602744878404972
aF0.36234373874558856
aF-0.04604616630639728
aF0.08986846431937975
aaaF0.00014815641043242067
a(lp129
F0.11696258932352066
aF-0.008936992846429348
aag15
(g19
S'\x8c0\xa4\x189]\xb7\xbf'
p130
tp131
Rp132
aa(lp133
F5.610980987548828
a(F-1.5960543791400355
F-1.2050274054156702
F-1.9999287764178675
F-1.4664047400103968
F1.6709855794906616
F-1.3797977606402796
tp134
a(lp135
F0.10230437000383162
aF-0.01734246469132178
aF0.07576559034494562
aF0.002798745992525418
aF-0.12300780767140326
aF-0.041011078741788234
aa(lp136
(lp137
F-0.17244881986883573
aF-0.1800570632448778
aF-0.08604753750133634
aF0.36182101359806507
aF-0.04578767561217442
aF0.0919030046951029
aaaF0.00014826424012426287
a(lp138
F0.11424466222524643
aF-0.008315429091453552
aag15
(g19
S'JX\xe4\r\xd5\xa4\xac\xbf'
p139
tp140
Rp141
aa(lp142
F6.011044979095459
a(F-1.5947983900653284
F-1.2064417044269007
F-1.9978097120868128
F-1.4639352003680628
F1.6647343635559082
F-1.3969281355487269
tp143
a(lp144
F0.004334443117485351
aF0.09515905787458895
aF0.15814712343431425
aF0.10753206179098564
aF0.13132650035322976
aF-0.0849145660131075
aa(lp145
(lp146
F-0.17236326807240443
aF-0.17920595422635544
aF-0.08617196694789443
aF0.3606973281143358
aF-0.04550704694884873
aF0.0921840870859083
aaaF0.00014839803043287247
a(lp147
F0.11336445063352585
aF-0.0080803781747818
aag15
(g19
S'B#\x103\x82T\xa4\xbf'
p148
tp149
Rp150
aa(lp151
F6.4115378856658936
a(F-1.5942476431476038
F-1.2049678007708948
F-1.9938705603228968
F-1.455902401600973
F1.6621595621109009
F-1.4087746779071253
tp152
a(lp153
F0.023872529054212978
aF-0.024573245687408797
aF-0.08283990588520694
aF-0.032564034222413545
aF0.007166013295625323
aF-0.03581469014794086
aa(lp154
(lp155
F-0.17326344001819394
aF-0.1781927167192032
aF-0.08737241374571512
aF0.36026305940379805
aF-0.04523804884523071
aF0.09081440666320542
aaaF0.00014865778211969882
a(lp156
F0.11360857635736465
aF-0.008084628731012344
aag15
(g19
S's\x8eH\xfci\xf8\x9f\xbf'
p157
tp158
Rp159
aa(lp160
F6.811734914779663
a(F-1.5955880323993128
F-1.2028587500201624
F-1.9886382261859339
F-1.461393181477682
F1.6634771823883057
F-1.4245026747332972
tp161
a(lp162
F-0.14905631984632817
aF-0.3
aF0.3
aF0.060641382885768674
aF0.09678575355169808
aF-0.03639585914684551
aa(lp163
(lp164
F-0.17439239968057163
aF-0.17715886307053874
aF-0.08911991295116393
aF0.3610298091756831
aF-0.045249762551778816
aF0.08949211313593769
aaaF0.00014874058251734823
a(lp165
F0.11451389640569687
aF-0.008153725415468216
aag15
(g19
S'\x94\xf6\xb9*uY\xed\xbf'
p166
tp167
Rp168
aa(lp169
F7.212504863739014
a(F-1.6607087294207972
F-1.3099654356585901
F-1.882477108632223
F-1.4595230261432093
F1.6704586744308472
F-1.4852450529681605
tp170
a(lp171
F-0.09331798373141864
aF-0.2905138225228597
aF0.27755475449907
aF0.0734473090981882
aF0.02536950011634617
aF-0.11413181545131505
aa(lp172
(lp173
F-0.13073800135819585
aF-0.16141953247068952
aF-0.08872468486183868
aF0.35167930803987946
aF-0.0431063942272108
aF0.13278479970477017
aaaF0.00014887085126247257
a(lp174
F0.11659521609544754
aF-0.00853939913213253
aag15
(g19
S'!~xH\xae\xe1\xe7\xbf'
p175
tp176
Rp177
aa(lp178
F7.614316940307617
a(F-1.712175194417135
F-1.4285600821124476
F-1.7663958708392542
F-1.458276096974508
F1.6692250967025757
F-1.5386551062213343
tp179
a(lp180
F0.0344486737275546
aF-0.17726940500021446
aF0.20422446368925057
aF0.06466775733209515
aF-0.16798450380118238
aF-0.13003114304389296
aa(lp181
(lp182
F-0.09375849516791497
aF-0.14431777623657696
aF-0.08878213893078571
aF0.3398325428089391
aF-0.04088931210234934
aF0.17027519241220823
aaaF0.00014895389904268086
a(lp183
F0.11463659256696701
aF-0.008250263519585133
aag15
(g19
S'\xd6\xe4w\xbd\x7f"\xe2\xbf'
p184
tp185
Rp186
aa(lp187
F8.01449990272522
a(F-1.7394979635821741
F-1.536842171345846
F-1.6625250021563929
F-1.453576389943258
F1.6711649894714355
F-1.5778215567218226
tp188
a(lp189
F-0.0723393147250407
aF-0.05704314418867244
aF0.038587181745070545
aF0.026671905489695256
aF-0.04491162058026379
aF-0.03429139852414689
aa(lp190
(lp191
F-0.06866262449694338
aF-0.12817915771156696
aF-0.09055340809746591
aF0.32989208836853184
aF-0.039384794224155965
aF0.1967818020695961
aaaF0.00014901017129886895
a(lp192
F0.10832276195287704
aF-0.007253941148519516
aag15
(g19
S"M\xe3'\x9d\xd0:\xda\xbf"
p193
tp194
Rp195
aa(lp196
F8.415107011795044
a(F-1.757453743611471
F-1.6281350294696253
F-1.5757339636432093
F-1.458707634602682
F1.6763744354248047
F-1.5979560057269495
tp197
a(lp198
F-0.07515127552840697
aF-0.0763246199593388
aF0.1106349991315663
aF-0.06727595449091225
aF-0.01101428518020263
aF0.08747990649977343
aa(lp199
(lp200
F-0.05076021392221139
aF-0.11413342123186718
aF-0.09426178669163816
aF0.3242862336317762
aF-0.03684847048164963
aF0.21657877473184106
aaaF0.00014888773148413748
a(lp201
F0.10087504237890244
aF-0.006126305088400841
aag15
(g19
S'\x1d\xf3\xf6%V\xfc\xd1\xbf'
p202
tp203
Rp204
aa(lp205
F8.815488815307617
a(F-1.7734597365008753
F-1.696070973073141
F-1.5159614721881312
F-1.4656255880938929
F1.676985263824463
F-1.6131909529315394
tp206
a(lp207
F-0.098762548296406
aF-0.031648690100666406
aF-0.09940087946170945
aF-0.02190325607936712
aF0.026269938276588144
aF-0.0465864661646958
aa(lp208
(lp209
F-0.03746809192803767
aF-0.10340594888627684
aF-0.09760162977588618
aF0.3204415616552278
aF-0.03292476786091875
aF0.23195208247122331
aaaF0.00014868698781356215
a(lp210
F0.09298978000879288
aF-0.004926772788167
aag15
(g19
S'\xe43>uD\x10\xc8\xbf'
p211
tp212
Rp213
aas.